(dp0
S'cookies'
p1
(dp2
S'webwx_data_ticket'
p3
S'gSfb8PuRGgEbM52fBtkJnvoO'
p4
sS'wxuin'
p5
S'1610532702'
p6
sS'webwxuvid'
p7
S'a6c7fcceeb1625f0223e419a518d34205644f734467df1545e2e85a1ef83bf39a263fc03fe82e33dfa2d9dba00958798'
p8
sS'webwx_auth_ticket'
p9
S'CIsBEOiZqMwGGoABiKbWPowXkMwBgPO0qncnbl6AdP9m3tRtyR69AY7sPBar1n762O2L/OVXKzxqLnK6HtKOlRhfWDx62ATGNKCXzl2c86cNzJml7trWJdSwhRvdNxb5k1bQ1jTG9MA19MJohNBrGEi0LZJCfyhBgrVffZWTNoql9Nn0FHye6/COiHY='
p10
sS'wxloadtime'
p11
S'1502029012'
p12
sS'wxsid'
p13
S'wXOXLDvvdnNMDh8Y'
p14
sS'mm_lang'
p15
S'zh_CN'
p16
ssS'version'
p17
S'1.3.9'
p18
sS'storage'
p19
(dp20
S'userName'
p21
V@fb4d107899002b4a427f01feb19d7e48817bf48b8eda6413e00e88f8666c3531
p22
sS'lastInputUserName'
p23
NsS'memberList'
p24
ccopy_reg
_reconstructor
p25
(citchat.storage.templates
ContactList
p26
c__builtin__
list
p27
(lp28
g25
(citchat.storage.templates
User
p29
c__builtin__
dict
p30
(dp31
S'UserName'
p32
g22
sS'City'
p33
S''
p34
sS'DisplayName'
p35
g34
sS'UniFriend'
p36
I0
sS'OwnerUin'
p37
I0
sS'MemberList'
p38
g25
(g26
g27
(lp39
tp40
Rp41
I1
bsS'PYQuanPin'
p42
V
p43
sS'RemarkPYInitial'
p44
g43
sS'Uin'
p45
I1610532702
sS'AppAccountFlag'
p46
I0
sS'VerifyFlag'
p47
I0
sS'Province'
p48
g34
sS'KeyWord'
p49
g34
sS'RemarkName'
p50
g43
sS'PYInitial'
p51
g43
sS'ChatRoomId'
p52
I0
sS'HideInputBarFlag'
p53
I0
sVHeadImgFlag
p54
I1
sS'EncryChatRoomId'
p55
g34
sS'AttrStatus'
p56
I0
sS'SnsFlag'
p57
I17
sS'MemberCount'
p58
I0
sVWebWxPluginSwitch
p59
I0
sS'Alias'
p60
g34
sS'Signature'
p61
V\u989d\u989d\uff1f
p62
sS'ContactFlag'
p63
I0
sS'NickName'
p64
V\u5218\u9756
p65
sS'RemarkPYQuanPin'
p66
g43
sS'HeadImgUrl'
p67
V/cgi-bin/mmwebwx-bin/webwxgeticon?seq=1065820094&username=@fb4d107899002b4a427f01feb19d7e48817bf48b8eda6413e00e88f8666c3531&skey=@crypt_6353e9d_f7009d40044db940ad3ae927b3f6f744
p68
sS'Sex'
p69
I1
sS'StarFriend'
p70
I0
sS'Statues'
p71
I0
stp72
Rp73
I1
bag25
(g29
g30
(dp74
VUserName
p75
V@8ac58c8cee5e24570b36b9a3c29a35f9c2b2a99e3c805a135d6ad6bda7663175
p76
sVCity
p77
V\u5357\u4eac
p78
sVSnsFlag
p79
I17
sVDisplayName
p80
g43
sVUniFriend
p81
I0
sVMemberCount
p82
I0
sVOwnerUin
p83
I0
sVMemberList
p84
g41
sVAlias
p85
g43
sVPYQuanPin
p86
Vzhuifengshaonianyourenai
p87
sVSignature
p88
g43
sVRemarkPYInitial
p89
g43
sVContactFlag
p90
I3
sVUin
p91
I0
sVNickName
p92
V\u8ffd\u98ce\u5c11\u5e74\u6709\u4eba\u7231
p93
sVAppAccountFlag
p94
I0
sVVerifyFlag
p95
I0
sVRemarkPYQuanPin
p96
g43
sVHeadImgUrl
p97
V/cgi-bin/mmwebwx-bin/webwxgeticon?seq=668524978&username=@8ac58c8cee5e24570b36b9a3c29a35f9c2b2a99e3c805a135d6ad6bda7663175&skey=@crypt_6353e9d_f7009d40044db940ad3ae927b3f6f744
p98
sVKeyWord
p99
g43
sVProvince
p100
V\u6c5f\u82cf
p101
sVPYInitial
p102
VZFSNYRA
p103
sVRemarkName
p104
g43
sVIsOwner
p105
I0
sVSex
p106
I1
sVStarFriend
p107
I0
sVHideInputBarFlag
p108
I0
sVChatRoomId
p109
I0
sVEncryChatRoomId
p110
g43
sVAttrStatus
p111
I33558845
sVStatues
p112
I0
stp113
Rp114
I1
bag25
(g29
g30
(dp115
VUserName
p116
V@31605e45100bb5633deaf750fc8c7f1d579f8fb71cef0fd6b049f134e0e1ec6c
p117
sVCity
p118
V\u5357\u4eac
p119
sVSnsFlag
p120
I49
sVDisplayName
p121
g43
sVUniFriend
p122
I0
sVMemberCount
p123
I0
sVOwnerUin
p124
I0
sVMemberList
p125
g41
sVAlias
p126
g43
sVPYQuanPin
p127
Vjiayibingding
p128
sVSignature
p129
V\u4ece\u524d\u73b0\u5728\u8fc7\u53bb\u4e86\u518d\u4e0d\u6765
p130
sVRemarkPYInitial
p131
VJYBD
p132
sVContactFlag
p133
I3
sVUin
p134
I0
sVNickName
p135
V\u7532\u4e59\u4e19\u4e01
p136
sVAppAccountFlag
p137
I0
sVVerifyFlag
p138
I0
sVRemarkPYQuanPin
p139
Vjiayibingding
p140
sVHeadImgUrl
p141
V/cgi-bin/mmwebwx-bin/webwxgeticon?seq=668543036&username=@31605e45100bb5633deaf750fc8c7f1d579f8fb71cef0fd6b049f134e0e1ec6c&skey=@crypt_6353e9d_f7009d40044db940ad3ae927b3f6f744
p142
sVKeyWord
p143
g43
sVProvince
p144
V\u6c5f\u82cf
p145
sVPYInitial
p146
VJYBD
p147
sVRemarkName
p148
V\u7532\u4e59\u4e19\u4e01
p149
sVIsOwner
p150
I0
sVSex
p151
I2
sVStarFriend
p152
I0
sVHideInputBarFlag
p153
I0
sVChatRoomId
p154
I0
sVEncryChatRoomId
p155
g43
sVAttrStatus
p156
I104549
sVStatues
p157
I0
stp158
Rp159
I1
bag25
(g29
g30
(dp160
VUserName
p161
V@2a2e8827042cbad673adaad130335e780d6b47ba830bde27dc8c4190706ad436
p162
sVCity
p163
V\u5b89\u5e86
p164
sVSnsFlag
p165
I17
sVDisplayName
p166
g43
sVUniFriend
p167
I0
sVMemberCount
p168
I0
sVOwnerUin
p169
I0
sVMemberList
p170
g41
sVAlias
p171
g43
sVPYQuanPin
p172
Vzhamaodeciwei
p173
sVSignature
p174
V\u6211\u5f53\u65f6\u5c31\u660e\u767d\u4e86\uff0c\u4f60\u8fd8\u662f\u5f53\u521d\u7684\u4f60\uff0c\u6240\u4ee5\u6211\u8bf4\uff0c\u6709\u7f18\u518d\u89c1\u2026\u2026
p175
sVRemarkPYInitial
p176
VZMY
p177
sVContactFlag
p178
I3
sVUin
p179
I0
sVNickName
p180
V\u70b8\u6bdb\u7684\u523a\u732c
p181
sVAppAccountFlag
p182
I0
sVVerifyFlag
p183
I0
sVRemarkPYQuanPin
p184
Vzhangmeiyuan
p185
sVHeadImgUrl
p186
V/cgi-bin/mmwebwx-bin/webwxgeticon?seq=668508056&username=@2a2e8827042cbad673adaad130335e780d6b47ba830bde27dc8c4190706ad436&skey=@crypt_6353e9d_f7009d40044db940ad3ae927b3f6f744
p187
sVKeyWord
p188
g43
sVProvince
p189
V\u5b89\u5fbd
p190
sVPYInitial
p191
VZMDCW
p192
sVRemarkName
p193
V\u5f20\u6885\u5a9b
p194
sVIsOwner
p195
I0
sVSex
p196
I2
sVStarFriend
p197
I0
sVHideInputBarFlag
p198
I0
sVChatRoomId
p199
I0
sVEncryChatRoomId
p200
g43
sVAttrStatus
p201
I105573
sVStatues
p202
I0
stp203
Rp204
I1
bag25
(g29
g30
(dp205
VUserName
p206
V@40caa0369ac488c2d1eef944f994e275
p207
sVCity
p208
V\u5357\u4eac
p209
sVSnsFlag
p210
I49
sVDisplayName
p211
g43
sVUniFriend
p212
I0
sVMemberCount
p213
I0
sVOwnerUin
p214
I0
sVMemberList
p215
g41
sVAlias
p216
g43
sVPYQuanPin
p217
Vshuiwangyunchuan
p218
sVSignature
p219
V\u51b3\u5b9a\u4f60\u4eba\u751f\u9ad8\u5ea6\u7684\uff0c\u4e0d\u662f\u4f60\u7684\u624d\u80fd\uff0c\u800c\u662f\u4f60\u7684\u6001\u5ea6\uff01
p220
sVRemarkPYInitial
p221
g43
sVContactFlag
p222
I3
sVUin
p223
I0
sVNickName
p224
V\u6c34\u671b\u4e91\u7a7f
p225
sVAppAccountFlag
p226
I0
sVVerifyFlag
p227
I0
sVRemarkPYQuanPin
p228
g43
sVHeadImgUrl
p229
V/cgi-bin/mmwebwx-bin/webwxgeticon?seq=656870815&username=@40caa0369ac488c2d1eef944f994e275&skey=@crypt_6353e9d_f7009d40044db940ad3ae927b3f6f744
p230
sVKeyWord
p231
VATY
p232
sVProvince
p233
V\u6c5f\u82cf
p234
sVPYInitial
p235
VSWYC
p236
sVRemarkName
p237
g43
sVIsOwner
p238
I0
sVSex
p239
I2
sVStarFriend
p240
I0
sVHideInputBarFlag
p241
I0
sVChatRoomId
p242
I0
sVEncryChatRoomId
p243
g43
sVAttrStatus
p244
I233407
sVStatues
p245
I0
stp246
Rp247
I1
bag25
(g29
g30
(dp248
VUserName
p249
V@eb4590231760e941b2e336306a69bfa755c88c4968cf370a5526ae16b4e0efbb
p250
sVCity
p251
V\u65e0\u9521
p252
sVSnsFlag
p253
I49
sVDisplayName
p254
g43
sVUniFriend
p255
I0
sVMemberCount
p256
I0
sVOwnerUin
p257
I0
sVMemberList
p258
g41
sVAlias
p259
g43
sVPYQuanPin
p260
Vkangyanyangshengmeirongweilaoshi18362334829
p261
sVSignature
p262
g43
sVRemarkPYInitial
p263
g43
sVContactFlag
p264
I65537
sVUin
p265
I0
sVNickName
p266
V\u5eb7\u598d\u517b\u751f\u7f8e\u5bb9\u3001\u9b4f\u8001\u5e0818362334829
p267
sVAppAccountFlag
p268
I0
sVVerifyFlag
p269
I0
sVRemarkPYQuanPin
p270
g43
sVHeadImgUrl
p271
V/cgi-bin/mmwebwx-bin/webwxgeticon?seq=656873449&username=@eb4590231760e941b2e336306a69bfa755c88c4968cf370a5526ae16b4e0efbb&skey=@crypt_6353e9d_f7009d40044db940ad3ae927b3f6f744
p272
sVKeyWord
p273
g43
sVProvince
p274
V\u6c5f\u82cf
p275
sVPYInitial
p276
VKYYSMRWLS18362334829
p277
sVRemarkName
p278
g43
sVIsOwner
p279
I0
sVSex
p280
I2
sVStarFriend
p281
I0
sVHideInputBarFlag
p282
I0
sVChatRoomId
p283
I0
sVEncryChatRoomId
p284
g43
sVAttrStatus
p285
I98341
sVStatues
p286
I0
stp287
Rp288
I1
bag25
(g29
g30
(dp289
VUserName
p290
V@0021ffaab7696a6ca3e75ae6216b2e4a9adf04f8e24db06b25a2a72e668459f5
p291
sVCity
p292
V\u676d\u5dde
p293
sVSnsFlag
p294
I1
sVDisplayName
p295
g43
sVUniFriend
p296
I0
sVMemberCount
p297
I0
sVOwnerUin
p298
I0
sVMemberList
p299
g41
sVAlias
p300
g43
sVPYQuanPin
p301
VWinnieniu
p302
sVSignature
p303
g43
sVRemarkPYInitial
p304
g43
sVContactFlag
p305
I3
sVUin
p306
I0
sVNickName
p307
VWinnie\u599e
p308
sVAppAccountFlag
p309
I0
sVVerifyFlag
p310
I0
sVRemarkPYQuanPin
p311
g43
sVHeadImgUrl
p312
V/cgi-bin/mmwebwx-bin/webwxgeticon?seq=656880568&username=@0021ffaab7696a6ca3e75ae6216b2e4a9adf04f8e24db06b25a2a72e668459f5&skey=@crypt_6353e9d_f7009d40044db940ad3ae927b3f6f744
p313
sVKeyWord
p314
g43
sVProvince
p315
V\u6d59\u6c5f
p316
sVPYInitial
p317
VWINNIEN
p318
sVRemarkName
p319
g43
sVIsOwner
p320
I0
sVSex
p321
I2
sVStarFriend
p322
I0
sVHideInputBarFlag
p323
I0
sVChatRoomId
p324
I0
sVEncryChatRoomId
p325
g43
sVAttrStatus
p326
I102585
sVStatues
p327
I0
stp328
Rp329
I1
bag25
(g29
g30
(dp330
VUserName
p331
V@c58be51bea3b42cdb562febbd72bec818a10e6d007b98db9036bcfb311a0fffd
p332
sVCity
p333
V\u6dee\u5b89
p334
sVSnsFlag
p335
I1
sVDisplayName
p336
g43
sVUniFriend
p337
I0
sVMemberCount
p338
I0
sVOwnerUin
p339
I0
sVMemberList
p340
g41
sVAlias
p341
g43
sVPYQuanPin
p342
VMa
p343
sVSignature
p344
g43
sVRemarkPYInitial
p345
VLM
p346
sVContactFlag
p347
I3
sVUin
p348
I0
sVNickName
p349
VMa
p350
sVAppAccountFlag
p351
I0
sVVerifyFlag
p352
I0
sVRemarkPYQuanPin
p353
Vlaoma
p354
sVHeadImgUrl
p355
V/cgi-bin/mmwebwx-bin/webwxgeticon?seq=649411536&username=@c58be51bea3b42cdb562febbd72bec818a10e6d007b98db9036bcfb311a0fffd&skey=@crypt_6353e9d_f7009d40044db940ad3ae927b3f6f744
p356
sVKeyWord
p357
g43
sVProvince
p358
V\u6c5f\u82cf
p359
sVPYInitial
p360
VMA
p361
sVRemarkName
p362
V\u8001\u5988
p363
sVIsOwner
p364
I0
sVSex
p365
I1
sVStarFriend
p366
I0
sVHideInputBarFlag
p367
I0
sVChatRoomId
p368
I0
sVEncryChatRoomId
p369
g43
sVAttrStatus
p370
I4133
sVStatues
p371
I0
stp372
Rp373
I1
bag25
(g29
g30
(dp374
VUserName
p375
V@96d5cace614f2c338935eb1328bb1d43d8a30dc3cab163c93d0720bf1222bbaf
p376
sVCity
p377
V\u5e38\u5dde
p378
sVSnsFlag
p379
I1
sVDisplayName
p380
g43
sVUniFriend
p381
I0
sVMemberCount
p382
I0
sVOwnerUin
p383
I0
sVMemberList
p384
g41
sVAlias
p385
g43
sVPYQuanPin
p386
Vhefangyinxiaojuxuxing
p387
sVSignature
p388
g43
sVRemarkPYInitial
p389
VCHX
p390
sVContactFlag
p391
I3
sVUin
p392
I0
sVNickName
p393
V\u4f55\u59a8\u541f\u5578\u4e14\u5f90\u884c
p394
sVAppAccountFlag
p395
I0
sVVerifyFlag
p396
I0
sVRemarkPYQuanPin
p397
Vchihuixiang
p398
sVHeadImgUrl
p399
V/cgi-bin/mmwebwx-bin/webwxgeticon?seq=656886300&username=@96d5cace614f2c338935eb1328bb1d43d8a30dc3cab163c93d0720bf1222bbaf&skey=@crypt_6353e9d_f7009d40044db940ad3ae927b3f6f744
p400
sVKeyWord
p401
g43
sVProvince
p402
V\u6c5f\u82cf
p403
sVPYInitial
p404
VHFYXJXX
p405
sVRemarkName
p406
V\u5403\u6167\u7fd4
p407
sVIsOwner
p408
I0
sVSex
p409
I1
sVStarFriend
p410
I0
sVHideInputBarFlag
p411
I0
sVChatRoomId
p412
I0
sVEncryChatRoomId
p413
g43
sVAttrStatus
p414
I102501
sVStatues
p415
I0
stp416
Rp417
I1
bag25
(g29
g30
(dp418
VUserName
p419
V@c61174c73a24e7f198461852528b2a25348033b0423d8b48dafa01683311cb85
p420
sVCity
p421
V\u5357\u5cb8
p422
sVSnsFlag
p423
I1
sVDisplayName
p424
g43
sVUniFriend
p425
I0
sVMemberCount
p426
I0
sVOwnerUin
p427
I0
sVMemberList
p428
g41
sVAlias
p429
g43
sVPYQuanPin
p430
Vchuotong
p431
sVSignature
p432
V\u52aa\u529b\u5de5\u4f5c\uff0c\u505a\u4e00\u4e2a\u81ea\u4fe1\u7684get\u70b9
p433
sVRemarkPYInitial
p434
g43
sVContactFlag
p435
I3
sVUin
p436
I0
sVNickName
p437
V\u5a7c\u5f64
p438
sVAppAccountFlag
p439
I0
sVVerifyFlag
p440
I0
sVRemarkPYQuanPin
p441
g43
sVHeadImgUrl
p442
V/cgi-bin/mmwebwx-bin/webwxgeticon?seq=656874974&username=@c61174c73a24e7f198461852528b2a25348033b0423d8b48dafa01683311cb85&skey=@crypt_6353e9d_f7009d40044db940ad3ae927b3f6f744
p443
sVKeyWord
p444
g43
sVProvince
p445
V\u91cd\u5e86
p446
sVPYInitial
p447
VCT
p448
sVRemarkName
p449
g43
sVIsOwner
p450
I0
sVSex
p451
I2
sVStarFriend
p452
I0
sVHideInputBarFlag
p453
I0
sVChatRoomId
p454
I0
sVEncryChatRoomId
p455
g43
sVAttrStatus
p456
I102433
sVStatues
p457
I0
stp458
Rp459
I1
bag25
(g29
g30
(dp460
VUserName
p461
V@99ef43a06abea7e94b9fe2f106688f4f4a5169d2bad8004acb173ab3ce41a267
p462
sVCity
p463
V\u5357\u4eac
p464
sVSnsFlag
p465
I1
sVDisplayName
p466
g43
sVUniFriend
p467
I0
sVMemberCount
p468
I0
sVOwnerUin
p469
I0
sVMemberList
p470
g41
sVAlias
p471
g43
sVPYQuanPin
p472
VAngle
p473
sVSignature
p474
V\u672a\u6765\u4e0d\u8fce\uff0c\u8fc7\u5f80\u4e0d\u604b\uff0c\u6d3b\u597d\u5f53\u4e0b\uff01
p475
sVRemarkPYInitial
p476
g43
sVContactFlag
p477
I3
sVUin
p478
I0
sVNickName
p479
VAngle~
p480
sVAppAccountFlag
p481
I0
sVVerifyFlag
p482
I0
sVRemarkPYQuanPin
p483
g43
sVHeadImgUrl
p484
V/cgi-bin/mmwebwx-bin/webwxgeticon?seq=656886397&username=@99ef43a06abea7e94b9fe2f106688f4f4a5169d2bad8004acb173ab3ce41a267&skey=@crypt_6353e9d_f7009d40044db940ad3ae927b3f6f744
p485
sVKeyWord
p486
g43
sVProvince
p487
V\u6c5f\u82cf
p488
sVPYInitial
p489
VANGLE
p490
sVRemarkName
p491
g43
sVIsOwner
p492
I0
sVSex
p493
I2
sVStarFriend
p494
I0
sVHideInputBarFlag
p495
I0
sVChatRoomId
p496
I0
sVEncryChatRoomId
p497
g43
sVAttrStatus
p498
I102437
sVStatues
p499
I0
stp500
Rp501
I1
bag25
(g29
g30
(dp502
VUserName
p503
V@e76cdfee1bca2887887c881b120aa0b332c8b6d9d67862aee139ad09d8e17c01
p504
sVCity
p505
V\u5e7f\u5dde
p506
sVSnsFlag
p507
I1
sVDisplayName
p508
g43
sVUniFriend
p509
I0
sVMemberCount
p510
I0
sVOwnerUin
p511
I0
sVMemberList
p512
g41
sVAlias
p513
g43
sVPYQuanPin
p514
Vwo
p515
sVSignature
p516
V\u7ed9
p517
sVRemarkPYInitial
p518
g43
sVContactFlag
p519
I3
sVUin
p520
I0
sVNickName
p521
V\u6211
p522
sVAppAccountFlag
p523
I0
sVVerifyFlag
p524
I0
sVRemarkPYQuanPin
p525
g43
sVHeadImgUrl
p526
V/cgi-bin/mmwebwx-bin/webwxgeticon?seq=656874692&username=@e76cdfee1bca2887887c881b120aa0b332c8b6d9d67862aee139ad09d8e17c01&skey=@crypt_6353e9d_f7009d40044db940ad3ae927b3f6f744
p527
sVKeyWord
p528
g43
sVProvince
p529
V\u5e7f\u4e1c
p530
sVPYInitial
p531
VW
p532
sVRemarkName
p533
g43
sVIsOwner
p534
I0
sVSex
p535
I2
sVStarFriend
p536
I0
sVHideInputBarFlag
p537
I0
sVChatRoomId
p538
I0
sVEncryChatRoomId
p539
g43
sVAttrStatus
p540
I4133
sVStatues
p541
I0
stp542
Rp543
I1
bag25
(g29
g30
(dp544
VUserName
p545
V@4d3f70a2402977edd45a981c2976a9b037f2ec39bf62215a4115a5fad38d901e
p546
sVCity
p547
V\u5b9d\u5c71
p548
sVSnsFlag
p549
I17
sVDisplayName
p550
g43
sVUniFriend
p551
I0
sVMemberCount
p552
I0
sVOwnerUin
p553
I0
sVMemberList
p554
g41
sVAlias
p555
g43
sVPYQuanPin
p556
Vyongheng
p557
sVSignature
p558
g43
sVRemarkPYInitial
p559
g43
sVContactFlag
p560
I3
sVUin
p561
I0
sVNickName
p562
V\u6c38\u6052
p563
sVAppAccountFlag
p564
I0
sVVerifyFlag
p565
I0
sVRemarkPYQuanPin
p566
g43
sVHeadImgUrl
p567
V/cgi-bin/mmwebwx-bin/webwxgeticon?seq=656890678&username=@4d3f70a2402977edd45a981c2976a9b037f2ec39bf62215a4115a5fad38d901e&skey=@crypt_6353e9d_f7009d40044db940ad3ae927b3f6f744
p568
sVKeyWord
p569
g43
sVProvince
p570
V\u4e0a\u6d77
p571
sVPYInitial
p572
VYH
p573
sVRemarkName
p574
g43
sVIsOwner
p575
I0
sVSex
p576
I1
sVStarFriend
p577
I0
sVHideInputBarFlag
p578
I0
sVChatRoomId
p579
I0
sVEncryChatRoomId
p580
g43
sVAttrStatus
p581
I112741
sVStatues
p582
I0
stp583
Rp584
I1
bag25
(g29
g30
(dp585
VUserName
p586
V@ff6bf09419f998d1d5df119d59de282d
p587
sVCity
p588
V\u5357\u4eac
p589
sVSnsFlag
p590
I49
sVDisplayName
p591
g43
sVUniFriend
p592
I0
sVMemberCount
p593
I0
sVOwnerUin
p594
I0
sVMemberList
p595
g41
sVAlias
p596
g43
sVPYQuanPin
p597
Vhualidebuxuyaoxieshi
p598
sVSignature
p599
V\u770b\u900f\u4eba\u60c5\u5374\u4e0d\u4e16\u6545\uff0c\u892a\u53bb\u7a1a\u5ae9\u4ecd\u65e7\u5355\u7eaf\u3002\u3002\u3002
p600
sVRemarkPYInitial
p601
VZQ
p602
sVContactFlag
p603
I65539
sVUin
p604
I0
sVNickName
p605
V\u534e\u4e3d\u5f97\u4e0d\u9700\u8981\u89e3\u91ca
p606
sVAppAccountFlag
p607
I0
sVVerifyFlag
p608
I0
sVRemarkPYQuanPin
p609
Vzhengquan
p610
sVHeadImgUrl
p611
V/cgi-bin/mmwebwx-bin/webwxgeticon?seq=667330370&username=@ff6bf09419f998d1d5df119d59de282d&skey=@crypt_6353e9d_f7009d40044db940ad3ae927b3f6f744
p612
sVKeyWord
p613
Vlis
p614
sVProvince
p615
V\u6c5f\u82cf
p616
sVPYInitial
p617
VHLDBXYXS
p618
sVRemarkName
p619
V\u8bc1\u5238
p620
sVIsOwner
p621
I0
sVSex
p622
I1
sVStarFriend
p623
I0
sVHideInputBarFlag
p624
I0
sVChatRoomId
p625
I0
sVEncryChatRoomId
p626
g43
sVAttrStatus
p627
I102439
sVStatues
p628
I0
stp629
Rp630
I1
bag25
(g29
g30
(dp631
VUserName
p632
V@586575b4eb823a4b452a6df7105895d8f0772c976ee68fe57ee6f8b683ec44f4
p633
sVCity
p634
V\u626c\u5dde
p635
sVSnsFlag
p636
I1
sVDisplayName
p637
g43
sVUniFriend
p638
I0
sVMemberCount
p639
I0
sVOwnerUin
p640
I0
sVMemberList
p641
g41
sVAlias
p642
g43
sVPYQuanPin
p643
Vwencheng
p644
sVSignature
p645
Vno pain,no gain.
p646
sVRemarkPYInitial
p647
VXWC
p648
sVContactFlag
p649
I3
sVUin
p650
I0
sVNickName
p651
V\u554f\u627f
p652
sVAppAccountFlag
p653
I0
sVVerifyFlag
p654
I0
sVRemarkPYQuanPin
p655
Vxuwencheng
p656
sVHeadImgUrl
p657
V/cgi-bin/mmwebwx-bin/webwxgeticon?seq=651750698&username=@586575b4eb823a4b452a6df7105895d8f0772c976ee68fe57ee6f8b683ec44f4&skey=@crypt_6353e9d_f7009d40044db940ad3ae927b3f6f744
p658
sVKeyWord
p659
g43
sVProvince
p660
V\u6c5f\u82cf
p661
sVPYInitial
p662
VWC
p663
sVRemarkName
p664
V\u5f90\u6587\u6210
p665
sVIsOwner
p666
I0
sVSex
p667
I1
sVStarFriend
p668
I0
sVHideInputBarFlag
p669
I0
sVChatRoomId
p670
I0
sVEncryChatRoomId
p671
g43
sVAttrStatus
p672
I135269
sVStatues
p673
I0
stp674
Rp675
I1
bag25
(g29
g30
(dp676
VUserName
p677
V@3975571db654f013f6b8ad733489e31be33203c9a72ad70d3ccc1de7abef2bd2
p678
sVCity
p679
V\u6dee\u5b89
p680
sVSnsFlag
p681
I17
sVDisplayName
p682
g43
sVUniFriend
p683
I0
sVMemberCount
p684
I0
sVOwnerUin
p685
I0
sVMemberList
p686
g41
sVAlias
p687
g43
sVPYQuanPin
p688
Vlaowu
p689
sVSignature
p690
g43
sVRemarkPYInitial
p691
g43
sVContactFlag
p692
I3
sVUin
p693
I0
sVNickName
p694
V\u8001\u4e94
p695
sVAppAccountFlag
p696
I0
sVVerifyFlag
p697
I0
sVRemarkPYQuanPin
p698
g43
sVHeadImgUrl
p699
V/cgi-bin/mmwebwx-bin/webwxgeticon?seq=668497684&username=@3975571db654f013f6b8ad733489e31be33203c9a72ad70d3ccc1de7abef2bd2&skey=@crypt_6353e9d_f7009d40044db940ad3ae927b3f6f744
p700
sVKeyWord
p701
g43
sVProvince
p702
V\u6c5f\u82cf
p703
sVPYInitial
p704
VLW
p705
sVRemarkName
p706
g43
sVIsOwner
p707
I0
sVSex
p708
I1
sVStarFriend
p709
I0
sVHideInputBarFlag
p710
I0
sVChatRoomId
p711
I0
sVEncryChatRoomId
p712
g43
sVAttrStatus
p713
I4157
sVStatues
p714
I0
stp715
Rp716
I1
bag25
(g29
g30
(dp717
VUserName
p718
V@7ec3d6109d9704e8dd3b2217f2b47d66970079b2f5f0c9e9241e777c14231ec8
p719
sVCity
p720
V\u76d8\u9526
p721
sVSnsFlag
p722
I1
sVDisplayName
p723
g43
sVUniFriend
p724
I0
sVMemberCount
p725
I0
sVOwnerUin
p726
I0
sVMemberList
p727
g41
sVAlias
p728
g43
sVPYQuanPin
p729
Vpanjinanqiernvxing
p730
sVSignature
p731
V\u6211\u6ca1\u6709\u8d2a\u5a6a\uff0c\u4f46\u6211\u7fa1\u6155\u6d77\u67af\u77f3\u70c2
p732
sVRemarkPYInitial
p733
g43
sVContactFlag
p734
I65539
sVUin
p735
I0
sVNickName
p736
V\u76d8\u9526\u5b89\u742a\u513f\u5973\u6027
p737
sVAppAccountFlag
p738
I0
sVVerifyFlag
p739
I0
sVRemarkPYQuanPin
p740
g43
sVHeadImgUrl
p741
V/cgi-bin/mmwebwx-bin/webwxgeticon?seq=656891306&username=@7ec3d6109d9704e8dd3b2217f2b47d66970079b2f5f0c9e9241e777c14231ec8&skey=@crypt_6353e9d_f7009d40044db940ad3ae927b3f6f744
p742
sVKeyWord
p743
g43
sVProvince
p744
V\u8fbd\u5b81
p745
sVPYInitial
p746
VPJAQENX
p747
sVRemarkName
p748
g43
sVIsOwner
p749
I0
sVSex
p750
I2
sVStarFriend
p751
I0
sVHideInputBarFlag
p752
I0
sVChatRoomId
p753
I0
sVEncryChatRoomId
p754
g43
sVAttrStatus
p755
I236221
sVStatues
p756
I0
stp757
Rp758
I1
bag25
(g29
g30
(dp759
VUserName
p760
V@085112d0946d665e19307b63e404dc0bac3f54e250cb46c0d5999bbe0df2b349
p761
sVCity
p762
V\u76ca\u9633
p763
sVSnsFlag
p764
I17
sVDisplayName
p765
g43
sVUniFriend
p766
I0
sVMemberCount
p767
I0
sVOwnerUin
p768
I0
sVMemberList
p769
g41
sVAlias
p770
g43
sVPYQuanPin
p771
Vyandeqiang
p772
sVSignature
p773
g43
sVRemarkPYInitial
p774
VXQ
p775
sVContactFlag
p776
I3
sVUin
p777
I0
sVNickName
p778
V\u4e25\u5fb7\u5f3a
p779
sVAppAccountFlag
p780
I0
sVVerifyFlag
p781
I0
sVRemarkPYQuanPin
p782
Vxiaoqiang
p783
sVHeadImgUrl
p784
V/cgi-bin/mmwebwx-bin/webwxgeticon?seq=668508756&username=@085112d0946d665e19307b63e404dc0bac3f54e250cb46c0d5999bbe0df2b349&skey=@crypt_6353e9d_f7009d40044db940ad3ae927b3f6f744
p785
sVKeyWord
p786
g43
sVProvince
p787
V\u6e56\u5357
p788
sVPYInitial
p789
VYDQ
p790
sVRemarkName
p791
V\u5c0f\u5f3a
p792
sVIsOwner
p793
I0
sVSex
p794
I1
sVStarFriend
p795
I0
sVHideInputBarFlag
p796
I0
sVChatRoomId
p797
I0
sVEncryChatRoomId
p798
g43
sVAttrStatus
p799
I33656871
sVStatues
p800
I0
stp801
Rp802
I1
bag25
(g29
g30
(dp803
VUserName
p804
V@f811b628d64133de3fdfe6b679b4985603b3f991f18e7e9983961e123ae526cc
p805
sVCity
p806
g43
sVSnsFlag
p807
I0
sVDisplayName
p808
g43
sVUniFriend
p809
I0
sVMemberCount
p810
I0
sVOwnerUin
p811
I0
sVMemberList
p812
g41
sVAlias
p813
g43
sVPYQuanPin
p814
Vhuanxiangrensheng
p815
sVSignature
p816
V\u68a6
p817
sVRemarkPYInitial
p818
g43
sVContactFlag
p819
I3
sVUin
p820
I0
sVNickName
p821
V\u5e7b\u60f3\u4eba\u751f
p822
sVAppAccountFlag
p823
I0
sVVerifyFlag
p824
I0
sVRemarkPYQuanPin
p825
g43
sVHeadImgUrl
p826
V/cgi-bin/mmwebwx-bin/webwxgeticon?seq=656875396&username=@f811b628d64133de3fdfe6b679b4985603b3f991f18e7e9983961e123ae526cc&skey=@crypt_6353e9d_f7009d40044db940ad3ae927b3f6f744
p827
sVKeyWord
p828
g43
sVProvince
p829
V\u6c5f\u82cf
p830
sVPYInitial
p831
VHXRS
p832
sVRemarkName
p833
g43
sVIsOwner
p834
I0
sVSex
p835
I1
sVStarFriend
p836
I0
sVHideInputBarFlag
p837
I0
sVChatRoomId
p838
I0
sVEncryChatRoomId
p839
g43
sVAttrStatus
p840
I4133
sVStatues
p841
I0
stp842
Rp843
I1
bag25
(g29
g30
(dp844
VUserName
p845
V@6447aa0c112f708a85273fc58002ff15
p846
sVCity
p847
V\u5357\u901a
p848
sVSnsFlag
p849
I49
sVDisplayName
p850
g43
sVUniFriend
p851
I0
sVMemberCount
p852
I0
sVOwnerUin
p853
I0
sVMemberList
p854
g41
sVAlias
p855
g43
sVPYQuanPin
p856
Vlemonlyp
p857
sVSignature
p858
g43
sVRemarkPYInitial
p859
VLYP
p860
sVContactFlag
p861
I3
sVUin
p862
I0
sVNickName
p863
Vlemonlyp
p864
sVAppAccountFlag
p865
I0
sVVerifyFlag
p866
I0
sVRemarkPYQuanPin
p867
Vlinyunpeng
p868
sVHeadImgUrl
p869
V/cgi-bin/mmwebwx-bin/webwxgeticon?seq=668513872&username=@6447aa0c112f708a85273fc58002ff15&skey=@crypt_6353e9d_f7009d40044db940ad3ae927b3f6f744
p870
sVKeyWord
p871
Vlin
p872
sVProvince
p873
V\u6c5f\u82cf
p874
sVPYInitial
p875
VLEMONLYP
p876
sVRemarkName
p877
V\u6797\u4e91\u9e4f
p878
sVIsOwner
p879
I0
sVSex
p880
I1
sVStarFriend
p881
I0
sVHideInputBarFlag
p882
I0
sVChatRoomId
p883
I0
sVEncryChatRoomId
p884
g43
sVAttrStatus
p885
I104615
sVStatues
p886
I0
stp887
Rp888
I1
bag25
(g29
g30
(dp889
VUserName
p890
V@f480e901d27e30e62ee3a06263fabb10148bcf1cd0b3095a59228bc4d82f5f52
p891
sVCity
p892
V\u5357\u4eac
p893
sVSnsFlag
p894
I17
sVDisplayName
p895
g43
sVUniFriend
p896
I0
sVMemberCount
p897
I0
sVOwnerUin
p898
I0
sVMemberList
p899
g41
sVAlias
p900
g43
sVPYQuanPin
p901
Vjieaobuxun
p902
sVSignature
p903
V\u7231\u4f60\uff0c\u4e0d\u9700\u8981\u7406\u7531\uff01\uff01
p904
sVRemarkPYInitial
p905
g43
sVContactFlag
p906
I3
sVUin
p907
I0
sVNickName
p908
V\u201c\u5091\u201d\u9a9c\u4e0d\u9a6f
p909
sVAppAccountFlag
p910
I0
sVVerifyFlag
p911
I0
sVRemarkPYQuanPin
p912
g43
sVHeadImgUrl
p913
V/cgi-bin/mmwebwx-bin/webwxgeticon?seq=656887939&username=@f480e901d27e30e62ee3a06263fabb10148bcf1cd0b3095a59228bc4d82f5f52&skey=@crypt_6353e9d_f7009d40044db940ad3ae927b3f6f744
p914
sVKeyWord
p915
g43
sVProvince
p916
V\u6c5f\u82cf
p917
sVPYInitial
p918
VJABX
p919
sVRemarkName
p920
g43
sVIsOwner
p921
I0
sVSex
p922
I1
sVStarFriend
p923
I0
sVHideInputBarFlag
p924
I0
sVChatRoomId
p925
I0
sVEncryChatRoomId
p926
g43
sVAttrStatus
p927
I102439
sVStatues
p928
I0
stp929
Rp930
I1
bag25
(g29
g30
(dp931
VUserName
p932
V@be47fb60e996837a0d388e5fd57341c6090a85a9e5a3846d921843e03f8a1d40
p933
sVCity
p934
g43
sVSnsFlag
p935
I1
sVDisplayName
p936
g43
sVUniFriend
p937
I0
sVMemberCount
p938
I0
sVOwnerUin
p939
I0
sVMemberList
p940
g41
sVAlias
p941
g43
sVPYQuanPin
p942
Vsanshengyouyeming
p943
sVSignature
p944
g43
sVRemarkPYInitial
p945
g43
sVContactFlag
p946
I3
sVUin
p947
I0
sVNickName
p948
V\u4e09\u751f\u6709\u7237\u540d
p949
sVAppAccountFlag
p950
I0
sVVerifyFlag
p951
I0
sVRemarkPYQuanPin
p952
g43
sVHeadImgUrl
p953
V/cgi-bin/mmwebwx-bin/webwxgeticon?seq=656887729&username=@be47fb60e996837a0d388e5fd57341c6090a85a9e5a3846d921843e03f8a1d40&skey=@crypt_6353e9d_f7009d40044db940ad3ae927b3f6f744
p954
sVKeyWord
p955
g43
sVProvince
p956
g43
sVPYInitial
p957
VSSYYM
p958
sVRemarkName
p959
g43
sVIsOwner
p960
I0
sVSex
p961
I0
sVStarFriend
p962
I0
sVHideInputBarFlag
p963
I0
sVChatRoomId
p964
I0
sVEncryChatRoomId
p965
g43
sVAttrStatus
p966
I136037
sVStatues
p967
I0
stp968
Rp969
I1
bag25
(g29
g30
(dp970
VUserName
p971
V@47a58895f12a8c73c0870ed9cc5ac812f8c0055ccb1377022ec33ffb9349e3b5
p972
sVCity
p973
V\u5357\u4eac
p974
sVSnsFlag
p975
I49
sVDisplayName
p976
g43
sVUniFriend
p977
I0
sVMemberCount
p978
I0
sVOwnerUin
p979
I0
sVMemberList
p980
g41
sVAlias
p981
g43
sVPYQuanPin
p982
Vxiaoxiaoyong
p983
sVSignature
p984
V\u4f9d\u9760\u7684\u5f00\u59cb
p985
sVRemarkPYInitial
p986
VZXY
p987
sVContactFlag
p988
I3
sVUin
p989
I0
sVNickName
p990
V\u5c0f\u5c0f\u52c7
p991
sVAppAccountFlag
p992
I0
sVVerifyFlag
p993
I0
sVRemarkPYQuanPin
p994
Vzhangxiaoyong
p995
sVHeadImgUrl
p996
V/cgi-bin/mmwebwx-bin/webwxgeticon?seq=668081091&username=@47a58895f12a8c73c0870ed9cc5ac812f8c0055ccb1377022ec33ffb9349e3b5&skey=@crypt_6353e9d_f7009d40044db940ad3ae927b3f6f744
p997
sVKeyWord
p998
g43
sVProvince
p999
V\u6c5f\u82cf
p1000
sVPYInitial
p1001
VXXY
p1002
sVRemarkName
p1003
V\u5f20\u5c0f\u52c7
p1004
sVIsOwner
p1005
I0
sVSex
p1006
I1
sVStarFriend
p1007
I0
sVHideInputBarFlag
p1008
I0
sVChatRoomId
p1009
I0
sVEncryChatRoomId
p1010
g43
sVAttrStatus
p1011
I102589
sVStatues
p1012
I0
stp1013
Rp1014
I1
bag25
(g29
g30
(dp1015
VUserName
p1016
V@aea20ba99b50322d2b0141d83b07f6d6
p1017
sVCity
p1018
V\u5357\u4eac
p1019
sVSnsFlag
p1020
I17
sVDisplayName
p1021
g43
sVUniFriend
p1022
I0
sVMemberCount
p1023
I0
sVOwnerUin
p1024
I0
sVMemberList
p1025
g41
sVAlias
p1026
g43
sVPYQuanPin
p1027
Vwoxingyu
p1028
sVSignature
p1029
g43
sVRemarkPYInitial
p1030
g43
sVContactFlag
p1031
I3
sVUin
p1032
I0
sVNickName
p1033
V\u6211\u59d3\u55bb
p1034
sVAppAccountFlag
p1035
I0
sVVerifyFlag
p1036
I0
sVRemarkPYQuanPin
p1037
g43
sVHeadImgUrl
p1038
V/cgi-bin/mmwebwx-bin/webwxgeticon?seq=668517206&username=@aea20ba99b50322d2b0141d83b07f6d6&skey=@crypt_6353e9d_f7009d40044db940ad3ae927b3f6f744
p1039
sVKeyWord
p1040
Vwox
p1041
sVProvince
p1042
V\u6c5f\u82cf
p1043
sVPYInitial
p1044
VWXY
p1045
sVRemarkName
p1046
g43
sVIsOwner
p1047
I0
sVSex
p1048
I1
sVStarFriend
p1049
I0
sVHideInputBarFlag
p1050
I0
sVChatRoomId
p1051
I0
sVEncryChatRoomId
p1052
g43
sVAttrStatus
p1053
I103
sVStatues
p1054
I0
stp1055
Rp1056
I1
bag25
(g29
g30
(dp1057
VUserName
p1058
V@abfab30ccc9e53e102a3b8c5a1af2a0301ca170330dfbad8bac99aa49dfda27f
p1059
sVCity
p1060
g43
sVSnsFlag
p1061
I1
sVDisplayName
p1062
g43
sVUniFriend
p1063
I0
sVMemberCount
p1064
I0
sVOwnerUin
p1065
I0
sVMemberList
p1066
g41
sVAlias
p1067
g43
sVPYQuanPin
p1068
VVictoria
p1069
sVSignature
p1070
g43
sVRemarkPYInitial
p1071
VLHDC
p1072
sVContactFlag
p1073
I3
sVUin
p1074
I0
sVNickName
p1075
VVictoria
p1076
sVAppAccountFlag
p1077
I0
sVVerifyFlag
p1078
I0
sVRemarkPYQuanPin
p1079
Vlianghaidechan
p1080
sVHeadImgUrl
p1081
V/cgi-bin/mmwebwx-bin/webwxgeticon?seq=668520015&username=@abfab30ccc9e53e102a3b8c5a1af2a0301ca170330dfbad8bac99aa49dfda27f&skey=@crypt_6353e9d_f7009d40044db940ad3ae927b3f6f744
p1082
sVKeyWord
p1083
g43
sVProvince
p1084
V\u5409\u6797
p1085
sVPYInitial
p1086
VVICTORIA
p1087
sVRemarkName
p1088
V\u6881\u6d77\u5730\u4ea7
p1089
sVIsOwner
p1090
I0
sVSex
p1091
I2
sVStarFriend
p1092
I0
sVHideInputBarFlag
p1093
I0
sVChatRoomId
p1094
I0
sVEncryChatRoomId
p1095
g43
sVAttrStatus
p1096
I233829
sVStatues
p1097
I0
stp1098
Rp1099
I1
bag25
(g29
g30
(dp1100
VUserName
p1101
V@dbda1d4240615c70ff75e9b646e0aafa34c888a52931f443e346c4523d6ef2d9
p1102
sVCity
p1103
V\u798f\u5dde
p1104
sVSnsFlag
p1105
I17
sVDisplayName
p1106
g43
sVUniFriend
p1107
I0
sVMemberCount
p1108
I0
sVOwnerUin
p1109
I0
sVMemberList
p1110
g41
sVAlias
p1111
g43
sVPYQuanPin
p1112
Vzixi
p1113
sVSignature
p1114
V\u4e0d\u5fd8\u521d\u5fc3
p1115
sVRemarkPYInitial
p1116
g43
sVContactFlag
p1117
I3
sVUin
p1118
I0
sVNickName
p1119
V\u6893\u5915
p1120
sVAppAccountFlag
p1121
I0
sVVerifyFlag
p1122
I0
sVRemarkPYQuanPin
p1123
g43
sVHeadImgUrl
p1124
V/cgi-bin/mmwebwx-bin/webwxgeticon?seq=668519329&username=@dbda1d4240615c70ff75e9b646e0aafa34c888a52931f443e346c4523d6ef2d9&skey=@crypt_6353e9d_f7009d40044db940ad3ae927b3f6f744
p1125
sVKeyWord
p1126
g43
sVProvince
p1127
V\u798f\u5efa
p1128
sVPYInitial
p1129
VZX
p1130
sVRemarkName
p1131
g43
sVIsOwner
p1132
I0
sVSex
p1133
I2
sVStarFriend
p1134
I0
sVHideInputBarFlag
p1135
I0
sVChatRoomId
p1136
I0
sVEncryChatRoomId
p1137
g43
sVAttrStatus
p1138
I4605
sVStatues
p1139
I0
stp1140
Rp1141
I1
bag25
(g29
g30
(dp1142
VUserName
p1143
V@fd2a1af1fda748f97c40db44d761d3b2089bfead9ceb77dc1f55fa1f22e23fb2
p1144
sVCity
p1145
V\u5e38\u5dde
p1146
sVSnsFlag
p1147
I17
sVDisplayName
p1148
g43
sVUniFriend
p1149
I0
sVMemberCount
p1150
I0
sVOwnerUin
p1151
I0
sVMemberList
p1152
g41
sVAlias
p1153
g43
sVPYQuanPin
p1154
Vxulingdan
p1155
sVSignature
p1156
g43
sVRemarkPYInitial
p1157
g43
sVContactFlag
p1158
I3
sVUin
p1159
I0
sVNickName
p1160
V\u5f90\u73b2\u4e39
p1161
sVAppAccountFlag
p1162
I0
sVVerifyFlag
p1163
I0
sVRemarkPYQuanPin
p1164
g43
sVHeadImgUrl
p1165
V/cgi-bin/mmwebwx-bin/webwxgeticon?seq=668521853&username=@fd2a1af1fda748f97c40db44d761d3b2089bfead9ceb77dc1f55fa1f22e23fb2&skey=@crypt_6353e9d_f7009d40044db940ad3ae927b3f6f744
p1166
sVKeyWord
p1167
g43
sVProvince
p1168
V\u6c5f\u82cf
p1169
sVPYInitial
p1170
VXLD
p1171
sVRemarkName
p1172
g43
sVIsOwner
p1173
I0
sVSex
p1174
I2
sVStarFriend
p1175
I0
sVHideInputBarFlag
p1176
I0
sVChatRoomId
p1177
I0
sVEncryChatRoomId
p1178
g43
sVAttrStatus
p1179
I4197
sVStatues
p1180
I0
stp1181
Rp1182
I1
bag25
(g29
g30
(dp1183
VUserName
p1184
V@60efb2f0e37a9e60cb88a416166c83532f7ac8ff900bbe85482b773ccb41012a
p1185
sVCity
p1186
g43
sVSnsFlag
p1187
I17
sVDisplayName
p1188
g43
sVUniFriend
p1189
I0
sVMemberCount
p1190
I0
sVOwnerUin
p1191
I0
sVMemberList
p1192
g41
sVAlias
p1193
g43
sVPYQuanPin
p1194
Vlalalalalala
p1195
sVSignature
p1196
VEscape,\u9003\u3052
p1197
sVRemarkPYInitial
p1198
g43
sVContactFlag
p1199
I3
sVUin
p1200
I0
sVNickName
p1201
V\u5566\u5566\u5566\u5566\u5566\u5566
p1202
sVAppAccountFlag
p1203
I0
sVVerifyFlag
p1204
I0
sVRemarkPYQuanPin
p1205
g43
sVHeadImgUrl
p1206
V/cgi-bin/mmwebwx-bin/webwxgeticon?seq=668513884&username=@60efb2f0e37a9e60cb88a416166c83532f7ac8ff900bbe85482b773ccb41012a&skey=@crypt_6353e9d_f7009d40044db940ad3ae927b3f6f744
p1207
sVKeyWord
p1208
g43
sVProvince
p1209
VKanagawa
p1210
sVPYInitial
p1211
VLLLLLL
p1212
sVRemarkName
p1213
g43
sVIsOwner
p1214
I0
sVSex
p1215
I2
sVStarFriend
p1216
I0
sVHideInputBarFlag
p1217
I0
sVChatRoomId
p1218
I0
sVEncryChatRoomId
p1219
g43
sVAttrStatus
p1220
I102501
sVStatues
p1221
I0
stp1222
Rp1223
I1
bag25
(g29
g30
(dp1224
VUserName
p1225
V@1e75d608ea53033428ababf7c14a8a77e06a9b7d09dbf29b700ea50ae42c1a62
p1226
sVCity
p1227
g43
sVSnsFlag
p1228
I17
sVDisplayName
p1229
g43
sVUniFriend
p1230
I0
sVMemberCount
p1231
I0
sVOwnerUin
p1232
I0
sVMemberList
p1233
g41
sVAlias
p1234
g43
sVPYQuanPin
p1235
Vbumingzeyi
p1236
sVSignature
p1237
g43
sVRemarkPYInitial
p1238
VCXM
p1239
sVContactFlag
p1240
I3
sVUin
p1241
I0
sVNickName
p1242
V\u4e0d\u9e23\u5219\u5df2
p1243
sVAppAccountFlag
p1244
I0
sVVerifyFlag
p1245
I0
sVRemarkPYQuanPin
p1246
Vchenxiaoming
p1247
sVHeadImgUrl
p1248
V/cgi-bin/mmwebwx-bin/webwxgeticon?seq=668523709&username=@1e75d608ea53033428ababf7c14a8a77e06a9b7d09dbf29b700ea50ae42c1a62&skey=@crypt_6353e9d_f7009d40044db940ad3ae927b3f6f744
p1249
sVKeyWord
p1250
g43
sVProvince
p1251
V\u6c5f\u82cf
p1252
sVPYInitial
p1253
VBMZY
p1254
sVRemarkName
p1255
V\u9648\u6653\u9e23
p1256
sVIsOwner
p1257
I0
sVSex
p1258
I2
sVStarFriend
p1259
I0
sVHideInputBarFlag
p1260
I0
sVChatRoomId
p1261
I0
sVEncryChatRoomId
p1262
g43
sVAttrStatus
p1263
I110629
sVStatues
p1264
I0
stp1265
Rp1266
I1
bag25
(g29
g30
(dp1267
VUserName
p1268
V@a2c133bbc306cadd77e424689e376181a0cb4f5f4be57d234463159626fa943b
p1269
sVCity
p1270
g43
sVSnsFlag
p1271
I1
sVDisplayName
p1272
g43
sVUniFriend
p1273
I0
sVMemberCount
p1274
I0
sVOwnerUin
p1275
I0
sVMemberList
p1276
g41
sVAlias
p1277
g43
sVPYQuanPin
p1278
Vzuimeidehenji
p1279
sVSignature
p1280
g43
sVRemarkPYInitial
p1281
VLYY
p1282
sVContactFlag
p1283
I3
sVUin
p1284
I0
sVNickName
p1285
V\u6700\u7f8e\u7684\u75d5\u8ff9
p1286
sVAppAccountFlag
p1287
I0
sVVerifyFlag
p1288
I0
sVRemarkPYQuanPin
p1289
Vliuyaoying
p1290
sVHeadImgUrl
p1291
V/cgi-bin/mmwebwx-bin/webwxgeticon?seq=668524921&username=@a2c133bbc306cadd77e424689e376181a0cb4f5f4be57d234463159626fa943b&skey=@crypt_6353e9d_f7009d40044db940ad3ae927b3f6f744
p1292
sVKeyWord
p1293
g43
sVProvince
p1294
g43
sVPYInitial
p1295
VZMDHJ
p1296
sVRemarkName
p1297
V\u5218\u7476\u83b9
p1298
sVIsOwner
p1299
I0
sVSex
p1300
I0
sVStarFriend
p1301
I0
sVHideInputBarFlag
p1302
I0
sVChatRoomId
p1303
I0
sVEncryChatRoomId
p1304
g43
sVAttrStatus
p1305
I4133
sVStatues
p1306
I0
stp1307
Rp1308
I1
bag25
(g29
g30
(dp1309
VUserName
p1310
V@0d1caaea35995235b54e31abaf160f7e
p1311
sVCity
p1312
V\u5357\u4eac
p1313
sVSnsFlag
p1314
I49
sVDisplayName
p1315
g43
sVUniFriend
p1316
I0
sVMemberCount
p1317
I0
sVOwnerUin
p1318
I0
sVMemberList
p1319
g41
sVAlias
p1320
g43
sVPYQuanPin
p1321
Vwyz
p1322
sVSignature
p1323
g43
sVRemarkPYInitial
p1324
g43
sVContactFlag
p1325
I3
sVUin
p1326
I0
sVNickName
p1327
Vwyz
p1328
sVAppAccountFlag
p1329
I0
sVVerifyFlag
p1330
I0
sVRemarkPYQuanPin
p1331
g43
sVHeadImgUrl
p1332
V/cgi-bin/mmwebwx-bin/webwxgeticon?seq=668518861&username=@0d1caaea35995235b54e31abaf160f7e&skey=@crypt_6353e9d_f7009d40044db940ad3ae927b3f6f744
p1333
sVKeyWord
p1334
Vwuy
p1335
sVProvince
p1336
V\u6c5f\u82cf
p1337
sVPYInitial
p1338
VWYZ
p1339
sVRemarkName
p1340
g43
sVIsOwner
p1341
I0
sVSex
p1342
I1
sVStarFriend
p1343
I0
sVHideInputBarFlag
p1344
I0
sVChatRoomId
p1345
I0
sVEncryChatRoomId
p1346
g43
sVAttrStatus
p1347
I235559
sVStatues
p1348
I0
stp1349
Rp1350
I1
bag25
(g29
g30
(dp1351
VUserName
p1352
V@7b271a645b2edc02da2fc872c772a578aa1c9a5dc41f71aca0c5bbec9ca49226
p1353
sVCity
p1354
V\u6cf0\u5dde
p1355
sVSnsFlag
p1356
I17
sVDisplayName
p1357
g43
sVUniFriend
p1358
I0
sVMemberCount
p1359
I0
sVOwnerUin
p1360
I0
sVMemberList
p1361
g41
sVAlias
p1362
g43
sVPYQuanPin
p1363
Vlikelike
p1364
sVSignature
p1365
V\u542b\u6cea\u64ad\u79cd\u7684\u4eba\u4e00\u5b9a\u4f1a\u542b\u7b11\u800c\u83b7!
p1366
sVRemarkPYInitial
p1367
g43
sVContactFlag
p1368
I3
sVUin
p1369
I0
sVNickName
p1370
Vlike\u68a8\u53ef
p1371
sVAppAccountFlag
p1372
I0
sVVerifyFlag
p1373
I0
sVRemarkPYQuanPin
p1374
g43
sVHeadImgUrl
p1375
V/cgi-bin/mmwebwx-bin/webwxgeticon?seq=668514243&username=@7b271a645b2edc02da2fc872c772a578aa1c9a5dc41f71aca0c5bbec9ca49226&skey=@crypt_6353e9d_f7009d40044db940ad3ae927b3f6f744
p1376
sVKeyWord
p1377
g43
sVProvince
p1378
V\u6c5f\u82cf
p1379
sVPYInitial
p1380
VLIKELK
p1381
sVRemarkName
p1382
g43
sVIsOwner
p1383
I0
sVSex
p1384
I2
sVStarFriend
p1385
I0
sVHideInputBarFlag
p1386
I0
sVChatRoomId
p1387
I0
sVEncryChatRoomId
p1388
g43
sVAttrStatus
p1389
I110695
sVStatues
p1390
I0
stp1391
Rp1392
I1
bag25
(g29
g30
(dp1393
VUserName
p1394
V@01e3d4e3e8528b00ad0f6c20e12220742181eb52ee412a73b8eb1fbc65da2056
p1395
sVCity
p1396
V\u5357\u4eac
p1397
sVSnsFlag
p1398
I49
sVDisplayName
p1399
g43
sVUniFriend
p1400
I0
sVMemberCount
p1401
I0
sVOwnerUin
p1402
I0
sVMemberList
p1403
g41
sVAlias
p1404
g43
sVPYQuanPin
p1405
Vdoudou
p1406
sVSignature
p1407
g43
sVRemarkPYInitial
p1408
g43
sVContactFlag
p1409
I3
sVUin
p1410
I0
sVNickName
p1411
V\u8c46\u8c46
p1412
sVAppAccountFlag
p1413
I0
sVVerifyFlag
p1414
I0
sVRemarkPYQuanPin
p1415
g43
sVHeadImgUrl
p1416
V/cgi-bin/mmwebwx-bin/webwxgeticon?seq=668523536&username=@01e3d4e3e8528b00ad0f6c20e12220742181eb52ee412a73b8eb1fbc65da2056&skey=@crypt_6353e9d_f7009d40044db940ad3ae927b3f6f744
p1417
sVKeyWord
p1418
Vzhe
p1419
sVProvince
p1420
V\u6c5f\u82cf
p1421
sVPYInitial
p1422
VDD
p1423
sVRemarkName
p1424
g43
sVIsOwner
p1425
I0
sVSex
p1426
I1
sVStarFriend
p1427
I0
sVHideInputBarFlag
p1428
I0
sVChatRoomId
p1429
I0
sVEncryChatRoomId
p1430
g43
sVAttrStatus
p1431
I235007
sVStatues
p1432
I0
stp1433
Rp1434
I1
bag25
(g29
g30
(dp1435
VUserName
p1436
V@1c7e66b1f25ab38835c7c234a7dda253
p1437
sVCity
p1438
V\u9ec4\u5188
p1439
sVSnsFlag
p1440
I17
sVDisplayName
p1441
g43
sVUniFriend
p1442
I0
sVMemberCount
p1443
I0
sVOwnerUin
p1444
I0
sVMemberList
p1445
g41
sVAlias
p1446
g43
sVPYQuanPin
p1447
Vxiongqitao
p1448
sVSignature
p1449
V\u51a5\u51a5\u4e4b\u4e2d\uff0c\u7531\u4e0d\u5f97\u4f60\u3002
p1450
sVRemarkPYInitial
p1451
g43
sVContactFlag
p1452
I3
sVUin
p1453
I0
sVNickName
p1454
V\u718a\u8572\u6d9b
p1455
sVAppAccountFlag
p1456
I0
sVVerifyFlag
p1457
I0
sVRemarkPYQuanPin
p1458
g43
sVHeadImgUrl
p1459
V/cgi-bin/mmwebwx-bin/webwxgeticon?seq=656884667&username=@1c7e66b1f25ab38835c7c234a7dda253&skey=@crypt_6353e9d_f7009d40044db940ad3ae927b3f6f744
p1460
sVKeyWord
p1461
Vxqt
p1462
sVProvince
p1463
V\u6e56\u5317
p1464
sVPYInitial
p1465
VXQT
p1466
sVRemarkName
p1467
g43
sVIsOwner
p1468
I0
sVSex
p1469
I1
sVStarFriend
p1470
I0
sVHideInputBarFlag
p1471
I0
sVChatRoomId
p1472
I0
sVEncryChatRoomId
p1473
g43
sVAttrStatus
p1474
I233575
sVStatues
p1475
I0
stp1476
Rp1477
I1
bag25
(g29
g30
(dp1478
VUserName
p1479
V@71d41ff687545a33e8f7b530ecc57096
p1480
sVCity
p1481
V\u5357\u4eac
p1482
sVSnsFlag
p1483
I49
sVDisplayName
p1484
g43
sVUniFriend
p1485
I0
sVMemberCount
p1486
I0
sVOwnerUin
p1487
I0
sVMemberList
p1488
g41
sVAlias
p1489
g43
sVPYQuanPin
p1490
VAction
p1491
sVSignature
p1492
V\u751f\u547d\u5728\u4e8e\u594b\u6597\uff01
p1493
sVRemarkPYInitial
p1494
VZW
p1495
sVContactFlag
p1496
I3
sVUin
p1497
I0
sVNickName
p1498
VAction
p1499
sVAppAccountFlag
p1500
I0
sVVerifyFlag
p1501
I0
sVRemarkPYQuanPin
p1502
Vzhaowei
p1503
sVHeadImgUrl
p1504
V/cgi-bin/mmwebwx-bin/webwxgeticon?seq=668530464&username=@71d41ff687545a33e8f7b530ecc57096&skey=@crypt_6353e9d_f7009d40044db940ad3ae927b3f6f744
p1505
sVKeyWord
p1506
Vgou
p1507
sVProvince
p1508
V\u6c5f\u82cf
p1509
sVPYInitial
p1510
VACTION
p1511
sVRemarkName
p1512
V\u8d75\u4f1f
p1513
sVIsOwner
p1514
I0
sVSex
p1515
I1
sVStarFriend
p1516
I0
sVHideInputBarFlag
p1517
I0
sVChatRoomId
p1518
I0
sVEncryChatRoomId
p1519
g43
sVAttrStatus
p1520
I100927
sVStatues
p1521
I0
stp1522
Rp1523
I1
bag25
(g29
g30
(dp1524
VUserName
p1525
V@92ce8c87cf4bb47f0d67e9ffeb7ad206a94661e4f52afcf9f4bf62e5891d4bc6
p1526
sVCity
p1527
g43
sVSnsFlag
p1528
I17
sVDisplayName
p1529
g43
sVUniFriend
p1530
I0
sVMemberCount
p1531
I0
sVOwnerUin
p1532
I0
sVMemberList
p1533
g41
sVAlias
p1534
g43
sVPYQuanPin
p1535
Vjsmspanclassemojiemoji1f41aspanxiaomi
p1536
sVSignature
p1537
V\u989d\u989d\u989d
p1538
sVRemarkPYInitial
p1539
g43
sVContactFlag
p1540
I3
sVUin
p1541
I0
sVNickName
p1542
Vjsm\U0001f41a\u5c0f\u7c73
p1543
sVAppAccountFlag
p1544
I0
sVVerifyFlag
p1545
I0
sVRemarkPYQuanPin
p1546
g43
sVHeadImgUrl
p1547
V/cgi-bin/mmwebwx-bin/webwxgeticon?seq=668531987&username=@92ce8c87cf4bb47f0d67e9ffeb7ad206a94661e4f52afcf9f4bf62e5891d4bc6&skey=@crypt_6353e9d_f7009d40044db940ad3ae927b3f6f744
p1548
sVKeyWord
p1549
g43
sVProvince
p1550
g43
sVPYInitial
p1551
VJSMSPANCLASSEMOJIEMOJI1F41ASPANXM
p1552
sVRemarkName
p1553
g43
sVIsOwner
p1554
I0
sVSex
p1555
I2
sVStarFriend
p1556
I0
sVHideInputBarFlag
p1557
I0
sVChatRoomId
p1558
I0
sVEncryChatRoomId
p1559
g43
sVAttrStatus
p1560
I102501
sVStatues
p1561
I0
stp1562
Rp1563
I1
bag25
(g29
g30
(dp1564
VUserName
p1565
V@e52a0f1dc16176cd6e1c30d3d909d6bff0758b07e3eb72c22e90da82999657eb
p1566
sVCity
p1567
V\u626c\u5dde
p1568
sVSnsFlag
p1569
I17
sVDisplayName
p1570
g43
sVUniFriend
p1571
I0
sVMemberCount
p1572
I0
sVOwnerUin
p1573
I0
sVMemberList
p1574
g41
sVAlias
p1575
g43
sVPYQuanPin
p1576
Vzhaolou
p1577
sVSignature
p1578
g43
sVRemarkPYInitial
p1579
VZL
p1580
sVContactFlag
p1581
I3
sVUin
p1582
I0
sVNickName
p1583
V\u8d75\u9732
p1584
sVAppAccountFlag
p1585
I0
sVVerifyFlag
p1586
I0
sVRemarkPYQuanPin
p1587
Vzhaolou
p1588
sVHeadImgUrl
p1589
V/cgi-bin/mmwebwx-bin/webwxgeticon?seq=668532384&username=@e52a0f1dc16176cd6e1c30d3d909d6bff0758b07e3eb72c22e90da82999657eb&skey=@crypt_6353e9d_f7009d40044db940ad3ae927b3f6f744
p1590
sVKeyWord
p1591
g43
sVProvince
p1592
V\u6c5f\u82cf
p1593
sVPYInitial
p1594
VZL
p1595
sVRemarkName
p1596
V\u8d75\u9732
p1597
sVIsOwner
p1598
I0
sVSex
p1599
I1
sVStarFriend
p1600
I0
sVHideInputBarFlag
p1601
I0
sVChatRoomId
p1602
I0
sVEncryChatRoomId
p1603
g43
sVAttrStatus
p1604
L2147586085L
sVStatues
p1605
I0
stp1606
Rp1607
I1
bag25
(g29
g30
(dp1608
VUserName
p1609
V@28fb753922a4dc39f292ebf332349f37b0ab7bbd2a350f19ce1e483d0c20cb97
p1610
sVCity
p1611
g43
sVSnsFlag
p1612
I1
sVDisplayName
p1613
g43
sVUniFriend
p1614
I0
sVMemberCount
p1615
I0
sVOwnerUin
p1616
I0
sVMemberList
p1617
g41
sVAlias
p1618
g43
sVPYQuanPin
p1619
Vtingyu
p1620
sVSignature
p1621
g43
sVRemarkPYInitial
p1622
g43
sVContactFlag
p1623
I32771
sVUin
p1624
I0
sVNickName
p1625
V\u542c\u96e8
p1626
sVAppAccountFlag
p1627
I0
sVVerifyFlag
p1628
I0
sVRemarkPYQuanPin
p1629
g43
sVHeadImgUrl
p1630
V/cgi-bin/mmwebwx-bin/webwxgeticon?seq=668534522&username=@28fb753922a4dc39f292ebf332349f37b0ab7bbd2a350f19ce1e483d0c20cb97&skey=@crypt_6353e9d_f7009d40044db940ad3ae927b3f6f744
p1631
sVKeyWord
p1632
g43
sVProvince
p1633
g43
sVPYInitial
p1634
VTY
p1635
sVRemarkName
p1636
g43
sVIsOwner
p1637
I0
sVSex
p1638
I0
sVStarFriend
p1639
I0
sVHideInputBarFlag
p1640
I0
sVChatRoomId
p1641
I0
sVEncryChatRoomId
p1642
g43
sVAttrStatus
p1643
I135205
sVStatues
p1644
I0
stp1645
Rp1646
I1
bag25
(g29
g30
(dp1647
VUserName
p1648
V@aa82c18f5bb43d604d3c8a039fa8911166a8de65456d6d391ad6aba1dddecdfb
p1649
sVCity
p1650
g43
sVSnsFlag
p1651
I1
sVDisplayName
p1652
g43
sVUniFriend
p1653
I0
sVMemberCount
p1654
I0
sVOwnerUin
p1655
I0
sVMemberList
p1656
g41
sVAlias
p1657
g43
sVPYQuanPin
p1658
VDreamspanclassemojiemoji1f33bspan
p1659
sVSignature
p1660
V\u4f60\u82e5\u76db\u5f00 \u8774\u8776\u81ea\u6765
p1661
sVRemarkPYInitial
p1662
g43
sVContactFlag
p1663
I3
sVUin
p1664
I0
sVNickName
p1665
VDream\U0001f33b
p1666
sVAppAccountFlag
p1667
I0
sVVerifyFlag
p1668
I0
sVRemarkPYQuanPin
p1669
g43
sVHeadImgUrl
p1670
V/cgi-bin/mmwebwx-bin/webwxgeticon?seq=668499072&username=@aa82c18f5bb43d604d3c8a039fa8911166a8de65456d6d391ad6aba1dddecdfb&skey=@crypt_6353e9d_f7009d40044db940ad3ae927b3f6f744
p1671
sVKeyWord
p1672
g43
sVProvince
p1673
VDubayy
p1674
sVPYInitial
p1675
VDREAMSPANCLASSEMOJIEMOJI1F33BSPAN
p1676
sVRemarkName
p1677
g43
sVIsOwner
p1678
I0
sVSex
p1679
I2
sVStarFriend
p1680
I0
sVHideInputBarFlag
p1681
I0
sVChatRoomId
p1682
I0
sVEncryChatRoomId
p1683
g43
sVAttrStatus
p1684
I104633
sVStatues
p1685
I0
stp1686
Rp1687
I1
bag25
(g29
g30
(dp1688
VUserName
p1689
V@dcce7ae11c25df503f27f75f3dc481d4d71908f762965858267de4df4252aeea
p1690
sVCity
p1691
V\u5357\u4eac
p1692
sVSnsFlag
p1693
I49
sVDisplayName
p1694
g43
sVUniFriend
p1695
I0
sVMemberCount
p1696
I0
sVOwnerUin
p1697
I0
sVMemberList
p1698
g41
sVAlias
p1699
g43
sVPYQuanPin
p1700
VAlexzhonglili???
p1701
sVSignature
p1702
V\u6709\u89d2\u7684\u7ef5\u7f8a
p1703
sVRemarkPYInitial
p1704
VZLL
p1705
sVContactFlag
p1706
I3
sVUin
p1707
I0
sVNickName
p1708
VAlex\u949f\u7b20\u7b20 \uc885\ub9bd\ub9bd
p1709
sVAppAccountFlag
p1710
I0
sVVerifyFlag
p1711
I0
sVRemarkPYQuanPin
p1712
Vzhonglili
p1713
sVHeadImgUrl
p1714
V/cgi-bin/mmwebwx-bin/webwxgeticon?seq=668537438&username=@dcce7ae11c25df503f27f75f3dc481d4d71908f762965858267de4df4252aeea&skey=@crypt_6353e9d_f7009d40044db940ad3ae927b3f6f744
p1715
sVKeyWord
p1716
g43
sVProvince
p1717
V\u6c5f\u82cf
p1718
sVPYInitial
p1719
VALEXZLL???
p1720
sVRemarkName
p1721
V\u949f\u7b20\u7b20
p1722
sVIsOwner
p1723
I0
sVSex
p1724
I1
sVStarFriend
p1725
I0
sVHideInputBarFlag
p1726
I0
sVChatRoomId
p1727
I0
sVEncryChatRoomId
p1728
g43
sVAttrStatus
p1729
I203197
sVStatues
p1730
I0
stp1731
Rp1732
I1
bag25
(g29
g30
(dp1733
VUserName
p1734
V@2fdf59c522623e04d0477f90668de14fe746f3c68f10a344d91339a80ef70727
p1735
sVCity
p1736
V\u4e30\u53f0
p1737
sVSnsFlag
p1738
I49
sVDisplayName
p1739
g43
sVUniFriend
p1740
I0
sVMemberCount
p1741
I0
sVOwnerUin
p1742
I0
sVMemberList
p1743
g41
sVAlias
p1744
g43
sVPYQuanPin
p1745
Vlianghaidechancaiwuzongbu
p1746
sVSignature
p1747
g43
sVRemarkPYInitial
p1748
VCWJLFYL
p1749
sVContactFlag
p1750
I3
sVUin
p1751
I0
sVNickName
p1752
V\u6881\u6d77\u5730\u4ea7\u8d22\u52a1\u603b\u90e8
p1753
sVAppAccountFlag
p1754
I0
sVVerifyFlag
p1755
I0
sVRemarkPYQuanPin
p1756
Vcaiwujinglifuyanling
p1757
sVHeadImgUrl
p1758
V/cgi-bin/mmwebwx-bin/webwxgeticon?seq=668538045&username=@2fdf59c522623e04d0477f90668de14fe746f3c68f10a344d91339a80ef70727&skey=@crypt_6353e9d_f7009d40044db940ad3ae927b3f6f744
p1759
sVKeyWord
p1760
g43
sVProvince
p1761
V\u5317\u4eac
p1762
sVPYInitial
p1763
VLHDCCWZB
p1764
sVRemarkName
p1765
V\u8d22\u52a1\u7ecf\u7406\u4ed8\u8273\u73b2
p1766
sVIsOwner
p1767
I0
sVSex
p1768
I2
sVStarFriend
p1769
I0
sVHideInputBarFlag
p1770
I0
sVChatRoomId
p1771
I0
sVEncryChatRoomId
p1772
g43
sVAttrStatus
p1773
I98813
sVStatues
p1774
I0
stp1775
Rp1776
I1
bag25
(g29
g30
(dp1777
VUserName
p1778
V@fda852bf3a6a2e577247621b4f91a102
p1779
sVCity
p1780
V\u6dee\u5b89
p1781
sVSnsFlag
p1782
I49
sVDisplayName
p1783
g43
sVUniFriend
p1784
I0
sVMemberCount
p1785
I0
sVOwnerUin
p1786
I0
sVMemberList
p1787
g41
sVAlias
p1788
g43
sVPYQuanPin
p1789
VA000zhishangyishupeixun
p1790
sVSignature
p1791
g43
sVRemarkPYInitial
p1792
VMJY
p1793
sVContactFlag
p1794
I65539
sVUin
p1795
I0
sVNickName
p1796
VA000\u5fd7\u5c1a\u827a\u672f\u57f9\u8bad
p1797
sVAppAccountFlag
p1798
I0
sVVerifyFlag
p1799
I0
sVRemarkPYQuanPin
p1800
Vmajiayue
p1801
sVHeadImgUrl
p1802
V/cgi-bin/mmwebwx-bin/webwxgeticon?seq=668537434&username=@fda852bf3a6a2e577247621b4f91a102&skey=@crypt_6353e9d_f7009d40044db940ad3ae927b3f6f744
p1803
sVKeyWord
p1804
Vmaj
p1805
sVProvince
p1806
V\u6c5f\u82cf
p1807
sVPYInitial
p1808
VA000ZSYSPX
p1809
sVRemarkName
p1810
V\u9a6c\u5bb6\u4e50
p1811
sVIsOwner
p1812
I0
sVSex
p1813
I1
sVStarFriend
p1814
I0
sVHideInputBarFlag
p1815
I0
sVChatRoomId
p1816
I0
sVEncryChatRoomId
p1817
g43
sVAttrStatus
p1818
I4298853
sVStatues
p1819
I0
stp1820
Rp1821
I1
bag25
(g29
g30
(dp1822
VUserName
p1823
V@9db524d663f57bf3ae73d68884319981c66720fec37788efa3a8c32233aa7dfb
p1824
sVCity
p1825
g43
sVSnsFlag
p1826
I1
sVDisplayName
p1827
g43
sVUniFriend
p1828
I0
sVMemberCount
p1829
I0
sVOwnerUin
p1830
I0
sVMemberList
p1831
g41
sVAlias
p1832
g43
sVPYQuanPin
p1833
Vlangxingtianxia18952093555
p1834
sVSignature
p1835
g43
sVRemarkPYInitial
p1836
g43
sVContactFlag
p1837
I65539
sVUin
p1838
I0
sVNickName
p1839
V\u72fc\u884c\u5929\u4e0b18952093555
p1840
sVAppAccountFlag
p1841
I0
sVVerifyFlag
p1842
I0
sVRemarkPYQuanPin
p1843
g43
sVHeadImgUrl
p1844
V/cgi-bin/mmwebwx-bin/webwxgeticon?seq=668493572&username=@9db524d663f57bf3ae73d68884319981c66720fec37788efa3a8c32233aa7dfb&skey=@crypt_6353e9d_f7009d40044db940ad3ae927b3f6f744
p1845
sVKeyWord
p1846
g43
sVProvince
p1847
g43
sVPYInitial
p1848
VLXTX18952093555
p1849
sVRemarkName
p1850
g43
sVIsOwner
p1851
I0
sVSex
p1852
I0
sVStarFriend
p1853
I0
sVHideInputBarFlag
p1854
I0
sVChatRoomId
p1855
I0
sVEncryChatRoomId
p1856
g43
sVAttrStatus
p1857
I4133
sVStatues
p1858
I0
stp1859
Rp1860
I1
bag25
(g29
g30
(dp1861
VUserName
p1862
V@ca13958abf0d5e87bc344ec30f325498fff4519a6d22a7bef2c660888095cd86
p1863
sVCity
p1864
V\u8346\u5dde
p1865
sVSnsFlag
p1866
I1
sVDisplayName
p1867
g43
sVUniFriend
p1868
I0
sVMemberCount
p1869
I0
sVOwnerUin
p1870
I0
sVMemberList
p1871
g41
sVAlias
p1872
g43
sVPYQuanPin
p1873
Vhuolongguo
p1874
sVSignature
p1875
V\u4e00\u5bf8\u5149\u9634\u4e00\u5bf8\u91d1\uff0c\u5bf8\u91d1\u96be\u4e70\u5bf8\u5149\u9634
p1876
sVRemarkPYInitial
p1877
VNH
p1878
sVContactFlag
p1879
I3
sVUin
p1880
I0
sVNickName
p1881
V\u706b\u9f99\u679c
p1882
sVAppAccountFlag
p1883
I0
sVVerifyFlag
p1884
I0
sVRemarkPYQuanPin
p1885
Vnihao
p1886
sVHeadImgUrl
p1887
V/cgi-bin/mmwebwx-bin/webwxgeticon?seq=668526067&username=@ca13958abf0d5e87bc344ec30f325498fff4519a6d22a7bef2c660888095cd86&skey=@crypt_6353e9d_f7009d40044db940ad3ae927b3f6f744
p1888
sVKeyWord
p1889
g43
sVProvince
p1890
V\u6e56\u5317
p1891
sVPYInitial
p1892
VHLG
p1893
sVRemarkName
p1894
V\u4f60\u597d
p1895
sVIsOwner
p1896
I0
sVSex
p1897
I0
sVStarFriend
p1898
I0
sVHideInputBarFlag
p1899
I0
sVChatRoomId
p1900
I0
sVEncryChatRoomId
p1901
g43
sVAttrStatus
p1902
I4197
sVStatues
p1903
I0
stp1904
Rp1905
I1
bag25
(g29
g30
(dp1906
VUserName
p1907
V@556691ae4b4dbee10877f3aac5c7015003792c8e61aa71856f06e5cf2d35178b
p1908
sVCity
p1909
g43
sVSnsFlag
p1910
I1
sVDisplayName
p1911
g43
sVUniFriend
p1912
I0
sVMemberCount
p1913
I0
sVOwnerUin
p1914
I0
sVMemberList
p1915
g41
sVAlias
p1916
g43
sVPYQuanPin
p1917
VG
p1918
sVSignature
p1919
g43
sVRemarkPYInitial
p1920
VMK
p1921
sVContactFlag
p1922
I3
sVUin
p1923
I0
sVNickName
p1924
g1918
sVAppAccountFlag
p1925
I0
sVVerifyFlag
p1926
I0
sVRemarkPYQuanPin
p1927
Vmakai
p1928
sVHeadImgUrl
p1929
V/cgi-bin/mmwebwx-bin/webwxgeticon?seq=668539732&username=@556691ae4b4dbee10877f3aac5c7015003792c8e61aa71856f06e5cf2d35178b&skey=@crypt_6353e9d_f7009d40044db940ad3ae927b3f6f744
p1930
sVKeyWord
p1931
g43
sVProvince
p1932
V\u6c5f\u82cf
p1933
sVPYInitial
p1934
g1918
sVRemarkName
p1935
V\u9a6c\u51ef
p1936
sVIsOwner
p1937
I0
sVSex
p1938
I1
sVStarFriend
p1939
I0
sVHideInputBarFlag
p1940
I0
sVChatRoomId
p1941
I0
sVEncryChatRoomId
p1942
g43
sVAttrStatus
p1943
I102437
sVStatues
p1944
I0
stp1945
Rp1946
I1
bag25
(g29
g30
(dp1947
VUserName
p1948
V@1c5fb12de6687db5fa2044689057a53ced9963e9638ae3587aefdd30fd74972e
p1949
sVCity
p1950
V\u5357\u4eac
p1951
sVSnsFlag
p1952
I17
sVDisplayName
p1953
g43
sVUniFriend
p1954
I0
sVMemberCount
p1955
I0
sVOwnerUin
p1956
I0
sVMemberList
p1957
g41
sVAlias
p1958
g43
sVPYQuanPin
p1959
Vfanan
p1960
sVSignature
p1961
g43
sVRemarkPYInitial
p1962
VFA
p1963
sVContactFlag
p1964
I3
sVUin
p1965
I0
sVNickName
p1966
V\u8303\u5b89
p1967
sVAppAccountFlag
p1968
I0
sVVerifyFlag
p1969
I0
sVRemarkPYQuanPin
p1970
Vfanan
p1971
sVHeadImgUrl
p1972
V/cgi-bin/mmwebwx-bin/webwxgeticon?seq=668539743&username=@1c5fb12de6687db5fa2044689057a53ced9963e9638ae3587aefdd30fd74972e&skey=@crypt_6353e9d_f7009d40044db940ad3ae927b3f6f744
p1973
sVKeyWord
p1974
g43
sVProvince
p1975
V\u6c5f\u82cf
p1976
sVPYInitial
p1977
VFA
p1978
sVRemarkName
p1979
V\u8303\u5b89
p1980
sVIsOwner
p1981
I0
sVSex
p1982
I1
sVStarFriend
p1983
I0
sVHideInputBarFlag
p1984
I0
sVChatRoomId
p1985
I0
sVEncryChatRoomId
p1986
g43
sVAttrStatus
p1987
I36965
sVStatues
p1988
I0
stp1989
Rp1990
I1
bag25
(g29
g30
(dp1991
VUserName
p1992
V@f8aed60b4e4c4c0142c8fe931d2ccc89fd9d7b706726151c6277e090dfef66d2
p1993
sVCity
p1994
V\u5357\u4eac
p1995
sVSnsFlag
p1996
I1
sVDisplayName
p1997
g43
sVUniFriend
p1998
I0
sVMemberCount
p1999
I0
sVOwnerUin
p2000
I0
sVMemberList
p2001
g41
sVAlias
p2002
g43
sVPYQuanPin
p2003
VCampD
p2004
sVSignature
p2005
V\u5df1\u6240\u4e0d\u6b32\uff0c\u52ff\u65bd\u4e8e\u4eba\uff01
p2006
sVRemarkPYInitial
p2007
VNJDRKHCD
p2008
sVContactFlag
p2009
I3
sVUin
p2010
I0
sVNickName
p2011
VC&amp;D
p2012
sVAppAccountFlag
p2013
I0
sVVerifyFlag
p2014
I0
sVRemarkPYQuanPin
p2015
Vnajingdiruankehuchendong
p2016
sVHeadImgUrl
p2017
V/cgi-bin/mmwebwx-bin/webwxgeticon?seq=668538569&username=@f8aed60b4e4c4c0142c8fe931d2ccc89fd9d7b706726151c6277e090dfef66d2&skey=@crypt_6353e9d_f7009d40044db940ad3ae927b3f6f744
p2018
sVKeyWord
p2019
g43
sVProvince
p2020
V\u6c5f\u82cf
p2021
sVPYInitial
p2022
VCAMPD
p2023
sVRemarkName
p2024
V\u5357\u4eac\u8fea\u8f6f\u5ba2\u6237 \u9648\u680b
p2025
sVIsOwner
p2026
I0
sVSex
p2027
I1
sVStarFriend
p2028
I0
sVHideInputBarFlag
p2029
I0
sVChatRoomId
p2030
I0
sVEncryChatRoomId
p2031
g43
sVAttrStatus
p2032
I104485
sVStatues
p2033
I0
stp2034
Rp2035
I1
bag25
(g29
g30
(dp2036
VUserName
p2037
V@113608015a27f786674fdbc8b0679b8a36601f5d393976cfc016672f41b7fad3
p2038
sVCity
p2039
V\u6b66\u6c49
p2040
sVSnsFlag
p2041
I1
sVDisplayName
p2042
g43
sVUniFriend
p2043
I0
sVMemberCount
p2044
I0
sVOwnerUin
p2045
I0
sVMemberList
p2046
g41
sVAlias
p2047
g43
sVPYQuanPin
p2048
Vtongtong
p2049
sVSignature
p2050
V\u5f97\u4e4b\u5766\u7136\uff0c\u5931\u4e4b\u6de1\u7136\uff0c\u4e89\u53d6\u5fc5\u7136\uff0c\u987a\u5176\u81ea\u7136\u3002
p2051
sVRemarkPYInitial
p2052
g43
sVContactFlag
p2053
I3
sVUin
p2054
I0
sVNickName
p2055
V\u5f64\u5f64
p2056
sVAppAccountFlag
p2057
I0
sVVerifyFlag
p2058
I0
sVRemarkPYQuanPin
p2059
g43
sVHeadImgUrl
p2060
V/cgi-bin/mmwebwx-bin/webwxgeticon?seq=668538472&username=@113608015a27f786674fdbc8b0679b8a36601f5d393976cfc016672f41b7fad3&skey=@crypt_6353e9d_f7009d40044db940ad3ae927b3f6f744
p2061
sVKeyWord
p2062
g43
sVProvince
p2063
V\u6e56\u5317
p2064
sVPYInitial
p2065
VTT
p2066
sVRemarkName
p2067
g43
sVIsOwner
p2068
I0
sVSex
p2069
I2
sVStarFriend
p2070
I0
sVHideInputBarFlag
p2071
I0
sVChatRoomId
p2072
I0
sVEncryChatRoomId
p2073
g43
sVAttrStatus
p2074
I234277
sVStatues
p2075
I0
stp2076
Rp2077
I1
bag25
(g29
g30
(dp2078
VUserName
p2079
V@b71af2fa5b198c35e907c240eb5ff265a0ee218030135285a9a1620c760cd89c
p2080
sVCity
p2081
V\u9675\u6c34
p2082
sVSnsFlag
p2083
I1
sVDisplayName
p2084
g43
sVUniFriend
p2085
I0
sVMemberCount
p2086
I0
sVOwnerUin
p2087
I0
sVMemberList
p2088
g41
sVAlias
p2089
g43
sVPYQuanPin
p2090
VHemingway
p2091
sVSignature
p2092
V\u554a
p2093
sVRemarkPYInitial
p2094
VWHM
p2095
sVContactFlag
p2096
I3
sVUin
p2097
I0
sVNickName
p2098
VHemingway
p2099
sVAppAccountFlag
p2100
I0
sVVerifyFlag
p2101
I0
sVRemarkPYQuanPin
p2102
Vwuhaiming
p2103
sVHeadImgUrl
p2104
V/cgi-bin/mmwebwx-bin/webwxgeticon?seq=656881823&username=@b71af2fa5b198c35e907c240eb5ff265a0ee218030135285a9a1620c760cd89c&skey=@crypt_6353e9d_f7009d40044db940ad3ae927b3f6f744
p2105
sVKeyWord
p2106
g43
sVProvince
p2107
V\u6d77\u5357
p2108
sVPYInitial
p2109
VHEMINGWAY
p2110
sVRemarkName
p2111
V\u4e4c\u6d77\u9e23
p2112
sVIsOwner
p2113
I0
sVSex
p2114
I1
sVStarFriend
p2115
I0
sVHideInputBarFlag
p2116
I0
sVChatRoomId
p2117
I0
sVEncryChatRoomId
p2118
g43
sVAttrStatus
p2119
I102439
sVStatues
p2120
I0
stp2121
Rp2122
I1
bag25
(g29
g30
(dp2123
VUserName
p2124
V@5e6097754dc32a463242981f87c75952cbeb4e2115c2db94b14932639a6ead78
p2125
sVCity
p2126
V\u6dee\u5b89
p2127
sVSnsFlag
p2128
I17
sVDisplayName
p2129
g43
sVUniFriend
p2130
I0
sVMemberCount
p2131
I0
sVOwnerUin
p2132
I0
sVMemberList
p2133
g41
sVAlias
p2134
g43
sVPYQuanPin
p2135
Vmaze
p2136
sVSignature
p2137
V\u4e3b\u4eba\u5f88\u61d2\uff0c\u5f85\u66f4\u65b0\u2026\u2026
p2138
sVRemarkPYInitial
p2139
g43
sVContactFlag
p2140
I3
sVUin
p2141
I0
sVNickName
p2142
V\u9a6c\u6cfd
p2143
sVAppAccountFlag
p2144
I0
sVVerifyFlag
p2145
I0
sVRemarkPYQuanPin
p2146
g43
sVHeadImgUrl
p2147
V/cgi-bin/mmwebwx-bin/webwxgeticon?seq=668531070&username=@5e6097754dc32a463242981f87c75952cbeb4e2115c2db94b14932639a6ead78&skey=@crypt_6353e9d_f7009d40044db940ad3ae927b3f6f744
p2148
sVKeyWord
p2149
g43
sVProvince
p2150
V\u6c5f\u82cf
p2151
sVPYInitial
p2152
VMZ
p2153
sVRemarkName
p2154
g43
sVIsOwner
p2155
I0
sVSex
p2156
I1
sVStarFriend
p2157
I0
sVHideInputBarFlag
p2158
I0
sVChatRoomId
p2159
I0
sVEncryChatRoomId
p2160
g43
sVAttrStatus
p2161
I168231
sVStatues
p2162
I0
stp2163
Rp2164
I1
bag25
(g29
g30
(dp2165
VUserName
p2166
V@f42482af786ea086eab3fe69d1253d5e9e6b4587f16d1827f638d9c35cffbc68
p2167
sVCity
p2168
V\u5357\u4eac
p2169
sVSnsFlag
p2170
I1
sVDisplayName
p2171
g43
sVUniFriend
p2172
I0
sVMemberCount
p2173
I0
sVOwnerUin
p2174
I0
sVMemberList
p2175
g41
sVAlias
p2176
g43
sVPYQuanPin
p2177
Vsu
p2178
sVSignature
p2179
V\u60df\u613f\uff1a\u73b0\u4e16\u5b89\u7a33\u3001\u5c81\u6708\u9759\u597d\uff01
p2180
sVRemarkPYInitial
p2181
VSY
p2182
sVContactFlag
p2183
I3
sVUin
p2184
I0
sVNickName
p2185
Vsu
p2186
sVAppAccountFlag
p2187
I0
sVVerifyFlag
p2188
I0
sVRemarkPYQuanPin
p2189
Vsuya
p2190
sVHeadImgUrl
p2191
V/cgi-bin/mmwebwx-bin/webwxgeticon?seq=668537173&username=@f42482af786ea086eab3fe69d1253d5e9e6b4587f16d1827f638d9c35cffbc68&skey=@crypt_6353e9d_f7009d40044db940ad3ae927b3f6f744
p2192
sVKeyWord
p2193
g43
sVProvince
p2194
V\u6c5f\u82cf
p2195
sVPYInitial
p2196
VSU
p2197
sVRemarkName
p2198
V\u82cf\u96c5
p2199
sVIsOwner
p2200
I0
sVSex
p2201
I2
sVStarFriend
p2202
I0
sVHideInputBarFlag
p2203
I0
sVChatRoomId
p2204
I0
sVEncryChatRoomId
p2205
g43
sVAttrStatus
p2206
I6437
sVStatues
p2207
I0
stp2208
Rp2209
I1
bag25
(g29
g30
(dp2210
VUserName
p2211
V@252a4e768db4a149c938240604c728ef9ae4c1a084781ff8e76726aa34e3b6bd
p2212
sVCity
p2213
g43
sVSnsFlag
p2214
I0
sVDisplayName
p2215
g43
sVUniFriend
p2216
I0
sVMemberCount
p2217
I0
sVOwnerUin
p2218
I0
sVMemberList
p2219
g41
sVAlias
p2220
g43
sVPYQuanPin
p2221
Vxingkongshidaoguolaidehai
p2222
sVSignature
p2223
g43
sVRemarkPYInitial
p2224
VLWT
p2225
sVContactFlag
p2226
I3
sVUin
p2227
I0
sVNickName
p2228
V\u661f\u7a7a\u662f\u5012\u8fc7\u6765\u7684\u6d77
p2229
sVAppAccountFlag
p2230
I0
sVVerifyFlag
p2231
I0
sVRemarkPYQuanPin
p2232
Vliuwenting
p2233
sVHeadImgUrl
p2234
V/cgi-bin/mmwebwx-bin/webwxgeticon?seq=668541128&username=@252a4e768db4a149c938240604c728ef9ae4c1a084781ff8e76726aa34e3b6bd&skey=@crypt_6353e9d_f7009d40044db940ad3ae927b3f6f744
p2235
sVKeyWord
p2236
g43
sVProvince
p2237
g43
sVPYInitial
p2238
VXKSDGLDH
p2239
sVRemarkName
p2240
V\u5218\u6587\u5a77
p2241
sVIsOwner
p2242
I0
sVSex
p2243
I2
sVStarFriend
p2244
I0
sVHideInputBarFlag
p2245
I0
sVChatRoomId
p2246
I0
sVEncryChatRoomId
p2247
g43
sVAttrStatus
p2248
I135269
sVStatues
p2249
I0
stp2250
Rp2251
I1
bag25
(g29
g30
(dp2252
VUserName
p2253
V@f8bd69c473c2976687e12c1228b7ae469943dd214e575ae007b81e7fd69203a3
p2254
sVCity
p2255
V\u6dee\u5b89
p2256
sVSnsFlag
p2257
I17
sVDisplayName
p2258
g43
sVUniFriend
p2259
I0
sVMemberCount
p2260
I0
sVOwnerUin
p2261
I0
sVMemberList
p2262
g41
sVAlias
p2263
g43
sVPYQuanPin
p2264
VAspanclassemojiemoji1f388spanxiangrikuideweixiao
p2265
sVSignature
p2266
g43
sVRemarkPYInitial
p2267
VHXH
p2268
sVContactFlag
p2269
I8195
sVUin
p2270
I0
sVNickName
p2271
VA\U0001f388\u5411\u65e5\u8475\u7684\u5fae\u7b11
p2272
sVAppAccountFlag
p2273
I0
sVVerifyFlag
p2274
I0
sVRemarkPYQuanPin
p2275
Vhanxianghui
p2276
sVHeadImgUrl
p2277
V/cgi-bin/mmwebwx-bin/webwxgeticon?seq=668541273&username=@f8bd69c473c2976687e12c1228b7ae469943dd214e575ae007b81e7fd69203a3&skey=@crypt_6353e9d_f7009d40044db940ad3ae927b3f6f744
p2278
sVKeyWord
p2279
g43
sVProvince
p2280
V\u6c5f\u82cf
p2281
sVPYInitial
p2282
VASPANCLASSEMOJIEMOJI1F388SPANXRKDWX
p2283
sVRemarkName
p2284
V\u97e9\u7965\u6167
p2285
sVIsOwner
p2286
I0
sVSex
p2287
I2
sVStarFriend
p2288
I0
sVHideInputBarFlag
p2289
I0
sVChatRoomId
p2290
I0
sVEncryChatRoomId
p2291
g43
sVAttrStatus
p2292
L2147586533L
sVStatues
p2293
I0
stp2294
Rp2295
I1
bag25
(g29
g30
(dp2296
VUserName
p2297
V@b4e8b059157871c384af4445702512e5ae71a29561e23d39b3688d10fcda9c4e
p2298
sVCity
p2299
V\u767d\u57ce
p2300
sVSnsFlag
p2301
I17
sVDisplayName
p2302
g43
sVUniFriend
p2303
I0
sVMemberCount
p2304
I0
sVOwnerUin
p2305
I0
sVMemberList
p2306
g41
sVAlias
p2307
g43
sVPYQuanPin
p2308
Vanjingxuexi
p2309
sVSignature
p2310
V\u6211\u6240\u575a\u4fe1\u7684\uff0c\u6211\u5c06\u575a\u6301\u5230\u5e95
p2311
sVRemarkPYInitial
p2312
g43
sVContactFlag
p2313
I3
sVUin
p2314
I0
sVNickName
p2315
V\u5b89\u9759\u5b66\u4e60
p2316
sVAppAccountFlag
p2317
I0
sVVerifyFlag
p2318
I0
sVRemarkPYQuanPin
p2319
g43
sVHeadImgUrl
p2320
V/cgi-bin/mmwebwx-bin/webwxgeticon?seq=668529144&username=@b4e8b059157871c384af4445702512e5ae71a29561e23d39b3688d10fcda9c4e&skey=@crypt_6353e9d_f7009d40044db940ad3ae927b3f6f744
p2321
sVKeyWord
p2322
g43
sVProvince
p2323
V\u5409\u6797
p2324
sVPYInitial
p2325
VAJXX
p2326
sVRemarkName
p2327
g43
sVIsOwner
p2328
I0
sVSex
p2329
I1
sVStarFriend
p2330
I0
sVHideInputBarFlag
p2331
I0
sVChatRoomId
p2332
I0
sVEncryChatRoomId
p2333
g43
sVAttrStatus
p2334
I4135
sVStatues
p2335
I0
stp2336
Rp2337
I1
bag25
(g29
g30
(dp2338
VUserName
p2339
V@455d283818affcb824ccb555ea9fdcc62ec46cbe11a3362f35edfffb4e2900d7
p2340
sVCity
p2341
V\u5357\u4eac
p2342
sVSnsFlag
p2343
I17
sVDisplayName
p2344
g43
sVUniFriend
p2345
I0
sVMemberCount
p2346
I0
sVOwnerUin
p2347
I0
sVMemberList
p2348
g41
sVAlias
p2349
g43
sVPYQuanPin
p2350
Vspanclassemojiemoji1f435span
p2351
sVSignature
p2352
g43
sVRemarkPYInitial
p2353
g43
sVContactFlag
p2354
I3
sVUin
p2355
I0
sVNickName
p2356
V\U0001f435
p2357
sVAppAccountFlag
p2358
I0
sVVerifyFlag
p2359
I0
sVRemarkPYQuanPin
p2360
g43
sVHeadImgUrl
p2361
V/cgi-bin/mmwebwx-bin/webwxgeticon?seq=656890541&username=@455d283818affcb824ccb555ea9fdcc62ec46cbe11a3362f35edfffb4e2900d7&skey=@crypt_6353e9d_f7009d40044db940ad3ae927b3f6f744
p2362
sVKeyWord
p2363
g43
sVProvince
p2364
V\u6c5f\u82cf
p2365
sVPYInitial
p2366
VSPANCLASSEMOJIEMOJI1F435SPAN
p2367
sVRemarkName
p2368
g43
sVIsOwner
p2369
I0
sVSex
p2370
I1
sVStarFriend
p2371
I0
sVHideInputBarFlag
p2372
I0
sVChatRoomId
p2373
I0
sVEncryChatRoomId
p2374
g43
sVAttrStatus
p2375
I4133
sVStatues
p2376
I0
stp2377
Rp2378
I1
bag25
(g29
g30
(dp2379
VUserName
p2380
V@27cdcbc5e144641eb5cf421b095cca7319fd10bb9c2b533cbcac07eeef1ed8a4
p2381
sVCity
p2382
V\u9a6c\u978d\u5c71
p2383
sVSnsFlag
p2384
I17
sVDisplayName
p2385
g43
sVUniFriend
p2386
I0
sVMemberCount
p2387
I0
sVOwnerUin
p2388
I0
sVMemberList
p2389
g41
sVAlias
p2390
g43
sVPYQuanPin
p2391
Vcaicai
p2392
sVSignature
p2393
V\u6211\u6765\u4e86\uff0c\u6211\u7d2f\u4e86\uff0c\u6211\u597d\u4e86\uff0c\u6211\u8d70\u4e86\u3002
p2394
sVRemarkPYInitial
p2395
g43
sVContactFlag
p2396
I3
sVUin
p2397
I0
sVNickName
p2398
V\u83dc\u83dc
p2399
sVAppAccountFlag
p2400
I0
sVVerifyFlag
p2401
I0
sVRemarkPYQuanPin
p2402
g43
sVHeadImgUrl
p2403
V/cgi-bin/mmwebwx-bin/webwxgeticon?seq=668540783&username=@27cdcbc5e144641eb5cf421b095cca7319fd10bb9c2b533cbcac07eeef1ed8a4&skey=@crypt_6353e9d_f7009d40044db940ad3ae927b3f6f744
p2404
sVKeyWord
p2405
g43
sVProvince
p2406
V\u5b89\u5fbd
p2407
sVPYInitial
p2408
VCC
p2409
sVRemarkName
p2410
g43
sVIsOwner
p2411
I0
sVSex
p2412
I2
sVStarFriend
p2413
I0
sVHideInputBarFlag
p2414
I0
sVChatRoomId
p2415
I0
sVEncryChatRoomId
p2416
g43
sVAttrStatus
p2417
I232933
sVStatues
p2418
I0
stp2419
Rp2420
I1
bag25
(g29
g30
(dp2421
VUserName
p2422
V@c14a93e5d73ace7eae74fd4edf354377
p2423
sVCity
p2424
V\u676d\u5dde
p2425
sVSnsFlag
p2426
I49
sVDisplayName
p2427
g43
sVUniFriend
p2428
I0
sVMemberCount
p2429
I0
sVOwnerUin
p2430
I0
sVMemberList
p2431
g41
sVAlias
p2432
g43
sVPYQuanPin
p2433
Vmumu
p2434
sVSignature
p2435
V\u6d77\u5e95\u6708\u662f\u5929\u4e0a\u6708\uff0c\u773c\u524d\u4eba\u662f\u5fc3\u4e0a\u4eba\u3002
p2436
sVRemarkPYInitial
p2437
VLZ
p2438
sVContactFlag
p2439
I3
sVUin
p2440
I0
sVNickName
p2441
V\u6728\u6728
p2442
sVAppAccountFlag
p2443
I0
sVVerifyFlag
p2444
I0
sVRemarkPYQuanPin
p2445
Vlinzhi
p2446
sVHeadImgUrl
p2447
V/cgi-bin/mmwebwx-bin/webwxgeticon?seq=668507945&username=@c14a93e5d73ace7eae74fd4edf354377&skey=@crypt_6353e9d_f7009d40044db940ad3ae927b3f6f744
p2448
sVKeyWord
p2449
Vlin
p2450
sVProvince
p2451
V\u6d59\u6c5f
p2452
sVPYInitial
p2453
VMM
p2454
sVRemarkName
p2455
V\u6797\u77e5
p2456
sVIsOwner
p2457
I0
sVSex
p2458
I1
sVStarFriend
p2459
I0
sVHideInputBarFlag
p2460
I0
sVChatRoomId
p2461
I0
sVEncryChatRoomId
p2462
g43
sVAttrStatus
p2463
I105471
sVStatues
p2464
I0
stp2465
Rp2466
I1
bag25
(g29
g30
(dp2467
VUserName
p2468
V@950f2836fa0ea4a0f1f18c0e461c8e6ac7f57b726c3ca4e18806ae9f5c65a647
p2469
sVCity
p2470
V\u626c\u5dde
p2471
sVSnsFlag
p2472
I49
sVDisplayName
p2473
g43
sVUniFriend
p2474
I0
sVMemberCount
p2475
I0
sVOwnerUin
p2476
I0
sVMemberList
p2477
g41
sVAlias
p2478
g43
sVPYQuanPin
p2479
VElaborate
p2480
sVSignature
p2481
V\u56de\u4e0d\u53bb\u7684\u8fc7\u53bb\uff0c\u731c\u4e0d\u900f\u7684\u4eba\u5fc3......
p2482
sVRemarkPYInitial
p2483
g43
sVContactFlag
p2484
I3
sVUin
p2485
I0
sVNickName
p2486
VElaborate
p2487
sVAppAccountFlag
p2488
I0
sVVerifyFlag
p2489
I0
sVRemarkPYQuanPin
p2490
g43
sVHeadImgUrl
p2491
V/cgi-bin/mmwebwx-bin/webwxgeticon?seq=668528973&username=@950f2836fa0ea4a0f1f18c0e461c8e6ac7f57b726c3ca4e18806ae9f5c65a647&skey=@crypt_6353e9d_f7009d40044db940ad3ae927b3f6f744
p2492
sVKeyWord
p2493
g43
sVProvince
p2494
V\u6c5f\u82cf
p2495
sVPYInitial
p2496
VELABORATE
p2497
sVRemarkName
p2498
g43
sVIsOwner
p2499
I0
sVSex
p2500
I2
sVStarFriend
p2501
I0
sVHideInputBarFlag
p2502
I0
sVChatRoomId
p2503
I0
sVEncryChatRoomId
p2504
g43
sVAttrStatus
p2505
I33659943
sVStatues
p2506
I0
stp2507
Rp2508
I1
bag25
(g29
g30
(dp2509
VUserName
p2510
V@fe851503d198856dfe36af00fb89d764a8de1ed0f6b84d80872907d2a4980785
p2511
sVCity
p2512
V\u6cf0\u5dde
p2513
sVSnsFlag
p2514
I17
sVDisplayName
p2515
g43
sVUniFriend
p2516
I0
sVMemberCount
p2517
I0
sVOwnerUin
p2518
I0
sVMemberList
p2519
g41
sVAlias
p2520
g43
sVPYQuanPin
p2521
VHY
p2522
sVSignature
p2523
g43
sVRemarkPYInitial
p2524
g43
sVContactFlag
p2525
I3
sVUin
p2526
I0
sVNickName
p2527
VHY\u3002
p2528
sVAppAccountFlag
p2529
I0
sVVerifyFlag
p2530
I0
sVRemarkPYQuanPin
p2531
g43
sVHeadImgUrl
p2532
V/cgi-bin/mmwebwx-bin/webwxgeticon?seq=668542995&username=@fe851503d198856dfe36af00fb89d764a8de1ed0f6b84d80872907d2a4980785&skey=@crypt_6353e9d_f7009d40044db940ad3ae927b3f6f744
p2533
sVKeyWord
p2534
g43
sVProvince
p2535
V\u6c5f\u82cf
p2536
sVPYInitial
p2537
VHY
p2538
sVRemarkName
p2539
g43
sVIsOwner
p2540
I0
sVSex
p2541
I2
sVStarFriend
p2542
I0
sVHideInputBarFlag
p2543
I0
sVChatRoomId
p2544
I0
sVEncryChatRoomId
p2545
g43
sVAttrStatus
p2546
I103013
sVStatues
p2547
I0
stp2548
Rp2549
I1
bag25
(g29
g30
(dp2550
VUserName
p2551
V@dbeb0718aeb26efe39f1fa78a1e5bf44
p2552
sVCity
p2553
V\u5927\u540c
p2554
sVSnsFlag
p2555
I17
sVDisplayName
p2556
g43
sVUniFriend
p2557
I0
sVMemberCount
p2558
I0
sVOwnerUin
p2559
I0
sVMemberList
p2560
g41
sVAlias
p2561
g43
sVPYQuanPin
p2562
Vcaowei
p2563
sVSignature
p2564
V\u4f60\u662f\u94e0\u7532\u4e5f\u662f\u8f6f\u808b
p2565
sVRemarkPYInitial
p2566
g43
sVContactFlag
p2567
I3
sVUin
p2568
I0
sVNickName
p2569
V\u66f9\u7eac
p2570
sVAppAccountFlag
p2571
I0
sVVerifyFlag
p2572
I0
sVRemarkPYQuanPin
p2573
g43
sVHeadImgUrl
p2574
V/cgi-bin/mmwebwx-bin/webwxgeticon?seq=668541249&username=@dbeb0718aeb26efe39f1fa78a1e5bf44&skey=@crypt_6353e9d_f7009d40044db940ad3ae927b3f6f744
p2575
sVKeyWord
p2576
Vwei
p2577
sVProvince
p2578
V\u5c71\u897f
p2579
sVPYInitial
p2580
VCW
p2581
sVRemarkName
p2582
g43
sVIsOwner
p2583
I0
sVSex
p2584
I1
sVStarFriend
p2585
I0
sVHideInputBarFlag
p2586
I0
sVChatRoomId
p2587
I0
sVEncryChatRoomId
p2588
g43
sVAttrStatus
p2589
I102847
sVStatues
p2590
I0
stp2591
Rp2592
I1
bag25
(g29
g30
(dp2593
VUserName
p2594
V@2c0ed325eca04aac9f26abeaf564a14c538e1ab36e9a372a82de6ba1a71b8d2c
p2595
sVCity
p2596
g43
sVSnsFlag
p2597
I1
sVDisplayName
p2598
g43
sVUniFriend
p2599
I0
sVMemberCount
p2600
I0
sVOwnerUin
p2601
I0
sVMemberList
p2602
g41
sVAlias
p2603
g43
sVPYQuanPin
p2604
VBetterman
p2605
sVSignature
p2606
V\u7231\u4e00\u4eba\u7ec8\u8001
p2607
sVRemarkPYInitial
p2608
VWL
p2609
sVContactFlag
p2610
I1
sVUin
p2611
I0
sVNickName
p2612
VBetter man
p2613
sVAppAccountFlag
p2614
I0
sVVerifyFlag
p2615
I0
sVRemarkPYQuanPin
p2616
Vwanglei
p2617
sVHeadImgUrl
p2618
V/cgi-bin/mmwebwx-bin/webwxgeticon?seq=668543313&username=@2c0ed325eca04aac9f26abeaf564a14c538e1ab36e9a372a82de6ba1a71b8d2c&skey=@crypt_6353e9d_f7009d40044db940ad3ae927b3f6f744
p2619
sVKeyWord
p2620
g43
sVProvince
p2621
VDubayy
p2622
sVPYInitial
p2623
VBETTERMAN
p2624
sVRemarkName
p2625
V\u738b\u78ca
p2626
sVIsOwner
p2627
I0
sVSex
p2628
I1
sVStarFriend
p2629
I0
sVHideInputBarFlag
p2630
I0
sVChatRoomId
p2631
I0
sVEncryChatRoomId
p2632
g43
sVAttrStatus
p2633
I104485
sVStatues
p2634
I0
stp2635
Rp2636
I1
bag25
(g29
g30
(dp2637
VUserName
p2638
V@949cdc928af3462bf8777d34f14ee3cc
p2639
sVCity
p2640
V\u5357\u4eac
p2641
sVSnsFlag
p2642
I49
sVDisplayName
p2643
g43
sVUniFriend
p2644
I0
sVMemberCount
p2645
I0
sVOwnerUin
p2646
I0
sVMemberList
p2647
g41
sVAlias
p2648
g43
sVPYQuanPin
p2649
Vedceezyyy
p2650
sVSignature
p2651
V      \u5b66\u4f1a\u8046\u542c
p2652
sVRemarkPYInitial
p2653
VGL
p2654
sVContactFlag
p2655
I3
sVUin
p2656
I0
sVNickName
p2657
Vedceezyyy.
p2658
sVAppAccountFlag
p2659
I0
sVVerifyFlag
p2660
I0
sVRemarkPYQuanPin
p2661
Vgaoli
p2662
sVHeadImgUrl
p2663
V/cgi-bin/mmwebwx-bin/webwxgeticon?seq=668527170&username=@949cdc928af3462bf8777d34f14ee3cc&skey=@crypt_6353e9d_f7009d40044db940ad3ae927b3f6f744
p2664
sVKeyWord
p2665
Vglx
p2666
sVProvince
p2667
V\u6c5f\u82cf
p2668
sVPYInitial
p2669
VEDCEEZYYY
p2670
sVRemarkName
p2671
V\u9ad8\u529b
p2672
sVIsOwner
p2673
I0
sVSex
p2674
I1
sVStarFriend
p2675
I0
sVHideInputBarFlag
p2676
I0
sVChatRoomId
p2677
I0
sVEncryChatRoomId
p2678
g43
sVAttrStatus
p2679
I100711
sVStatues
p2680
I0
stp2681
Rp2682
I1
bag25
(g29
g30
(dp2683
VUserName
p2684
V@5b7a82fbb43fd15e4b2757872cb69eaf84a8445cb830d9f7de30460097e567d7
p2685
sVCity
p2686
V\u626c\u5dde
p2687
sVSnsFlag
p2688
I49
sVDisplayName
p2689
g43
sVUniFriend
p2690
I0
sVMemberCount
p2691
I0
sVOwnerUin
p2692
I0
sVMemberList
p2693
g41
sVAlias
p2694
g43
sVPYQuanPin
p2695
Vspanclassemojiemoji1f451spanzhenyuya
p2696
sVSignature
p2697
V\u77e5\u4eba\u4e0d\u8bc4\u4eba
p2698
sVRemarkPYInitial
p2699
g43
sVContactFlag
p2700
I3
sVUin
p2701
I0
sVNickName
p2702
V\U0001f451\u632f\u5b87\u5440\uff01
p2703
sVAppAccountFlag
p2704
I0
sVVerifyFlag
p2705
I0
sVRemarkPYQuanPin
p2706
g43
sVHeadImgUrl
p2707
V/cgi-bin/mmwebwx-bin/webwxgeticon?seq=668543926&username=@5b7a82fbb43fd15e4b2757872cb69eaf84a8445cb830d9f7de30460097e567d7&skey=@crypt_6353e9d_f7009d40044db940ad3ae927b3f6f744
p2708
sVKeyWord
p2709
g43
sVProvince
p2710
V\u6c5f\u82cf
p2711
sVPYInitial
p2712
VSPANCLASSEMOJIEMOJI1F451SPANZYY
p2713
sVRemarkName
p2714
g43
sVIsOwner
p2715
I0
sVSex
p2716
I2
sVStarFriend
p2717
I0
sVHideInputBarFlag
p2718
I0
sVChatRoomId
p2719
I0
sVEncryChatRoomId
p2720
g43
sVAttrStatus
p2721
I98341
sVStatues
p2722
I0
stp2723
Rp2724
I1
bag25
(g29
g30
(dp2725
VUserName
p2726
V@d878960ebeba796f2de8f7c9eb6f26c93a2c1cdc870418631afc0548451b3f25
p2727
sVCity
p2728
V\u626c\u5dde
p2729
sVSnsFlag
p2730
I17
sVDisplayName
p2731
g43
sVUniFriend
p2732
I0
sVMemberCount
p2733
I0
sVOwnerUin
p2734
I0
sVMemberList
p2735
g41
sVAlias
p2736
g43
sVPYQuanPin
p2737
Vqiongyuezhilingyin
p2738
sVSignature
p2739
V\u6709\u7f18\u5343\u91cc\u6765\u76f8\u4f1a\uff0c\u65e0\u7f18\u76f8\u89c1\u4e0d\u76f8\u8bc6
p2740
sVRemarkPYInitial
p2741
VJY
p2742
sVContactFlag
p2743
I3
sVUin
p2744
I0
sVNickName
p2745
V\u743c\u6708\u4e4b\u94c3\u97f3
p2746
sVAppAccountFlag
p2747
I0
sVVerifyFlag
p2748
I0
sVRemarkPYQuanPin
p2749
Vjiangyu
p2750
sVHeadImgUrl
p2751
V/cgi-bin/mmwebwx-bin/webwxgeticon?seq=668509252&username=@d878960ebeba796f2de8f7c9eb6f26c93a2c1cdc870418631afc0548451b3f25&skey=@crypt_6353e9d_f7009d40044db940ad3ae927b3f6f744
p2752
sVKeyWord
p2753
g43
sVProvince
p2754
V\u6c5f\u82cf
p2755
sVPYInitial
p2756
VQYZLY
p2757
sVRemarkName
p2758
V\u59dc\u5b87
p2759
sVIsOwner
p2760
I0
sVSex
p2761
I1
sVStarFriend
p2762
I0
sVHideInputBarFlag
p2763
I0
sVChatRoomId
p2764
I0
sVEncryChatRoomId
p2765
g43
sVAttrStatus
p2766
I33789925
sVStatues
p2767
I0
stp2768
Rp2769
I1
bag25
(g29
g30
(dp2770
VUserName
p2771
V@594d66ac273d860e1fdc57e66fc3598a32bf05b2bc8c145e0b62f407564c6be7
p2772
sVCity
p2773
V\u6d66\u4e1c\u65b0\u533a
p2774
sVSnsFlag
p2775
I17
sVDisplayName
p2776
g43
sVUniFriend
p2777
I0
sVMemberCount
p2778
I0
sVOwnerUin
p2779
I0
sVMemberList
p2780
g41
sVAlias
p2781
g43
sVPYQuanPin
p2782
Vmizhixiaomonkey
p2783
sVSignature
p2784
V\u751f\u6d3b\u603b\u662f\u4e00\u5982\u65e2\u5f80\u7684\u5e73\u6de1
p2785
sVRemarkPYInitial
p2786
VLJJ
p2787
sVContactFlag
p2788
I8195
sVUin
p2789
I0
sVNickName
p2790
V\u8ff7\u4e4b\u5c0fmonkey\uff40
p2791
sVAppAccountFlag
p2792
I0
sVVerifyFlag
p2793
I0
sVRemarkPYQuanPin
p2794
Vluojingjing
p2795
sVHeadImgUrl
p2796
V/cgi-bin/mmwebwx-bin/webwxgeticon?seq=668541107&username=@594d66ac273d860e1fdc57e66fc3598a32bf05b2bc8c145e0b62f407564c6be7&skey=@crypt_6353e9d_f7009d40044db940ad3ae927b3f6f744
p2797
sVKeyWord
p2798
Vrug
p2799
sVProvince
p2800
V\u4e0a\u6d77
p2801
sVPYInitial
p2802
VMZXMONKEY
p2803
sVRemarkName
p2804
V\u7f57\u9759\u9759
p2805
sVIsOwner
p2806
I0
sVSex
p2807
I2
sVStarFriend
p2808
I0
sVHideInputBarFlag
p2809
I0
sVChatRoomId
p2810
I0
sVEncryChatRoomId
p2811
g43
sVAttrStatus
p2812
I104487
sVStatues
p2813
I0
stp2814
Rp2815
I1
bag25
(g29
g30
(dp2816
VUserName
p2817
V@91a86125651918fd421f46a3d6901900
p2818
sVCity
p2819
g43
sVSnsFlag
p2820
I49
sVDisplayName
p2821
g43
sVUniFriend
p2822
I0
sVMemberCount
p2823
I0
sVOwnerUin
p2824
I0
sVMemberList
p2825
g41
sVAlias
p2826
g43
sVPYQuanPin
p2827
Vsheng
p2828
sVSignature
p2829
V\u771f\u60c5\u79d2\u609f\u94f8\u6587\u7ae0
p2830
sVRemarkPYInitial
p2831
VCS
p2832
sVContactFlag
p2833
I3
sVUin
p2834
I0
sVNickName
p2835
Vsheng
p2836
sVAppAccountFlag
p2837
I0
sVVerifyFlag
p2838
I0
sVRemarkPYQuanPin
p2839
Vchengsheng
p2840
sVHeadImgUrl
p2841
V/cgi-bin/mmwebwx-bin/webwxgeticon?seq=668531668&username=@91a86125651918fd421f46a3d6901900&skey=@crypt_6353e9d_f7009d40044db940ad3ae927b3f6f744
p2842
sVKeyWord
p2843
Vcs7
p2844
sVProvince
p2845
V\u5317\u4eac
p2846
sVPYInitial
p2847
VSHENG
p2848
sVRemarkName
p2849
V\u6210\u5723
p2850
sVIsOwner
p2851
I0
sVSex
p2852
I1
sVStarFriend
p2853
I0
sVHideInputBarFlag
p2854
I0
sVChatRoomId
p2855
I0
sVEncryChatRoomId
p2856
g43
sVAttrStatus
p2857
I110695
sVStatues
p2858
I0
stp2859
Rp2860
I1
bag25
(g29
g30
(dp2861
VUserName
p2862
V@8ca6d21eebdf4f7626dbcb6f49d0bb31235af42b40008d44c10dc90b01ad21b6
p2863
sVCity
p2864
g43
sVSnsFlag
p2865
I49
sVDisplayName
p2866
g43
sVUniFriend
p2867
I0
sVMemberCount
p2868
I0
sVOwnerUin
p2869
I0
sVMemberList
p2870
g41
sVAlias
p2871
g43
sVPYQuanPin
p2872
Vspanclassemojiemoji1f389spanyispanclassemojiemoji1f48bspanspanclassemojiemoji1f618span
p2873
sVSignature
p2874
V^-^
p2875
sVRemarkPYInitial
p2876
g43
sVContactFlag
p2877
I3
sVUin
p2878
I0
sVNickName
p2879
V\U0001f389\u794e\U0001f48b\U0001f618
p2880
sVAppAccountFlag
p2881
I0
sVVerifyFlag
p2882
I0
sVRemarkPYQuanPin
p2883
g43
sVHeadImgUrl
p2884
V/cgi-bin/mmwebwx-bin/webwxgeticon?seq=668544667&username=@8ca6d21eebdf4f7626dbcb6f49d0bb31235af42b40008d44c10dc90b01ad21b6&skey=@crypt_6353e9d_f7009d40044db940ad3ae927b3f6f744
p2885
sVKeyWord
p2886
g43
sVProvince
p2887
g43
sVPYInitial
p2888
VSPANCLASSEMOJIEMOJI1F389SPANYSPANCLASSEMOJIEMOJI1F48BSPANSPANCLASSEMOJIEMOJI1F618SPAN
p2889
sVRemarkName
p2890
g43
sVIsOwner
p2891
I0
sVSex
p2892
I2
sVStarFriend
p2893
I0
sVHideInputBarFlag
p2894
I0
sVChatRoomId
p2895
I0
sVEncryChatRoomId
p2896
g43
sVAttrStatus
p2897
I104893
sVStatues
p2898
I0
stp2899
Rp2900
I1
bag25
(g29
g30
(dp2901
VUserName
p2902
V@dfbf166d5bc314a563e905e0b484ebcad1de7f331dde2c2b85430372b9d4dedc
p2903
sVCity
p2904
g43
sVSnsFlag
p2905
I1
sVDisplayName
p2906
g43
sVUniFriend
p2907
I0
sVMemberCount
p2908
I0
sVOwnerUin
p2909
I0
sVMemberList
p2910
g41
sVAlias
p2911
g43
sVPYQuanPin
p2912
VApache
p2913
sVSignature
p2914
V\u4e00\u6b65\u4e00\u4e2a\u811a\u5370
p2915
sVRemarkPYInitial
p2916
VLC
p2917
sVContactFlag
p2918
I3
sVUin
p2919
I0
sVNickName
p2920
VApache
p2921
sVAppAccountFlag
p2922
I0
sVVerifyFlag
p2923
I0
sVRemarkPYQuanPin
p2924
Vleichao
p2925
sVHeadImgUrl
p2926
V/cgi-bin/mmwebwx-bin/webwxgeticon?seq=668532847&username=@dfbf166d5bc314a563e905e0b484ebcad1de7f331dde2c2b85430372b9d4dedc&skey=@crypt_6353e9d_f7009d40044db940ad3ae927b3f6f744
p2927
sVKeyWord
p2928
g43
sVProvince
p2929
g43
sVPYInitial
p2930
VAPACHE
p2931
sVRemarkName
p2932
V\u96f7\u8d85
p2933
sVIsOwner
p2934
I0
sVSex
p2935
I1
sVStarFriend
p2936
I0
sVHideInputBarFlag
p2937
I0
sVChatRoomId
p2938
I0
sVEncryChatRoomId
p2939
g43
sVAttrStatus
p2940
I4133
sVStatues
p2941
I0
stp2942
Rp2943
I1
bag25
(g29
g30
(dp2944
VUserName
p2945
V@351c560f795f588dbd40559967bd8cb386d191df45c5ff8da7def069ab3c929b
p2946
sVCity
p2947
V\u9633\u6cc9
p2948
sVSnsFlag
p2949
I1
sVDisplayName
p2950
g43
sVUniFriend
p2951
I0
sVMemberCount
p2952
I0
sVOwnerUin
p2953
I0
sVMemberList
p2954
g41
sVAlias
p2955
g43
sVPYQuanPin
p2956
Vshanvzhi
p2957
sVSignature
p2958
V\u6709\u4e9b\u4e8b\u4e0d\u8bf4\u662f\u4e2a\u7ed3\uff0c\u8bf4\u4e86\u662f\u6761\u75a4
p2959
sVRemarkPYInitial
p2960
g43
sVContactFlag
p2961
I8195
sVUin
p2962
I0
sVNickName
p2963
V\u50bb\u5973\u7eb8
p2964
sVAppAccountFlag
p2965
I0
sVVerifyFlag
p2966
I0
sVRemarkPYQuanPin
p2967
g43
sVHeadImgUrl
p2968
V/cgi-bin/mmwebwx-bin/webwxgeticon?seq=668543515&username=@351c560f795f588dbd40559967bd8cb386d191df45c5ff8da7def069ab3c929b&skey=@crypt_6353e9d_f7009d40044db940ad3ae927b3f6f744
p2969
sVKeyWord
p2970
g43
sVProvince
p2971
V\u5c71\u897f
p2972
sVPYInitial
p2973
VSNZ
p2974
sVRemarkName
p2975
g43
sVIsOwner
p2976
I0
sVSex
p2977
I2
sVStarFriend
p2978
I0
sVHideInputBarFlag
p2979
I0
sVChatRoomId
p2980
I0
sVEncryChatRoomId
p2981
g43
sVAttrStatus
p2982
I233573
sVStatues
p2983
I0
stp2984
Rp2985
I1
bag25
(g29
g30
(dp2986
VUserName
p2987
V@ed7cafbd0910da86768ccbfc156188e8ea15995e3e738d324532b08689ac2e73
p2988
sVCity
p2989
V\u5f90\u5dde
p2990
sVSnsFlag
p2991
I17
sVDisplayName
p2992
g43
sVUniFriend
p2993
I0
sVMemberCount
p2994
I0
sVOwnerUin
p2995
I0
sVMemberList
p2996
g41
sVAlias
p2997
g43
sVPYQuanPin
p2998
Vsakan
p2999
sVSignature
p3000
V\u4eba\u751f\u4e0d\u6b62\u773c\u524d\u7684\u82df\u4e14\uff0c\u8fd8\u6709\u8bd7\u548c\u8fdc\u65b9
p3001
sVRemarkPYInitial
p3002
VZZK
p3003
sVContactFlag
p3004
I3
sVUin
p3005
I0
sVNickName
p3006
Vsakan
p3007
sVAppAccountFlag
p3008
I0
sVVerifyFlag
p3009
I0
sVRemarkPYQuanPin
p3010
Vzhuzekuan
p3011
sVHeadImgUrl
p3012
V/cgi-bin/mmwebwx-bin/webwxgeticon?seq=668545770&username=@ed7cafbd0910da86768ccbfc156188e8ea15995e3e738d324532b08689ac2e73&skey=@crypt_6353e9d_f7009d40044db940ad3ae927b3f6f744
p3013
sVKeyWord
p3014
g43
sVProvince
p3015
V\u6c5f\u82cf
p3016
sVPYInitial
p3017
VSAKAN
p3018
sVRemarkName
p3019
V\u8bf8\u6cfd\u5bbd
p3020
sVIsOwner
p3021
I0
sVSex
p3022
I1
sVStarFriend
p3023
I0
sVHideInputBarFlag
p3024
I0
sVChatRoomId
p3025
I0
sVEncryChatRoomId
p3026
g43
sVAttrStatus
p3027
I16781605
sVStatues
p3028
I0
stp3029
Rp3030
I1
bag25
(g29
g30
(dp3031
VUserName
p3032
V@9dc930f275370205c2b69a76efcae3eb141e62c26f0b0d91bbd99a0f474f7632
p3033
sVCity
p3034
g43
sVSnsFlag
p3035
I49
sVDisplayName
p3036
g43
sVUniFriend
p3037
I0
sVMemberCount
p3038
I0
sVOwnerUin
p3039
I0
sVMemberList
p3040
g41
sVAlias
p3041
g43
sVPYQuanPin
p3042
Vfanfanzhibei
p3043
sVSignature
p3044
V\u4f1a\u3048\u3066\u3088\u304b\u3063\u305f
p3045
sVRemarkPYInitial
p3046
g43
sVContactFlag
p3047
I3
sVUin
p3048
I0
sVNickName
p3049
V\u6cdb\u6cdb\u4e4b\u8f88
p3050
sVAppAccountFlag
p3051
I0
sVVerifyFlag
p3052
I0
sVRemarkPYQuanPin
p3053
g43
sVHeadImgUrl
p3054
V/cgi-bin/mmwebwx-bin/webwxgeticon?seq=668545801&username=@9dc930f275370205c2b69a76efcae3eb141e62c26f0b0d91bbd99a0f474f7632&skey=@crypt_6353e9d_f7009d40044db940ad3ae927b3f6f744
p3055
sVKeyWord
p3056
g43
sVProvince
p3057
VFatima
p3058
sVPYInitial
p3059
VFFZB
p3060
sVRemarkName
p3061
g43
sVIsOwner
p3062
I0
sVSex
p3063
I2
sVStarFriend
p3064
I0
sVHideInputBarFlag
p3065
I0
sVChatRoomId
p3066
I0
sVEncryChatRoomId
p3067
g43
sVAttrStatus
p3068
I201061
sVStatues
p3069
I0
stp3070
Rp3071
I1
batp3072
Rp3073
I1
bsS'chatroomList'
p3074
g25
(g26
g27
(lp3075
g25
(citchat.storage.templates
Chatroom
p3076
g30
(dp3077
VUserName
p3078
V@@b0f181047d7fc7846e22ed8b5ffdeccbf501690eda4b460b8868a6a5ac9bb6a9
p3079
sVCity
p3080
g43
sVDisplayName
p3081
g43
sVUniFriend
p3082
I0
sS'Self'
p3083
g25
(g29
g30
(dp3084
g32
g22
sg33
g34
sg35
g34
sg36
I0
sg37
I0
sg38
g25
(g26
g27
(lp3085
tp3086
Rp3087
I1
bsg42
g43
sg44
g43
sg45
I1610532702
sg46
I0
sg47
I0
sg48
g34
sg49
g34
sg50
g43
sg51
g43
sg52
I0
sg53
I0
sg54
I1
sg55
g34
sg56
I0
sg57
I17
sg58
I0
sg59
I0
sg60
g34
sg61
g62
sg63
I0
sg64
g65
sg66
g43
sg67
g68
sg69
I1
sg70
I0
sg71
I0
stp3088
Rp3089
I1
bsVMemberList
p3090
g25
(g26
g27
(lp3091
tp3092
Rp3093
I1
bsVPYQuanPin
p3094
g43
sVRemarkPYInitial
p3095
g43
sVSex
p3096
I0
sVAppAccountFlag
p3097
I0
sVVerifyFlag
p3098
I0
sVProvince
p3099
g43
sVKeyWord
p3100
g43
sVRemarkName
p3101
g43
sVPYInitial
p3102
g43
sVIsOwner
p3103
I0
sVChatRoomId
p3104
I0
sVHideInputBarFlag
p3105
I0
sVEncryChatRoomId
p3106
g43
sVAttrStatus
p3107
I0
sVSnsFlag
p3108
I0
sVMemberCount
p3109
I10
sVOwnerUin
p3110
I0
sVAlias
p3111
g43
sS'IsAdmin'
p3112
NsVSignature
p3113
g43
sVContactFlag
p3114
I0
sVNickName
p3115
V\u519c\u836f\u8054\u76df
p3116
sVRemarkPYQuanPin
p3117
g43
sVHeadImgUrl
p3118
V/cgi-bin/mmwebwx-bin/webwxgetheadimg?seq=0&username=@@b0f181047d7fc7846e22ed8b5ffdeccbf501690eda4b460b8868a6a5ac9bb6a9&skey=@crypt_6353e9d_f7009d40044db940ad3ae927b3f6f744
p3119
sVUin
p3120
I0
sVStarFriend
p3121
I0
sVStatues
p3122
I1
stp3123
Rp3124
I1
bag25
(g3076
g30
(dp3125
VUserName
p3126
V@@0ee5ca00be1eb89721585564d1899a64bccd8ad04eea118c012ea57e3cd491b5
p3127
sVCity
p3128
g43
sVDisplayName
p3129
g43
sVUniFriend
p3130
I0
sg3083
g25
(g29
g30
(dp3131
g32
g22
sg33
g34
sg35
g34
sg36
I0
sg37
I0
sg38
g25
(g26
g27
(lp3132
tp3133
Rp3134
I1
bsg42
g43
sg44
g43
sg45
I1610532702
sg46
I0
sg47
I0
sg48
g34
sg49
g34
sg50
g43
sg51
g43
sg52
I0
sg53
I0
sg54
I1
sg55
g34
sg56
I0
sg57
I17
sg58
I0
sg59
I0
sg60
g34
sg61
g62
sg63
I0
sg64
g65
sg66
g43
sg67
g68
sg69
I1
sg70
I0
sg71
I0
stp3135
Rp3136
I1
bsVMemberList
p3137
g25
(g26
g27
(lp3138
tp3139
Rp3140
I1
bsVPYQuanPin
p3141
g43
sVRemarkPYInitial
p3142
g43
sVSex
p3143
I0
sVAppAccountFlag
p3144
I0
sVVerifyFlag
p3145
I0
sVProvince
p3146
g43
sVKeyWord
p3147
g43
sVRemarkName
p3148
g43
sVPYInitial
p3149
g43
sVIsOwner
p3150
I0
sVChatRoomId
p3151
I0
sVHideInputBarFlag
p3152
I0
sVEncryChatRoomId
p3153
g43
sVAttrStatus
p3154
I0
sVSnsFlag
p3155
I0
sVMemberCount
p3156
I499
sVOwnerUin
p3157
I0
sVAlias
p3158
g43
sg3112
NsVSignature
p3159
g43
sVContactFlag
p3160
I0
sVNickName
p3161
V\u5168\u56fd\u5343\u6240\u9ad8\u6821\u5927\u6570\u636e\u5e08\u8d44\u8bb2\u4e60\u73ed
p3162
sVRemarkPYQuanPin
p3163
g43
sVHeadImgUrl
p3164
V/cgi-bin/mmwebwx-bin/webwxgetheadimg?seq=0&username=@@0ee5ca00be1eb89721585564d1899a64bccd8ad04eea118c012ea57e3cd491b5&skey=@crypt_6353e9d_f7009d40044db940ad3ae927b3f6f744
p3165
sVUin
p3166
I0
sVStarFriend
p3167
I0
sVStatues
p3168
I0
stp3169
Rp3170
I1
bag25
(g3076
g30
(dp3171
VUserName
p3172
V@@1836d495c95298d13c907cfe4810aa4de17065b2fefde8c6a90f0a335ebabffd
p3173
sVCity
p3174
g43
sVDisplayName
p3175
g43
sVUniFriend
p3176
I0
sg3083
g25
(g29
g30
(dp3177
g32
g22
sg33
g34
sg35
g34
sg36
I0
sg37
I0
sg38
g25
(g26
g27
(lp3178
tp3179
Rp3180
I1
bsg42
g43
sg44
g43
sg45
I1610532702
sg46
I0
sg47
I0
sg48
g34
sg49
g34
sg50
g43
sg51
g43
sg52
I0
sg53
I0
sg54
I1
sg55
g34
sg56
I0
sg57
I17
sg58
I0
sg59
I0
sg60
g34
sg61
g62
sg63
I0
sg64
g65
sg66
g43
sg67
g68
sg69
I1
sg70
I0
sg71
I0
stp3181
Rp3182
I1
bsVMemberList
p3183
g25
(g26
g27
(lp3184
tp3185
Rp3186
I1
bsVPYQuanPin
p3187
g43
sVRemarkPYInitial
p3188
g43
sVSex
p3189
I0
sVAppAccountFlag
p3190
I0
sVVerifyFlag
p3191
I0
sVProvince
p3192
g43
sVKeyWord
p3193
g43
sVRemarkName
p3194
g43
sVPYInitial
p3195
g43
sVIsOwner
p3196
I0
sVChatRoomId
p3197
I0
sVHideInputBarFlag
p3198
I0
sVEncryChatRoomId
p3199
g43
sVAttrStatus
p3200
I0
sVSnsFlag
p3201
I0
sVMemberCount
p3202
I11
sVOwnerUin
p3203
I0
sVAlias
p3204
g43
sg3112
NsVSignature
p3205
g43
sVContactFlag
p3206
I0
sVNickName
p3207
VSingle Dogs
p3208
sVRemarkPYQuanPin
p3209
g43
sVHeadImgUrl
p3210
V/cgi-bin/mmwebwx-bin/webwxgetheadimg?seq=0&username=@@1836d495c95298d13c907cfe4810aa4de17065b2fefde8c6a90f0a335ebabffd&skey=@crypt_6353e9d_f7009d40044db940ad3ae927b3f6f744
p3211
sVUin
p3212
I0
sVStarFriend
p3213
I0
sVStatues
p3214
I1
stp3215
Rp3216
I1
batp3217
Rp3218
I1
bsS'nickName'
p3219
g65
sS'mpList'
p3220
g25
(g26
g27
(lp3221
g25
(citchat.storage.templates
MassivePlatform
p3222
g30
(dp3223
VUserName
p3224
V@79ed126bb5002b060ba2513c737e0c83
p3225
sVCity
p3226
V\u4fe1\u9633
p3227
sVSnsFlag
p3228
I0
sVDisplayName
p3229
g43
sVUniFriend
p3230
I0
sVMemberCount
p3231
I0
sVOwnerUin
p3232
I0
sVMemberList
p3233
g41
sVAlias
p3234
g43
sVPYQuanPin
p3235
Vgaoxiaogongzhu
p3236
sVSignature
p3237
V\u6bcf\u5929\uff0c\u90fd\u662f\u5feb\u4e50\u7684\u5f00\u59cb\uff01\u641e\u7b11\u516c\u4e3b\uff0c\u8ba9\u4f60\u6bcf\u5929\u7b11\u4e0d\u505c\uff01
p3238
sVRemarkPYInitial
p3239
g43
sVContactFlag
p3240
I3
sVUin
p3241
I0
sVNickName
p3242
V\u641e\u7b11\u516c\u4e3b
p3243
sVAppAccountFlag
p3244
I0
sVVerifyFlag
p3245
I8
sVRemarkPYQuanPin
p3246
g43
sVHeadImgUrl
p3247
V/cgi-bin/mmwebwx-bin/webwxgeticon?seq=668540952&username=@79ed126bb5002b060ba2513c737e0c83&skey=@crypt_6353e9d_f7009d40044db940ad3ae927b3f6f744
p3248
sVKeyWord
p3249
Vgh_
p3250
sVProvince
p3251
V\u6cb3\u5357
p3252
sVPYInitial
p3253
VGXGZ
p3254
sVRemarkName
p3255
g43
sVIsOwner
p3256
I0
sVSex
p3257
I0
sVStarFriend
p3258
I0
sVHideInputBarFlag
p3259
I0
sVChatRoomId
p3260
I0
sVEncryChatRoomId
p3261
g43
sVAttrStatus
p3262
I0
sVStatues
p3263
I0
stp3264
Rp3265
I1
bag25
(g3222
g30
(dp3266
VUserName
p3267
V@2855b825c5edd75d36ab2c1200b7212b
p3268
sVCity
p3269
g43
sVSnsFlag
p3270
I0
sVDisplayName
p3271
g43
sVUniFriend
p3272
I0
sVMemberCount
p3273
I0
sVOwnerUin
p3274
I0
sVMemberList
p3275
g41
sVAlias
p3276
g43
sVPYQuanPin
p3277
Vweixinzhifu
p3278
sVSignature
p3279
V\u5e2e\u52a9\u89e3\u51b3\u5fae\u4fe1\u652f\u4ed8\u4e2d\u9047\u5230\u7684\u56f0\u96be\uff0c\u6536\u96c6\u5173\u4e8e\u5fae\u4fe1\u652f\u4ed8\u7684\u5efa\u8bae\u53cd\u9988\u3002
p3280
sVRemarkPYInitial
p3281
g43
sVContactFlag
p3282
I1
sVUin
p3283
I0
sVNickName
p3284
V\u5fae\u4fe1\u652f\u4ed8
p3285
sVAppAccountFlag
p3286
I0
sVVerifyFlag
p3287
I24
sVRemarkPYQuanPin
p3288
g43
sVHeadImgUrl
p3289
V/cgi-bin/mmwebwx-bin/webwxgeticon?seq=620390182&username=@2855b825c5edd75d36ab2c1200b7212b&skey=@crypt_6353e9d_f7009d40044db940ad3ae927b3f6f744
p3290
sVKeyWord
p3291
Vgh_
p3292
sVProvince
p3293
V\u5e7f\u4e1c
p3294
sVPYInitial
p3295
VWXZF
p3296
sVRemarkName
p3297
g43
sVIsOwner
p3298
I0
sVSex
p3299
I0
sVStarFriend
p3300
I0
sVHideInputBarFlag
p3301
I0
sVChatRoomId
p3302
I0
sVEncryChatRoomId
p3303
g43
sVAttrStatus
p3304
I0
sVStatues
p3305
I0
stp3306
Rp3307
I1
bag25
(g3222
g30
(dp3308
VUserName
p3309
V@493223d230eb5c9946c92022fad735c8
p3310
sVCity
p3311
V\u6df1\u5733
p3312
sVSnsFlag
p3313
I0
sVDisplayName
p3314
g43
sVUniFriend
p3315
I0
sVMemberCount
p3316
I0
sVOwnerUin
p3317
I0
sVMemberList
p3318
g41
sVAlias
p3319
g43
sVPYQuanPin
p3320
g43
sVSignature
p3321
V\u8fd9\u91cc\u8bb0\u5f55\u60a8\u4e0e\u597d\u53cb\u7cbe\u5f69\u77ac\u95f4\uff0c\u66f4\u6709\u5929\u4e0b\u70ed\u70b9\u52a8\u6001\u3001\u767e\u59d3\u751f\u6d3b\u65b0\u9c9c\u4e8b\u4e3a\u60a8\u5448\u73b0\u3002\u817e\u8baf\u5fae\u535a\u4e0e\u60a8\u5e76\u80a9\u770b\u4e16\u754c\u3002
p3322
sVRemarkPYInitial
p3323
g43
sVContactFlag
p3324
I1
sVUin
p3325
I0
sVNickName
p3326
g43
sVAppAccountFlag
p3327
I0
sVVerifyFlag
p3328
I24
sVRemarkPYQuanPin
p3329
g43
sVHeadImgUrl
p3330
V/cgi-bin/mmwebwx-bin/webwxgeticon?seq=621170242&username=@493223d230eb5c9946c92022fad735c8&skey=@crypt_6353e9d_f7009d40044db940ad3ae927b3f6f744
p3331
sVKeyWord
p3332
Vgh_
p3333
sVProvince
p3334
V\u5e7f\u4e1c
p3335
sVPYInitial
p3336
g43
sVRemarkName
p3337
g43
sVIsOwner
p3338
I0
sVSex
p3339
I0
sVStarFriend
p3340
I0
sVHideInputBarFlag
p3341
I0
sVChatRoomId
p3342
I0
sVEncryChatRoomId
p3343
g43
sVAttrStatus
p3344
I0
sVStatues
p3345
I0
stp3346
Rp3347
I1
bag25
(g3222
g30
(dp3348
VUserName
p3349
V@bd8262d0363c4458ca043457071eed86
p3350
sVCity
p3351
V\u626c\u5dde
p3352
sVSnsFlag
p3353
I0
sVDisplayName
p3354
g43
sVUniFriend
p3355
I0
sVMemberCount
p3356
I0
sVOwnerUin
p3357
I0
sVMemberList
p3358
g41
sVAlias
p3359
g43
sVPYQuanPin
p3360
Vwubutongmeishi
p3361
sVSignature
p3362
V\u5434\u4e0d\u540c\u7f8e\u98df\u63a8\u5e7f
p3363
sVRemarkPYInitial
p3364
g43
sVContactFlag
p3365
I3
sVUin
p3366
I0
sVNickName
p3367
V\u5434\u4e0d\u540c\u7f8e\u98df
p3368
sVAppAccountFlag
p3369
I0
sVVerifyFlag
p3370
I8
sVRemarkPYQuanPin
p3371
g43
sVHeadImgUrl
p3372
V/cgi-bin/mmwebwx-bin/webwxgeticon?seq=639440358&username=@bd8262d0363c4458ca043457071eed86&skey=@crypt_6353e9d_f7009d40044db940ad3ae927b3f6f744
p3373
sVKeyWord
p3374
Vgh_
p3375
sVProvince
p3376
V\u6c5f\u82cf
p3377
sVPYInitial
p3378
VWBTMS
p3379
sVRemarkName
p3380
g43
sVIsOwner
p3381
I0
sVSex
p3382
I0
sVStarFriend
p3383
I0
sVHideInputBarFlag
p3384
I0
sVChatRoomId
p3385
I0
sVEncryChatRoomId
p3386
g43
sVAttrStatus
p3387
I0
sVStatues
p3388
I0
stp3389
Rp3390
I1
bag25
(g3222
g30
(dp3391
VUserName
p3392
V@3c4d890a51579e3eb63ebfdffb337089
p3393
sVCity
p3394
V\u5357\u4eac
p3395
sVSnsFlag
p3396
I0
sVDisplayName
p3397
g43
sVUniFriend
p3398
I0
sVMemberCount
p3399
I0
sVOwnerUin
p3400
I0
sVMemberList
p3401
g41
sVAlias
p3402
g43
sVPYQuanPin
p3403
g43
sVSignature
p3404
V\u65b0\u9c9c\u8003\u7814\u8d44\u8baf\uff0c\u771f\u9898\u8d44\u6599\u5e72\u8d27\uff0c\u5c3d\u5728\u901a\u9014\u6559\u80b2\uff01
p3405
sVRemarkPYInitial
p3406
g43
sVContactFlag
p3407
I3
sVUin
p3408
I0
sVNickName
p3409
g43
sVAppAccountFlag
p3410
I0
sVVerifyFlag
p3411
I8
sVRemarkPYQuanPin
p3412
g43
sVHeadImgUrl
p3413
V/cgi-bin/mmwebwx-bin/webwxgeticon?seq=639440444&username=@3c4d890a51579e3eb63ebfdffb337089&skey=@crypt_6353e9d_f7009d40044db940ad3ae927b3f6f744
p3414
sVKeyWord
p3415
Vgh_
p3416
sVProvince
p3417
V\u6c5f\u82cf
p3418
sVPYInitial
p3419
g43
sVRemarkName
p3420
g43
sVIsOwner
p3421
I0
sVSex
p3422
I0
sVStarFriend
p3423
I0
sVHideInputBarFlag
p3424
I0
sVChatRoomId
p3425
I0
sVEncryChatRoomId
p3426
g43
sVAttrStatus
p3427
I0
sVStatues
p3428
I0
stp3429
Rp3430
I1
bag25
(g3222
g30
(dp3431
VUserName
p3432
V@c38c1576ad911eb117c98563ae064751
p3433
sVCity
p3434
g43
sVSnsFlag
p3435
I0
sVDisplayName
p3436
g43
sVUniFriend
p3437
I0
sVMemberCount
p3438
I0
sVOwnerUin
p3439
I0
sVMemberList
p3440
g41
sVAlias
p3441
g43
sVPYQuanPin
p3442
Vduolunduohaixianzizhucanting
p3443
sVSignature
p3444
V\u591a\u4f26\u591a\u6d77\u9c9c\u81ea\u52a9\u662f\u661f\u8bed\u96c5\u96c6\u9910\u996e\u7ba1\u7406\u6709\u9650\u516c\u53f8\u4e3b\u6253\u54c1\u724c \u662f\u56fd\u5185\u6d77\u9c9c\u81ea\u52a9\u9910\u9886\u57df\u89c4\u6a21\u8f83\u5927 \u53d1\u5c55\u8f83\u5feb \u5177\u6709\u5f71\u54cd\u529b\u4e14\u7f8e\u8a89\u5ea6\u8f83\u597d\u7684\u81ea\u52a9\u9910\u54c1\u724c \u76ee\u524d\u5728\u6c5f\u6d59\u6caa\u7696\u5730\u533a\u8fd150\u5bb6\u8fde\u9501\u76f4\u8425\u95e8\u5e97 \u8ba1\u52122017\u5e74\u7a81\u7834100\u5bb6
p3445
sVRemarkPYInitial
p3446
g43
sVContactFlag
p3447
I3
sVUin
p3448
I0
sVNickName
p3449
V\u591a\u4f26\u591a\u6d77\u9c9c\u81ea\u52a9\u9910\u5385
p3450
sVAppAccountFlag
p3451
I0
sVVerifyFlag
p3452
I24
sVRemarkPYQuanPin
p3453
g43
sVHeadImgUrl
p3454
V/cgi-bin/mmwebwx-bin/webwxgeticon?seq=639440497&username=@c38c1576ad911eb117c98563ae064751&skey=@crypt_6353e9d_f7009d40044db940ad3ae927b3f6f744
p3455
sVKeyWord
p3456
Vgh_
p3457
sVProvince
p3458
V\u6c5f\u82cf
p3459
sVPYInitial
p3460
VDLDHXZZCT
p3461
sVRemarkName
p3462
g43
sVIsOwner
p3463
I0
sVSex
p3464
I0
sVStarFriend
p3465
I0
sVHideInputBarFlag
p3466
I0
sVChatRoomId
p3467
I0
sVEncryChatRoomId
p3468
g43
sVAttrStatus
p3469
I0
sVStatues
p3470
I0
stp3471
Rp3472
I1
bag25
(g3222
g30
(dp3473
VUserName
p3474
V@06c09487a64ec59b640c493f6ce6046b
p3475
sVCity
p3476
g43
sVSnsFlag
p3477
I0
sVDisplayName
p3478
g43
sVUniFriend
p3479
I0
sVMemberCount
p3480
I0
sVOwnerUin
p3481
I0
sVMemberList
p3482
g41
sVAlias
p3483
g43
sVPYQuanPin
p3484
Vtengxunchengshi
p3485
sVSignature
p3486
V\u817e\u8baf\u57ce\u5e02\u4e0e\u60a8\u4e00\u5171\u5173\u6ce8\u57ce\u5e02\u53d1\u5c55\uff0c\u89c1\u8bc1\u57ce\u5e02\u53d8\u8fc1\uff0c\u53d1\u73b0\u57ce\u5e02\u529b\u91cf\u3002
p3487
sVRemarkPYInitial
p3488
g43
sVContactFlag
p3489
I3
sVUin
p3490
I0
sVNickName
p3491
V\u817e\u8baf\u57ce\u5e02
p3492
sVAppAccountFlag
p3493
I0
sVVerifyFlag
p3494
I24
sVRemarkPYQuanPin
p3495
g43
sVHeadImgUrl
p3496
V/cgi-bin/mmwebwx-bin/webwxgeticon?seq=643840641&username=@06c09487a64ec59b640c493f6ce6046b&skey=@crypt_6353e9d_f7009d40044db940ad3ae927b3f6f744
p3497
sVKeyWord
p3498
Vgh_
p3499
sVProvince
p3500
g43
sVPYInitial
p3501
VTXCS
p3502
sVRemarkName
p3503
g43
sVIsOwner
p3504
I0
sVSex
p3505
I0
sVStarFriend
p3506
I0
sVHideInputBarFlag
p3507
I0
sVChatRoomId
p3508
I0
sVEncryChatRoomId
p3509
g43
sVAttrStatus
p3510
I0
sVStatues
p3511
I0
stp3512
Rp3513
I1
bag25
(g3222
g30
(dp3514
VUserName
p3515
V@f9a87f1e67fed5e41250085c721d0fe0
p3516
sVCity
p3517
V\u6df1\u5733
p3518
sVSnsFlag
p3519
I0
sVDisplayName
p3520
g43
sVUniFriend
p3521
I0
sVMemberCount
p3522
I0
sVOwnerUin
p3523
I0
sVMemberList
p3524
g41
sVAlias
p3525
g43
sVPYQuanPin
p3526
g43
sVSignature
p3527
V\u672c\u671f\u6d3b\u52a8\uff0c\u624b\u8868\u4e3a\u516c\u53f8\u8054\u5408\u7b2c\u4e09\u65b9\u5b9e\u529b\u5382\u5bb6\u5b9a\u5236\u751f\u4ea7\uff0c\u8d28\u91cf\u6709\u4fdd\u969c\u3002\u4e09\u8272\u53ef\u9009\uff0c\u7537\u5973\u901a\u7528\uff0c\u975e\u5e38\u65f6\u5c1a\u53c8\u5927\u6c14\uff0c\u4f11\u95f2/\u5546\u52a1\u90fd\u662f\u4e0d\u9519\u7684\u9009\u62e9\uff0c\u672c\u6d3b\u52a8\u9ed8\u8ba4\u3010\u5706\u901a\u5feb\u9012\u3011
p3528
sVRemarkPYInitial
p3529
g43
sVContactFlag
p3530
I3
sVUin
p3531
I0
sVNickName
p3532
g43
sVAppAccountFlag
p3533
I0
sVVerifyFlag
p3534
I24
sVRemarkPYQuanPin
p3535
g43
sVHeadImgUrl
p3536
V/cgi-bin/mmwebwx-bin/webwxgeticon?seq=646580357&username=@f9a87f1e67fed5e41250085c721d0fe0&skey=@crypt_6353e9d_f7009d40044db940ad3ae927b3f6f744
p3537
sVKeyWord
p3538
Vgh_
p3539
sVProvince
p3540
V\u5e7f\u4e1c
p3541
sVPYInitial
p3542
g43
sVRemarkName
p3543
g43
sVIsOwner
p3544
I0
sVSex
p3545
I0
sVStarFriend
p3546
I0
sVHideInputBarFlag
p3547
I0
sVChatRoomId
p3548
I0
sVEncryChatRoomId
p3549
g43
sVAttrStatus
p3550
I0
sVStatues
p3551
I0
stp3552
Rp3553
I1
bag25
(g3222
g30
(dp3554
VUserName
p3555
V@089865621a03791a6cd2037c5151366e
p3556
sVCity
p3557
V\u5357\u4eac
p3558
sVSnsFlag
p3559
I0
sVDisplayName
p3560
g43
sVUniFriend
p3561
I0
sVMemberCount
p3562
I0
sVOwnerUin
p3563
I0
sVMemberList
p3564
g41
sVAlias
p3565
g43
sVPYQuanPin
p3566
Vzhongguodianxinjiangsukefu
p3567
sVSignature
p3568
V\u6c5f\u82cf\u7535\u4fe110000\u53f7\u5b98\u65b9\u5ba2\u670d\uff0c\u65e0\u201c\u5fae\u201d\u4e0d\u81f3\u3001\u4f53\u8d34\u5165\u201c\u5fae\u201d\u3002\u7528\u5fc3\u4e3a\u60a8\u63d0\u4f9b\u8bdd\u8d39\u67e5\u8be2\u3001\u4e1a\u52a1\u529e\u7406\u3001\u5bbd\u5e26\u62a5\u4fee\u7b49\u670d\u52a1\uff0c\u8fd8\u6709\u5404\u79cd\u4f18\u60e0\u6d3b\u52a8\u4e0d\u5b9a\u671f\u63a8\u51fa\u54e6\uff01\u7528\u6237\u59cb\u7ec8\u81f3\u4e0a\uff0c\u670d\u52a1\u89e6\u624b\u53ef\u53ca\uff01
p3569
sVRemarkPYInitial
p3570
g43
sVContactFlag
p3571
I3
sVUin
p3572
I0
sVNickName
p3573
V\u4e2d\u56fd\u7535\u4fe1\u6c5f\u82cf\u5ba2\u670d
p3574
sVAppAccountFlag
p3575
I0
sVVerifyFlag
p3576
I24
sVRemarkPYQuanPin
p3577
g43
sVHeadImgUrl
p3578
V/cgi-bin/mmwebwx-bin/webwxgeticon?seq=646580687&username=@089865621a03791a6cd2037c5151366e&skey=@crypt_6353e9d_f7009d40044db940ad3ae927b3f6f744
p3579
sVKeyWord
p3580
Vgh_
p3581
sVProvince
p3582
V\u6c5f\u82cf
p3583
sVPYInitial
p3584
VZGDXJSKF
p3585
sVRemarkName
p3586
g43
sVIsOwner
p3587
I0
sVSex
p3588
I0
sVStarFriend
p3589
I0
sVHideInputBarFlag
p3590
I0
sVChatRoomId
p3591
I0
sVEncryChatRoomId
p3592
g43
sVAttrStatus
p3593
I0
sVStatues
p3594
I0
stp3595
Rp3596
I1
bag25
(g3222
g30
(dp3597
VUserName
p3598
V@bc71145cf04b180a350f94ea3eae3529
p3599
sVCity
p3600
V\u5357\u4eac
p3601
sVSnsFlag
p3602
I0
sVDisplayName
p3603
g43
sVUniFriend
p3604
I0
sVMemberCount
p3605
I0
sVOwnerUin
p3606
I0
sVMemberList
p3607
g41
sVAlias
p3608
g43
sVPYQuanPin
p3609
Vrenzeshangyuan
p3610
sVSignature
p3611
V\u5e2e\u52a9\u60a8\u4e86\u89e3\u4ec1\u6cfd\u5546\u5b66\u9662\u7ec4\u7ec7\u3001\u7b56\u5212\u7684\u5404\u7c7b\u7f51\u7edc\u4e8b\u4e1a\u90e8\u6d3b\u52a8\u53ca\u5927\u8d5b\u3002\u53ca\u65f6\u6536\u53d6\u4ec1\u6cfd\u5546\u5b66\u9662\u7684\u6700\u65b0\u4fe1\u606f\u3002
p3612
sVRemarkPYInitial
p3613
g43
sVContactFlag
p3614
I3
sVUin
p3615
I0
sVNickName
p3616
V\u4ec1\u6cfd\u5546\u9662
p3617
sVAppAccountFlag
p3618
I0
sVVerifyFlag
p3619
I8
sVRemarkPYQuanPin
p3620
g43
sVHeadImgUrl
p3621
V/cgi-bin/mmwebwx-bin/webwxgeticon?seq=649410482&username=@bc71145cf04b180a350f94ea3eae3529&skey=@crypt_6353e9d_f7009d40044db940ad3ae927b3f6f744
p3622
sVKeyWord
p3623
Vgh_
p3624
sVProvince
p3625
V\u6c5f\u82cf
p3626
sVPYInitial
p3627
VRZSY
p3628
sVRemarkName
p3629
g43
sVIsOwner
p3630
I0
sVSex
p3631
I0
sVStarFriend
p3632
I0
sVHideInputBarFlag
p3633
I0
sVChatRoomId
p3634
I0
sVEncryChatRoomId
p3635
g43
sVAttrStatus
p3636
I0
sVStatues
p3637
I0
stp3638
Rp3639
I1
bag25
(g3222
g30
(dp3640
VUserName
p3641
V@b15ce3c03fcfc2a8a4eb65b7e57bb600
p3642
sVCity
p3643
V\u5e7f\u5dde
p3644
sVSnsFlag
p3645
I0
sVDisplayName
p3646
g43
sVUniFriend
p3647
I0
sVMemberCount
p3648
I0
sVOwnerUin
p3649
I0
sVMemberList
p3650
g41
sVAlias
p3651
g43
sVPYQuanPin
p3652
Vtianyiliuliang800
p3653
sVSignature
p3654
V\u5929\u7ffc\u6d41\u91cf800\u662f\u4e2d\u56fd\u7535\u4fe1\u63a8\u51fa\u7684\u201c\u7528\u6237\u514d\u8d39\u4f7f\u7528\u6d41\u91cf\uff0c\u4f01\u4e1a\u4e3a\u7528\u6237\u4e70\u5355\u201c\u7684\u5168\u65b0\u670d\u52a1\uff0c\u4e2d\u56fd\u7535\u4fe1\u901a\u8fc7\u8be5\u5fae\u4fe1\u516c\u4f17\u53f7\u5411\u7528\u6237\u957f\u671f\u53d1\u5e03\u7535\u4fe1\u514d\u8d39\u6d41\u91cf\u6d3b\u52a8\u3002\u5173\u6ce8\u201c\u5929\u7ffc\u6d41\u91cf800\u201d\uff0c\u514d\u8d39\u6d41\u91cf\u6e90\u6e90\u4e0d\u65ad\uff0c\u5408\u4f5c\u6d3b\u52a8\u7cbe\u5f69\u7eb7\u5448\uff0c\u8bf7\u60a8\u4e0d\u8981\u79bb\u5f00\u3002
p3655
sVRemarkPYInitial
p3656
g43
sVContactFlag
p3657
I3
sVUin
p3658
I0
sVNickName
p3659
V\u5929\u7ffc\u6d41\u91cf800
p3660
sVAppAccountFlag
p3661
I0
sVVerifyFlag
p3662
I24
sVRemarkPYQuanPin
p3663
g43
sVHeadImgUrl
p3664
V/cgi-bin/mmwebwx-bin/webwxgeticon?seq=633860440&username=@b15ce3c03fcfc2a8a4eb65b7e57bb600&skey=@crypt_6353e9d_f7009d40044db940ad3ae927b3f6f744
p3665
sVKeyWord
p3666
Vgh_
p3667
sVProvince
p3668
V\u5e7f\u4e1c
p3669
sVPYInitial
p3670
VTYLL800
p3671
sVRemarkName
p3672
g43
sVIsOwner
p3673
I0
sVSex
p3674
I0
sVStarFriend
p3675
I0
sVHideInputBarFlag
p3676
I0
sVChatRoomId
p3677
I0
sVEncryChatRoomId
p3678
g43
sVAttrStatus
p3679
I0
sVStatues
p3680
I0
stp3681
Rp3682
I1
bag25
(g3222
g30
(dp3683
VUserName
p3684
V@23ae7c278809be94668d73cd9eb09b9f
p3685
sVCity
p3686
g43
sVSnsFlag
p3687
I0
sVDisplayName
p3688
g43
sVUniFriend
p3689
I0
sVMemberCount
p3690
I0
sVOwnerUin
p3691
I0
sVMemberList
p3692
g41
sVAlias
p3693
g43
sVPYQuanPin
p3694
Vgaizhanghaoyizhuxiao
p3695
sVSignature
p3696
g43
sVRemarkPYInitial
p3697
g43
sVContactFlag
p3698
I3
sVUin
p3699
I0
sVNickName
p3700
V\u8be5\u5e10\u53f7\u5df2\u6ce8\u9500
p3701
sVAppAccountFlag
p3702
I0
sVVerifyFlag
p3703
I24
sVRemarkPYQuanPin
p3704
g43
sVHeadImgUrl
p3705
V/cgi-bin/mmwebwx-bin/webwxgeticon?seq=649411792&username=@23ae7c278809be94668d73cd9eb09b9f&skey=@crypt_6353e9d_f7009d40044db940ad3ae927b3f6f744
p3706
sVKeyWord
p3707
Vgh_
p3708
sVProvince
p3709
g43
sVPYInitial
p3710
VGZHYZX
p3711
sVRemarkName
p3712
g43
sVIsOwner
p3713
I0
sVSex
p3714
I0
sVStarFriend
p3715
I0
sVHideInputBarFlag
p3716
I0
sVChatRoomId
p3717
I0
sVEncryChatRoomId
p3718
g43
sVAttrStatus
p3719
I0
sVStatues
p3720
I0
stp3721
Rp3722
I1
bag25
(g3222
g30
(dp3723
VUserName
p3724
V@a86a5f06bf367cb9e59956a8b9af7d9d
p3725
sVCity
p3726
V\u5357\u4eac
p3727
sVSnsFlag
p3728
I0
sVDisplayName
p3729
g43
sVUniFriend
p3730
I0
sVMemberCount
p3731
I0
sVOwnerUin
p3732
I0
sVMemberList
p3733
g41
sVAlias
p3734
g43
sVPYQuanPin
p3735
Vnajinggonggongzixingche
p3736
sVSignature
p3737
V\u4f4e\u78b3\u51fa\u884c\uff0c\u7eff\u8272\u751f\u6d3b\uff0c\u4fbf\u5229\u4e8e\u6c11\u3002\u53ef\u67e5\u8be2\u5357\u4eac\u516c\u5171\u81ea\u884c\u8f66\u76f8\u5173\u4fe1\u606f\u3002
p3738
sVRemarkPYInitial
p3739
g43
sVContactFlag
p3740
I3
sVUin
p3741
I0
sVNickName
p3742
V\u5357\u4eac\u516c\u5171\u81ea\u884c\u8f66
p3743
sVAppAccountFlag
p3744
I0
sVVerifyFlag
p3745
I24
sVRemarkPYQuanPin
p3746
g43
sVHeadImgUrl
p3747
V/cgi-bin/mmwebwx-bin/webwxgeticon?seq=649411939&username=@a86a5f06bf367cb9e59956a8b9af7d9d&skey=@crypt_6353e9d_f7009d40044db940ad3ae927b3f6f744
p3748
sVKeyWord
p3749
Vgh_
p3750
sVProvince
p3751
V\u6c5f\u82cf
p3752
sVPYInitial
p3753
VNJGGZXC
p3754
sVRemarkName
p3755
g43
sVIsOwner
p3756
I0
sVSex
p3757
I0
sVStarFriend
p3758
I0
sVHideInputBarFlag
p3759
I0
sVChatRoomId
p3760
I0
sVEncryChatRoomId
p3761
g43
sVAttrStatus
p3762
I0
sVStatues
p3763
I0
stp3764
Rp3765
I1
bag25
(g3222
g30
(dp3766
VUserName
p3767
V@1f07da4b20ad6d8bc163ca26138dee66
p3768
sVCity
p3769
V\u5f90\u6c47
p3770
sVSnsFlag
p3771
I0
sVDisplayName
p3772
g43
sVUniFriend
p3773
I0
sVMemberCount
p3774
I0
sVOwnerUin
p3775
I0
sVMemberList
p3776
g41
sVAlias
p3777
g43
sVPYQuanPin
p3778
Vyouyiku
p3779
sVSignature
p3780
V\u4f18\u8863\u5e93\u54c1\u724c\u5b98\u65b9\u5fae\u4fe1
p3781
sVRemarkPYInitial
p3782
g43
sVContactFlag
p3783
I3
sVUin
p3784
I0
sVNickName
p3785
V\u4f18\u8863\u5e93
p3786
sVAppAccountFlag
p3787
I0
sVVerifyFlag
p3788
I28
sVRemarkPYQuanPin
p3789
g43
sVHeadImgUrl
p3790
V/cgi-bin/mmwebwx-bin/webwxgeticon?seq=651750650&username=@1f07da4b20ad6d8bc163ca26138dee66&skey=@crypt_6353e9d_f7009d40044db940ad3ae927b3f6f744
p3791
sVKeyWord
p3792
Vyou
p3793
sVProvince
p3794
V\u4e0a\u6d77
p3795
sVPYInitial
p3796
VYYK
p3797
sVRemarkName
p3798
g43
sVIsOwner
p3799
I0
sVSex
p3800
I0
sVStarFriend
p3801
I0
sVHideInputBarFlag
p3802
I0
sVChatRoomId
p3803
I0
sVEncryChatRoomId
p3804
g43
sVAttrStatus
p3805
I3
sVStatues
p3806
I0
stp3807
Rp3808
I1
bag25
(g3222
g30
(dp3809
VUserName
p3810
V@9ade105dbaaa675c88d98b455276fe6f
p3811
sVCity
p3812
V\u6d77\u6dc0
p3813
sVSnsFlag
p3814
I0
sVDisplayName
p3815
g43
sVUniFriend
p3816
I0
sVMemberCount
p3817
I0
sVOwnerUin
p3818
I0
sVMemberList
p3819
g41
sVAlias
p3820
g43
sVPYQuanPin
p3821
Vgelingshentong
p3822
sVSignature
p3823
V\u683c\u7075\u6df1\u77b3\u662f\u4e00\u5bb6\u5c06\u8ba1\u7b97\u673a\u89c6\u89c9\u548c\u6df1\u5ea6\u5b66\u4e60\u6280\u672f\u5e94\u7528\u4e8e\u5546\u4e1a\u9886\u57df\u7684\u79d1\u6280\u516c\u53f8\uff0c\u81ea\u4e3b\u7814\u53d1\u7684\u6df1\u77b3\u6280\u672f\u5728\u4eba\u548c\u8f66\u7684\u68c0\u6d4b\u3001\u8ddf\u8e2a\u4e0e\u8bc6\u522b\u65b9\u9762\u5c45\u4e8e\u4e16\u754c\u9886\u5148\u6c34\u5e73\u3002  \u5b98\u7f51\uff1awww.deepglint.com
p3824
sVRemarkPYInitial
p3825
g43
sVContactFlag
p3826
I3
sVUin
p3827
I0
sVNickName
p3828
V\u683c\u7075\u6df1\u77b3
p3829
sVAppAccountFlag
p3830
I0
sVVerifyFlag
p3831
I8
sVRemarkPYQuanPin
p3832
g43
sVHeadImgUrl
p3833
V/cgi-bin/mmwebwx-bin/webwxgeticon?seq=654291105&username=@9ade105dbaaa675c88d98b455276fe6f&skey=@crypt_6353e9d_f7009d40044db940ad3ae927b3f6f744
p3834
sVKeyWord
p3835
Vgh_
p3836
sVProvince
p3837
V\u5317\u4eac
p3838
sVPYInitial
p3839
VGLST
p3840
sVRemarkName
p3841
g43
sVIsOwner
p3842
I0
sVSex
p3843
I0
sVStarFriend
p3844
I0
sVHideInputBarFlag
p3845
I0
sVChatRoomId
p3846
I0
sVEncryChatRoomId
p3847
g43
sVAttrStatus
p3848
I0
sVStatues
p3849
I0
stp3850
Rp3851
I1
bag25
(g3222
g30
(dp3852
VUserName
p3853
V@abea9ba727a5dbdaffbed016f7fdf04c
p3854
sVCity
p3855
V\u5357\u4eac
p3856
sVSnsFlag
p3857
I0
sVDisplayName
p3858
g43
sVUniFriend
p3859
I0
sVMemberCount
p3860
I0
sVOwnerUin
p3861
I0
sVMemberList
p3862
g41
sVAlias
p3863
g43
sVPYQuanPin
p3864
Vjiangsudianxin
p3865
sVSignature
p3866
V\u4e2d\u56fd\u7535\u4fe1\u6c5f\u82cf\u516c\u53f8\u552f\u4e00\u5b98\u65b9\u516c\u4f17\u53f7\uff0c\u60a8\u6700\u8d34\u5fc3\u7684\u53e3\u888b\u8425\u4e1a\u5385
p3867
sVRemarkPYInitial
p3868
g43
sVContactFlag
p3869
I1
sVUin
p3870
I0
sVNickName
p3871
V\u6c5f\u82cf\u7535\u4fe1
p3872
sVAppAccountFlag
p3873
I0
sVVerifyFlag
p3874
I24
sVRemarkPYQuanPin
p3875
g43
sVHeadImgUrl
p3876
V/cgi-bin/mmwebwx-bin/webwxgeticon?seq=643840449&username=@abea9ba727a5dbdaffbed016f7fdf04c&skey=@crypt_6353e9d_f7009d40044db940ad3ae927b3f6f744
p3877
sVKeyWord
p3878
Vgh_
p3879
sVProvince
p3880
V\u6c5f\u82cf
p3881
sVPYInitial
p3882
VJSDX
p3883
sVRemarkName
p3884
g43
sVIsOwner
p3885
I0
sVSex
p3886
I0
sVStarFriend
p3887
I0
sVHideInputBarFlag
p3888
I0
sVChatRoomId
p3889
I0
sVEncryChatRoomId
p3890
g43
sVAttrStatus
p3891
I0
sVStatues
p3892
I0
stp3893
Rp3894
I1
bag25
(g3222
g30
(dp3895
VUserName
p3896
V@a841ed316ae1509adc008adf550b9dae
p3897
sVCity
p3898
V\u626c\u5dde
p3899
sVSnsFlag
p3900
I0
sVDisplayName
p3901
g43
sVUniFriend
p3902
I0
sVMemberCount
p3903
I0
sVOwnerUin
p3904
I0
sVMemberList
p3905
g41
sVAlias
p3906
g43
sVPYQuanPin
p3907
Vwuxianyangzhou
p3908
sVSignature
p3909
V\u5173\u6ce8\u6211\u4eec\uff0c"i-Yangzhou"\u5168\u57ce\u514d\u8d39\u8fde
p3910
sVRemarkPYInitial
p3911
g43
sVContactFlag
p3912
I3
sVUin
p3913
I0
sVNickName
p3914
V\u65e0\u7ebf\u626c\u5dde
p3915
sVAppAccountFlag
p3916
I0
sVVerifyFlag
p3917
I24
sVRemarkPYQuanPin
p3918
g43
sVHeadImgUrl
p3919
V/cgi-bin/mmwebwx-bin/webwxgeticon?seq=639440631&username=@a841ed316ae1509adc008adf550b9dae&skey=@crypt_6353e9d_f7009d40044db940ad3ae927b3f6f744
p3920
sVKeyWord
p3921
Vgh_
p3922
sVProvince
p3923
V\u6c5f\u82cf
p3924
sVPYInitial
p3925
VWXYZ
p3926
sVRemarkName
p3927
g43
sVIsOwner
p3928
I0
sVSex
p3929
I0
sVStarFriend
p3930
I0
sVHideInputBarFlag
p3931
I0
sVChatRoomId
p3932
I0
sVEncryChatRoomId
p3933
g43
sVAttrStatus
p3934
I0
sVStatues
p3935
I0
stp3936
Rp3937
I1
bag25
(g3222
g30
(dp3938
VUserName
p3939
V@773ca7a295ba53462350b0007e80b208
p3940
sVCity
p3941
V\u957f\u5b81
p3942
sVSnsFlag
p3943
I0
sVDisplayName
p3944
g43
sVUniFriend
p3945
I0
sVMemberCount
p3946
I0
sVOwnerUin
p3947
I0
sVMemberList
p3948
g41
sVAlias
p3949
g43
sVPYQuanPin
p3950
VCoCoduke
p3951
sVSignature
p3952
V\u3010\u65b0\u9c9c \u5b89\u5fc3 \u597d\u6ecb\u5473\u3011\u4e3a\u4e16\u754c\u63d0\u4f9b\u65b0\u9c9c\u597d\u559d\u7684\u53f0\u6e7e\u521b\u610f\u996e\u54c1\uff0c\u5173\u6ce8CoCo\u90fd\u53ef\u516c\u4f17\u53f7\uff0c\u5c06\u6709\u65e0\u9650\u7684\u60ca\u559c\u54e6\uff01
p3953
sVRemarkPYInitial
p3954
g43
sVContactFlag
p3955
I3
sVUin
p3956
I0
sVNickName
p3957
VCoCo\u90fd\u53ef
p3958
sVAppAccountFlag
p3959
I0
sVVerifyFlag
p3960
I24
sVRemarkPYQuanPin
p3961
g43
sVHeadImgUrl
p3962
V/cgi-bin/mmwebwx-bin/webwxgeticon?seq=654291113&username=@773ca7a295ba53462350b0007e80b208&skey=@crypt_6353e9d_f7009d40044db940ad3ae927b3f6f744
p3963
sVKeyWord
p3964
Vgh_
p3965
sVProvince
p3966
V\u4e0a\u6d77
p3967
sVPYInitial
p3968
VCOCODK
p3969
sVRemarkName
p3970
g43
sVIsOwner
p3971
I0
sVSex
p3972
I0
sVStarFriend
p3973
I0
sVHideInputBarFlag
p3974
I0
sVChatRoomId
p3975
I0
sVEncryChatRoomId
p3976
g43
sVAttrStatus
p3977
I0
sVStatues
p3978
I0
stp3979
Rp3980
I1
bag25
(g3222
g30
(dp3981
VUserName
p3982
V@6bd986b5819d129bc82abc0e011e88ad
p3983
sVCity
p3984
V\u6df1\u5733
p3985
sVSnsFlag
p3986
I0
sVDisplayName
p3987
g43
sVUniFriend
p3988
I0
sVMemberCount
p3989
I0
sVOwnerUin
p3990
I0
sVMemberList
p3991
g41
sVAlias
p3992
g43
sVPYQuanPin
p3993
Vtengxunyouhuanquanzhongxin
p3994
sVSignature
p3995
V\u817e\u8baf\u6e38\u620f\u5b89\u5168\u4e2d\u5fc3\u5b98\u65b9\u5fae\u4fe1\u670d\u52a1\u53f7
p3996
sVRemarkPYInitial
p3997
g43
sVContactFlag
p3998
I3
sVUin
p3999
I0
sVNickName
p4000
V\u817e\u8baf\u6e38\u620f\u5b89\u5168\u4e2d\u5fc3
p4001
sVAppAccountFlag
p4002
I0
sVVerifyFlag
p4003
I24
sVRemarkPYQuanPin
p4004
g43
sVHeadImgUrl
p4005
V/cgi-bin/mmwebwx-bin/webwxgeticon?seq=649411144&username=@6bd986b5819d129bc82abc0e011e88ad&skey=@crypt_6353e9d_f7009d40044db940ad3ae927b3f6f744
p4006
sVKeyWord
p4007
Vgh_
p4008
sVProvince
p4009
V\u5e7f\u4e1c
p4010
sVPYInitial
p4011
VTXYHAQZX
p4012
sVRemarkName
p4013
g43
sVIsOwner
p4014
I0
sVSex
p4015
I0
sVStarFriend
p4016
I0
sVHideInputBarFlag
p4017
I0
sVChatRoomId
p4018
I0
sVEncryChatRoomId
p4019
g43
sVAttrStatus
p4020
I0
sVStatues
p4021
I0
stp4022
Rp4023
I1
bag25
(g3222
g30
(dp4024
VUserName
p4025
V@a80e4db65c8f7f6e14a6fe3110201083
p4026
sVCity
p4027
V\u6cf0\u5dde
p4028
sVSnsFlag
p4029
I0
sVDisplayName
p4030
g43
sVUniFriend
p4031
I0
sVMemberCount
p4032
I0
sVOwnerUin
p4033
I0
sVMemberList
p4034
g41
sVAlias
p4035
g43
sVPYQuanPin
p4036
Vpaopaoshaoerjiaoyutaizhouzhongxin
p4037
sVSignature
p4038
V\u65b0\u4e1c\u65b9\u6ce1\u6ce1\u5c11\u513f\u6559\u80b2\u6cf0\u5dde\u4e2d\u5fc3\u4e13\u6ce8\u4e8e4-14\u5c81\u9752\u5c11\u5e74\u82f1\u8bed\u57f9\u8bad\u3002\u5e7c\u513f\u82f1\u8bed/\u5c11\u513f\u82f1\u8bed/\u65b0\u6982\u5ff5\u82f1\u8bed/\u4e00\u5bf9\u4e00\u4e2a\u6027\u5316\u8bfe\u7a0b\u3002\u8be6\u8be2\uff1a\u6cf0\u5174\u4e2d\u5fc3\uff0887873377\uff09\u3001\u9ad8\u6e2f\u4e2d\u5fc3\uff0886967377\uff09\u3001\u6d77\u9675\u4e2d\u5fc3\uff0889993377\uff09\u3001\u59dc\u5830\u4e2d\u5fc3\uff0888213377\uff09\u3002
p4039
sVRemarkPYInitial
p4040
g43
sVContactFlag
p4041
I3
sVUin
p4042
I0
sVNickName
p4043
V\u6ce1\u6ce1\u5c11\u513f\u6559\u80b2\u6cf0\u5dde\u4e2d\u5fc3
p4044
sVAppAccountFlag
p4045
I0
sVVerifyFlag
p4046
I24
sVRemarkPYQuanPin
p4047
g43
sVHeadImgUrl
p4048
V/cgi-bin/mmwebwx-bin/webwxgeticon?seq=648940529&username=@a80e4db65c8f7f6e14a6fe3110201083&skey=@crypt_6353e9d_f7009d40044db940ad3ae927b3f6f744
p4049
sVKeyWord
p4050
Vgh_
p4051
sVProvince
p4052
V\u6c5f\u82cf
p4053
sVPYInitial
p4054
VPPSEJYTZZX
p4055
sVRemarkName
p4056
g43
sVIsOwner
p4057
I0
sVSex
p4058
I0
sVStarFriend
p4059
I0
sVHideInputBarFlag
p4060
I0
sVChatRoomId
p4061
I0
sVEncryChatRoomId
p4062
g43
sVAttrStatus
p4063
I0
sVStatues
p4064
I0
stp4065
Rp4066
I1
bag25
(g3222
g30
(dp4067
VUserName
p4068
V@f08bfc68b75d0604816ef68dc1da3c34
p4069
sVCity
p4070
V\u671d\u9633
p4071
sVSnsFlag
p4072
I0
sVDisplayName
p4073
g43
sVUniFriend
p4074
I0
sVMemberCount
p4075
I0
sVOwnerUin
p4076
I0
sVMemberList
p4077
g41
sVAlias
p4078
g43
sVPYQuanPin
p4079
Vjingdongshouhou
p4080
sVSignature
p4081
V\u8fd9\u91cc\u53d1\u5e03\u4eac\u4e1c\u5546\u57ce\u5b98\u65b9\u552e\u540e\u4fe1\u606f\uff0c\u63d0\u4f9b\u60a8\u771f\u5b9e\u6709\u6548\u7684\u552e\u540e\u653f\u7b56\uff0c\u4f20\u9012\u4eac\u4e1c\u552e\u540e\u5ba2\u6237\u4e3a\u5148\u7684\u670d\u52a1\u7406\u5ff5\u3002\u4eac\u4e1c\u552e\u540e\uff1a\u7b80\u5355\u4e13\u4e1a\u5feb\uff01
p4082
sVRemarkPYInitial
p4083
g43
sVContactFlag
p4084
I3
sVUin
p4085
I0
sVNickName
p4086
V\u4eac\u4e1c\u552e\u540e
p4087
sVAppAccountFlag
p4088
I0
sVVerifyFlag
p4089
I24
sVRemarkPYQuanPin
p4090
g43
sVHeadImgUrl
p4091
V/cgi-bin/mmwebwx-bin/webwxgeticon?seq=656876251&username=@f08bfc68b75d0604816ef68dc1da3c34&skey=@crypt_6353e9d_f7009d40044db940ad3ae927b3f6f744
p4092
sVKeyWord
p4093
Vgh_
p4094
sVProvince
p4095
V\u5317\u4eac
p4096
sVPYInitial
p4097
VJDSH
p4098
sVRemarkName
p4099
g43
sVIsOwner
p4100
I0
sVSex
p4101
I0
sVStarFriend
p4102
I0
sVHideInputBarFlag
p4103
I0
sVChatRoomId
p4104
I0
sVEncryChatRoomId
p4105
g43
sVAttrStatus
p4106
I0
sVStatues
p4107
I0
stp4108
Rp4109
I1
bag25
(g3222
g30
(dp4110
VUserName
p4111
V@53cda5376e063353d40cbf70536c31c0
p4112
sVCity
p4113
V\u5929\u95e8
p4114
sVSnsFlag
p4115
I0
sVDisplayName
p4116
g43
sVUniFriend
p4117
I0
sVMemberCount
p4118
I0
sVOwnerUin
p4119
I0
sVMemberList
p4120
g41
sVAlias
p4121
g43
sVPYQuanPin
p4122
Vduolabao
p4123
sVSignature
p4124
V\u83b7\u5f97\u6700\u65b0\u9177\u70ab\u7684\u798f\u5229\u6d3b\u52a8,\u4f53\u9a8c\u53c2\u4e0e\u6709\u5956\u4e92\u52a8\uff01\u5173\u6ce8\u54c6\u5566\u5b9d\uff0c\u597d\u73a9\u3001\u597d\u5e97\u968f\u5904\u53ef\u89c1~
p4125
sVRemarkPYInitial
p4126
g43
sVContactFlag
p4127
I3
sVUin
p4128
I0
sVNickName
p4129
V\u54c6\u5566\u5b9d
p4130
sVAppAccountFlag
p4131
I0
sVVerifyFlag
p4132
I24
sVRemarkPYQuanPin
p4133
g43
sVHeadImgUrl
p4134
V/cgi-bin/mmwebwx-bin/webwxgeticon?seq=656884506&username=@53cda5376e063353d40cbf70536c31c0&skey=@crypt_6353e9d_f7009d40044db940ad3ae927b3f6f744
p4135
sVKeyWord
p4136
Vgh_
p4137
sVProvince
p4138
V\u6e56\u5317
p4139
sVPYInitial
p4140
VDLB
p4141
sVRemarkName
p4142
g43
sVIsOwner
p4143
I0
sVSex
p4144
I0
sVStarFriend
p4145
I0
sVHideInputBarFlag
p4146
I0
sVChatRoomId
p4147
I0
sVEncryChatRoomId
p4148
g43
sVAttrStatus
p4149
I0
sVStatues
p4150
I0
stp4151
Rp4152
I1
bag25
(g3222
g30
(dp4153
VUserName
p4154
V@e2c7eff7bb31a8ac8d521f47bcbc2119
p4155
sVCity
p4156
V\u6d77\u6dc0
p4157
sVSnsFlag
p4158
I0
sVDisplayName
p4159
g43
sVUniFriend
p4160
I0
sVMemberCount
p4161
I0
sVOwnerUin
p4162
I0
sVMemberList
p4163
g41
sVAlias
p4164
g43
sVPYQuanPin
p4165
Vxiaobing
p4166
sVSignature
p4167
V\u6211\u662f\u4eba\u5de5\u667a\u80fd\u5fae\u8f6f\u5c0f\u51b0~~
p4168
sVRemarkPYInitial
p4169
g43
sVContactFlag
p4170
I3
sVUin
p4171
I0
sVNickName
p4172
V\u5c0f\u51b0
p4173
sVAppAccountFlag
p4174
I0
sVVerifyFlag
p4175
I24
sVRemarkPYQuanPin
p4176
g43
sVHeadImgUrl
p4177
V/cgi-bin/mmwebwx-bin/webwxgeticon?seq=656885017&username=@e2c7eff7bb31a8ac8d521f47bcbc2119&skey=@crypt_6353e9d_f7009d40044db940ad3ae927b3f6f744
p4178
sVKeyWord
p4179
Vgh_
p4180
sVProvince
p4181
V\u5317\u4eac
p4182
sVPYInitial
p4183
VXB
p4184
sVRemarkName
p4185
g43
sVIsOwner
p4186
I0
sVSex
p4187
I0
sVStarFriend
p4188
I0
sVHideInputBarFlag
p4189
I0
sVChatRoomId
p4190
I0
sVEncryChatRoomId
p4191
g43
sVAttrStatus
p4192
I0
sVStatues
p4193
I0
stp4194
Rp4195
I1
bag25
(g3222
g30
(dp4196
VUserName
p4197
V@5a0b7b0316d09116eaf2154b3d1be166
p4198
sVCity
p4199
V\u9521\u6797\u90ed\u52d2
p4200
sVSnsFlag
p4201
I0
sVDisplayName
p4202
g43
sVUniFriend
p4203
I0
sVMemberCount
p4204
I0
sVOwnerUin
p4205
I0
sVMemberList
p4206
g41
sVAlias
p4207
g43
sVPYQuanPin
p4208
Vtelunsu
p4209
sVSignature
p4210
V 
p4211
sVRemarkPYInitial
p4212
g43
sVContactFlag
p4213
I1
sVUin
p4214
I0
sVNickName
p4215
V\u7279\u4ed1\u82cf
p4216
sVAppAccountFlag
p4217
I0
sVVerifyFlag
p4218
I24
sVRemarkPYQuanPin
p4219
g43
sVHeadImgUrl
p4220
V/cgi-bin/mmwebwx-bin/webwxgeticon?seq=656886097&username=@5a0b7b0316d09116eaf2154b3d1be166&skey=@crypt_6353e9d_f7009d40044db940ad3ae927b3f6f744
p4221
sVKeyWord
p4222
Vgh_
p4223
sVProvince
p4224
V\u5185\u8499\u53e4
p4225
sVPYInitial
p4226
VTLS
p4227
sVRemarkName
p4228
g43
sVIsOwner
p4229
I0
sVSex
p4230
I0
sVStarFriend
p4231
I0
sVHideInputBarFlag
p4232
I0
sVChatRoomId
p4233
I0
sVEncryChatRoomId
p4234
g43
sVAttrStatus
p4235
I0
sVStatues
p4236
I0
stp4237
Rp4238
I1
bag25
(g3222
g30
(dp4239
VUserName
p4240
V@5fd908420856bb24cc3e5698f7718cb4
p4241
sVCity
p4242
V\u897f\u57ce
p4243
sVSnsFlag
p4244
I0
sVDisplayName
p4245
g43
sVUniFriend
p4246
I0
sVMemberCount
p4247
I0
sVOwnerUin
p4248
I0
sVMemberList
p4249
g41
sVAlias
p4250
g43
sVPYQuanPin
p4251
Vzhongguodianxinkefu
p4252
sVSignature
p4253
V\u4e2d\u56fd\u7535\u4fe1\u96c6\u56e2\u5b98\u65b9\u5ba2\u670d
p4254
sVRemarkPYInitial
p4255
g43
sVContactFlag
p4256
I3
sVUin
p4257
I0
sVNickName
p4258
V\u4e2d\u56fd\u7535\u4fe1\u5ba2\u670d
p4259
sVAppAccountFlag
p4260
I0
sVVerifyFlag
p4261
I24
sVRemarkPYQuanPin
p4262
g43
sVHeadImgUrl
p4263
V/cgi-bin/mmwebwx-bin/webwxgeticon?seq=656888046&username=@5fd908420856bb24cc3e5698f7718cb4&skey=@crypt_6353e9d_f7009d40044db940ad3ae927b3f6f744
p4264
sVKeyWord
p4265
Vgh_
p4266
sVProvince
p4267
V\u5317\u4eac
p4268
sVPYInitial
p4269
VZGDXKF
p4270
sVRemarkName
p4271
g43
sVIsOwner
p4272
I0
sVSex
p4273
I0
sVStarFriend
p4274
I0
sVHideInputBarFlag
p4275
I0
sVChatRoomId
p4276
I0
sVEncryChatRoomId
p4277
g43
sVAttrStatus
p4278
I0
sVStatues
p4279
I0
stp4280
Rp4281
I1
bag25
(g3222
g30
(dp4282
VUserName
p4283
V@6aa5aa3dee3f7191c50cfbe9c7f0d0fc
p4284
sVCity
p4285
V\u5357\u4eac
p4286
sVSnsFlag
p4287
I0
sVDisplayName
p4288
g43
sVUniFriend
p4289
I0
sVMemberCount
p4290
I0
sVOwnerUin
p4291
I0
sVMemberList
p4292
g41
sVAlias
p4293
g43
sVPYQuanPin
p4294
Vhuarunsuguochaoshi
p4295
sVSignature
p4296
V\u534e\u6da6\u82cf\u679c\uff0c\u4ee5\u201c\u65b0\u9c9c\u3001\u4f18\u8d28\u3001\u4fbf\u5b9c\u3001\u8d34\u5fc3\u3001\u6ee1\u610f\u201d\u4e3a\u6838\u5fc3\u627f\u8bfa\uff0c\u7cbe\u6311\u7ec6\u9009\u4e30\u5bcc\u5546\u54c1\u3001\u4f18\u8d28\u65b0\u9c9c\u786e\u4fdd\u54c1\u8d28\u3001\u4fbf\u5b9c\u7701\u94b1\u8d85\u503c\u4f4e\u4ef7\u3002\u5728\u6ee1\u8db3\u60a8\u8d2d\u7269\u9700\u6c42\u7684\u540c\u65f6\uff0c\u81f4\u529b\u4e8e\u4e3a\u60a8\u5e26\u6765\u66f4\u65b0\u9c9c\u3001\u66f4\u65b9\u4fbf\u3001\u66f4\u8212\u9002\u7684\u5168\u65b9\u4f4d\u65b0\u4f53\u9a8c\u3002
p4297
sVRemarkPYInitial
p4298
g43
sVContactFlag
p4299
I3
sVUin
p4300
I0
sVNickName
p4301
V\u534e\u6da6\u82cf\u679c\u8d85\u5e02
p4302
sVAppAccountFlag
p4303
I0
sVVerifyFlag
p4304
I24
sVRemarkPYQuanPin
p4305
g43
sVHeadImgUrl
p4306
V/cgi-bin/mmwebwx-bin/webwxgeticon?seq=656889210&username=@6aa5aa3dee3f7191c50cfbe9c7f0d0fc&skey=@crypt_6353e9d_f7009d40044db940ad3ae927b3f6f744
p4307
sVKeyWord
p4308
Vgh_
p4309
sVProvince
p4310
V\u6c5f\u82cf
p4311
sVPYInitial
p4312
VHRSGCS
p4313
sVRemarkName
p4314
g43
sVIsOwner
p4315
I0
sVSex
p4316
I0
sVStarFriend
p4317
I0
sVHideInputBarFlag
p4318
I0
sVChatRoomId
p4319
I0
sVEncryChatRoomId
p4320
g43
sVAttrStatus
p4321
I0
sVStatues
p4322
I0
stp4323
Rp4324
I1
bag25
(g3222
g30
(dp4325
VUserName
p4326
V@5607ccfb039ffde9a6199ca8871c1d44
p4327
sVCity
p4328
V\u65e0\u9521
p4329
sVSnsFlag
p4330
I0
sVDisplayName
p4331
g43
sVUniFriend
p4332
I0
sVMemberCount
p4333
I0
sVOwnerUin
p4334
I0
sVMemberList
p4335
g41
sVAlias
p4336
g43
sVPYQuanPin
p4337
Vjiongjiongshe
p4338
sVSignature
p4339
V\u5185\u6db5\u754c\u7684\u8001\u53f8\u673a\uff0c\u6bb5\u5b50\u754c\u7684\u625b\u628a\u5b50\uff0c\u4e13\u4e1a\u62ef\u6551\u4e0d\u5f00\u68ee~
p4340
sVRemarkPYInitial
p4341
g43
sVContactFlag
p4342
I3
sVUin
p4343
I0
sVNickName
p4344
V\u56e7\u56e7\u793e
p4345
sVAppAccountFlag
p4346
I0
sVVerifyFlag
p4347
I8
sVRemarkPYQuanPin
p4348
g43
sVHeadImgUrl
p4349
V/cgi-bin/mmwebwx-bin/webwxgeticon?seq=668496114&username=@5607ccfb039ffde9a6199ca8871c1d44&skey=@crypt_6353e9d_f7009d40044db940ad3ae927b3f6f744
p4350
sVKeyWord
p4351
Vgh_
p4352
sVProvince
p4353
V\u6c5f\u82cf
p4354
sVPYInitial
p4355
VJJS
p4356
sVRemarkName
p4357
g43
sVIsOwner
p4358
I0
sVSex
p4359
I0
sVStarFriend
p4360
I0
sVHideInputBarFlag
p4361
I0
sVChatRoomId
p4362
I0
sVEncryChatRoomId
p4363
g43
sVAttrStatus
p4364
I0
sVStatues
p4365
I0
stp4366
Rp4367
I1
bag25
(g3222
g30
(dp4368
VUserName
p4369
V@62452e4685edc0212efcd6ae96431840
p4370
sVCity
p4371
V\u65e0\u9521
p4372
sVSnsFlag
p4373
I0
sVDisplayName
p4374
g43
sVUniFriend
p4375
I0
sVMemberCount
p4376
I0
sVOwnerUin
p4377
I0
sVMemberList
p4378
g41
sVAlias
p4379
g43
sVPYQuanPin
p4380
Vlieshouyingshi
p4381
sVSignature
p4382
g43
sVRemarkPYInitial
p4383
g43
sVContactFlag
p4384
I3
sVUin
p4385
I0
sVNickName
p4386
V\u730e\u624b\u5f71\u89c6
p4387
sVAppAccountFlag
p4388
I0
sVVerifyFlag
p4389
I24
sVRemarkPYQuanPin
p4390
g43
sVHeadImgUrl
p4391
V/cgi-bin/mmwebwx-bin/webwxgeticon?seq=668496120&username=@62452e4685edc0212efcd6ae96431840&skey=@crypt_6353e9d_f7009d40044db940ad3ae927b3f6f744
p4392
sVKeyWord
p4393
Vgh_
p4394
sVProvince
p4395
V\u6c5f\u82cf
p4396
sVPYInitial
p4397
VLSYS
p4398
sVRemarkName
p4399
g43
sVIsOwner
p4400
I0
sVSex
p4401
I0
sVStarFriend
p4402
I0
sVHideInputBarFlag
p4403
I0
sVChatRoomId
p4404
I0
sVEncryChatRoomId
p4405
g43
sVAttrStatus
p4406
I0
sVStatues
p4407
I0
stp4408
Rp4409
I1
bag25
(g3222
g30
(dp4410
VUserName
p4411
V@92cd672082f18b7e2478fc5d2a4e4b66
p4412
sVCity
p4413
V\u5e7f\u5dde
p4414
sVSnsFlag
p4415
I0
sVDisplayName
p4416
g43
sVUniFriend
p4417
I0
sVMemberCount
p4418
I0
sVOwnerUin
p4419
I0
sVMemberList
p4420
g41
sVAlias
p4421
g43
sVPYQuanPin
p4422
Vbaishigaolianmeng
p4423
sVSignature
p4424
V\u67cf\u58eb\u9ad8\u8054\u76df\uff0c\u6709\u89c6\u89c9\u7684\u5546\u4e1a\u6a21\u5f0f\u65b0\u751f\u4ee3\u8d44\u8baf\u4ea4\u6d41\u5e73\u53f0
p4425
sVRemarkPYInitial
p4426
g43
sVContactFlag
p4427
I1
sVUin
p4428
I0
sVNickName
p4429
V\u67cf\u58eb\u9ad8\u8054\u76df
p4430
sVAppAccountFlag
p4431
I0
sVVerifyFlag
p4432
I24
sVRemarkPYQuanPin
p4433
g43
sVHeadImgUrl
p4434
V/cgi-bin/mmwebwx-bin/webwxgeticon?seq=668500119&username=@92cd672082f18b7e2478fc5d2a4e4b66&skey=@crypt_6353e9d_f7009d40044db940ad3ae927b3f6f744
p4435
sVKeyWord
p4436
Vgh_
p4437
sVProvince
p4438
V\u5e7f\u4e1c
p4439
sVPYInitial
p4440
VBSGLM
p4441
sVRemarkName
p4442
g43
sVIsOwner
p4443
I0
sVSex
p4444
I0
sVStarFriend
p4445
I0
sVHideInputBarFlag
p4446
I0
sVChatRoomId
p4447
I0
sVEncryChatRoomId
p4448
g43
sVAttrStatus
p4449
I0
sVStatues
p4450
I0
stp4451
Rp4452
I1
bag25
(g3222
g30
(dp4453
VUserName
p4454
V@ed6713bdc015b667178412e1f5841383
p4455
sVCity
p4456
g43
sVSnsFlag
p4457
I0
sVDisplayName
p4458
g43
sVUniFriend
p4459
I0
sVMemberCount
p4460
I0
sVOwnerUin
p4461
I0
sVMemberList
p4462
g41
sVAlias
p4463
g43
sVPYQuanPin
p4464
Vnajingdiruanruanjian
p4465
sVSignature
p4466
V\u5357\u4eac\u8fea\u8f6f\u662f\u96c6\u8f6f\u786c\u4ef6\u7814\u53d1\u3001\u4ea7\u54c1\u5b9a\u5236\u3001\u7cfb\u7edf\u96c6\u6210\u3001\u9500\u552e\u670d\u52a1\u4e3a\u4e00\u4f53\u7684\u9ad8\u65b0\u6280\u672f\u516c\u53f8\u3002\u4e3a\u5ba2\u6237\u63d0\u4f9b\u9ad8\u7aef\u8f6f\u786c\u4ef6\u3001\u865a\u62df\u73b0\u5b9e\u3001\u5927\u6570\u636e\u7b49\u4e3b\u6d41\u65b9\u5411\u7684\u89e3\u51b3\u65b9\u6848\u3001\u4ea7\u54c1\u548c\u670d\u52a1\u3002\u63d0\u4f9b\u5404\u7c7b\u7f51\u7edc\u8bbe\u5907\u3001\u5b8c\u6574\u7684\u7cfb\u7edf\u96c6\u6210\u65b9\u6848\u53ca\u5168\u65b9\u4f4d\u7684\u6280\u672f\u652f\u6301\u3001\u6280\u672f\u54a8\u8be2\u53ca\u6280\u672f\u670d\u52a1\u3002
p4467
sVRemarkPYInitial
p4468
g43
sVContactFlag
p4469
I3
sVUin
p4470
I0
sVNickName
p4471
V\u5357\u4eac\u8fea\u8f6f\u8f6f\u4ef6
p4472
sVAppAccountFlag
p4473
I0
sVVerifyFlag
p4474
I8
sVRemarkPYQuanPin
p4475
g43
sVHeadImgUrl
p4476
V/cgi-bin/mmwebwx-bin/webwxgeticon?seq=668500142&username=@ed6713bdc015b667178412e1f5841383&skey=@crypt_6353e9d_f7009d40044db940ad3ae927b3f6f744
p4477
sVKeyWord
p4478
Vgh_
p4479
sVProvince
p4480
V\u6c5f\u82cf
p4481
sVPYInitial
p4482
VNJDRRJ
p4483
sVRemarkName
p4484
g43
sVIsOwner
p4485
I0
sVSex
p4486
I0
sVStarFriend
p4487
I0
sVHideInputBarFlag
p4488
I0
sVChatRoomId
p4489
I0
sVEncryChatRoomId
p4490
g43
sVAttrStatus
p4491
I0
sVStatues
p4492
I0
stp4493
Rp4494
I1
bag25
(g3222
g30
(dp4495
VUserName
p4496
V@7b29a8f8a8f25b02a820a3bdd432022e
p4497
sVCity
p4498
V\u671d\u9633
p4499
sVSnsFlag
p4500
I0
sVDisplayName
p4501
g43
sVUniFriend
p4502
I0
sVMemberCount
p4503
I0
sVOwnerUin
p4504
I0
sVMemberList
p4505
g41
sVAlias
p4506
g43
sVPYQuanPin
p4507
VDeepTechshenkeji
p4508
sVSignature
p4509
V\u201cDeepTech\u6df1\u79d1\u6280\u201d\u662f\u4e0e\u9ebb\u7701\u7406\u5de5\u79d1\u6280\u8bc4\u8bba\u5b98\u65b9\u72ec\u5bb6\u5408\u4f5c\u7684\u4e00\u4e2a\u65b0\u79d1\u6280\u5185\u5bb9\u54c1\u724c\u3002\u6211\u4eec\u4e13\u6ce8\u4e8e\u5173\u6ce8\u4e09\u4e2a\u65b9\u9762\uff1a1\u3001\u57fa\u4e8e\u79d1\u5b66\u7684\u53d1\u73b0\uff1b2\u3001\u771f\u6b63\u7684\u79d1\u6280\u521b\u65b0\uff1b3\u3001\u6df1\u79d1\u6280\u5e94\u7528\u7684\u521b\u65b0\u3002
p4510
sVRemarkPYInitial
p4511
g43
sVContactFlag
p4512
I3
sVUin
p4513
I0
sVNickName
p4514
VDeepTech\u6df1\u79d1\u6280
p4515
sVAppAccountFlag
p4516
I0
sVVerifyFlag
p4517
I24
sVRemarkPYQuanPin
p4518
g43
sVHeadImgUrl
p4519
V/cgi-bin/mmwebwx-bin/webwxgeticon?seq=668502040&username=@7b29a8f8a8f25b02a820a3bdd432022e&skey=@crypt_6353e9d_f7009d40044db940ad3ae927b3f6f744
p4520
sVKeyWord
p4521
Vgh_
p4522
sVProvince
p4523
V\u5317\u4eac
p4524
sVPYInitial
p4525
VDEEPTECHSKJ
p4526
sVRemarkName
p4527
g43
sVIsOwner
p4528
I0
sVSex
p4529
I0
sVStarFriend
p4530
I0
sVHideInputBarFlag
p4531
I0
sVChatRoomId
p4532
I0
sVEncryChatRoomId
p4533
g43
sVAttrStatus
p4534
I0
sVStatues
p4535
I0
stp4536
Rp4537
I1
bag25
(g3222
g30
(dp4538
VUserName
p4539
V@ad63f4df120ef327bc612c1bc9cf9ac8
p4540
sVCity
p4541
V\u666e\u9640
p4542
sVSnsFlag
p4543
I0
sVDisplayName
p4544
g43
sVUniFriend
p4545
I0
sVMemberCount
p4546
I0
sVOwnerUin
p4547
I0
sVMemberList
p4548
g41
sVAlias
p4549
g43
sVPYQuanPin
p4550
Vshenbizhuangbiren
p4551
sVSignature
p4552
V\u53d1\u653e\u6700\u65b0\u6700\u706b\u7684\u89c6\u9891\u798f\u5229
p4553
sVRemarkPYInitial
p4554
g43
sVContactFlag
p4555
I1
sVUin
p4556
I0
sVNickName
p4557
V\u795e\u79d8\u88c5\u903c\u4eba
p4558
sVAppAccountFlag
p4559
I0
sVVerifyFlag
p4560
I8
sVRemarkPYQuanPin
p4561
g43
sVHeadImgUrl
p4562
V/cgi-bin/mmwebwx-bin/webwxgeticon?seq=668510068&username=@ad63f4df120ef327bc612c1bc9cf9ac8&skey=@crypt_6353e9d_f7009d40044db940ad3ae927b3f6f744
p4563
sVKeyWord
p4564
Vgh_
p4565
sVProvince
p4566
V\u4e0a\u6d77
p4567
sVPYInitial
p4568
VSBZBR
p4569
sVRemarkName
p4570
g43
sVIsOwner
p4571
I0
sVSex
p4572
I0
sVStarFriend
p4573
I0
sVHideInputBarFlag
p4574
I0
sVChatRoomId
p4575
I0
sVEncryChatRoomId
p4576
g43
sVAttrStatus
p4577
I0
sVStatues
p4578
I0
stp4579
Rp4580
I1
bag25
(g3222
g30
(dp4581
VUserName
p4582
V@c56a243c9e68462b757a2df60b828934
p4583
sVCity
p4584
V\u671d\u9633
p4585
sVSnsFlag
p4586
I0
sVDisplayName
p4587
g43
sVUniFriend
p4588
I0
sVMemberCount
p4589
I0
sVOwnerUin
p4590
I0
sVMemberList
p4591
g41
sVAlias
p4592
g43
sVPYQuanPin
p4593
Vddxxionglaile
p4594
sVSignature
p4595
V\u65e0\u8bba\u662f\u5b66\u5386\u6559\u80b2\u3001IT\u57f9\u8bad\uff0c\u8fd8\u662f\u8bed\u8a00\u57f9\u8bad\u3001\u827a\u672f\u7c7b\u57f9\u8bad\u3001\u804c\u4e1a\u6280\u80fd\u57f9\u8bad\u3001\u6d77\u5916\u7559\u5b66\u9879\u76ee\uff0c\u8d37\u8d37\u718a\u59cb\u7ec8\u79c9\u627f\u201c\u4e3a\u68a6\u60f3\u8005\u70b9\u4eae\u672a\u6765\u201d\u7684\u5b97\u65e8\uff0c\u6839\u636e\u6559\u80b2\u57f9\u8bad\u673a\u6784\u7684\u7279\u70b9\uff0c\u7ed3\u5408\u5b66\u751f\u7684\u5177\u4f53\u9700\u6c42\uff0c\u91cf\u8eab\u5b9a\u505a\u4e0d\u540c\u7684\u89e3\u51b3\u65b9\u6848\uff0c\u4f7f\u5b66\u751f\u53ef\u4ee5\u8f7b\u677e\u901a\u8fc7\u5206\u671f\u4ed8\u6b3e\u6765\u5b8c\u6210\u5b66\u4e1a\u3002
p4596
sVRemarkPYInitial
p4597
g43
sVContactFlag
p4598
I3
sVUin
p4599
I0
sVNickName
p4600
Vddx\u718a\u6765\u4e86
p4601
sVAppAccountFlag
p4602
I0
sVVerifyFlag
p4603
I24
sVRemarkPYQuanPin
p4604
g43
sVHeadImgUrl
p4605
V/cgi-bin/mmwebwx-bin/webwxgeticon?seq=656870811&username=@c56a243c9e68462b757a2df60b828934&skey=@crypt_6353e9d_f7009d40044db940ad3ae927b3f6f744
p4606
sVKeyWord
p4607
Vgh_
p4608
sVProvince
p4609
V\u5317\u4eac
p4610
sVPYInitial
p4611
VDDXXLL
p4612
sVRemarkName
p4613
g43
sVIsOwner
p4614
I0
sVSex
p4615
I0
sVStarFriend
p4616
I0
sVHideInputBarFlag
p4617
I0
sVChatRoomId
p4618
I0
sVEncryChatRoomId
p4619
g43
sVAttrStatus
p4620
I0
sVStatues
p4621
I0
stp4622
Rp4623
I1
bag25
(g3222
g30
(dp4624
VUserName
p4625
V@b58d2055729d11a0ae75eb3818a5b307
p4626
sVCity
p4627
V\u95f5\u884c
p4628
sVSnsFlag
p4629
I0
sVDisplayName
p4630
g43
sVUniFriend
p4631
I0
sVMemberCount
p4632
I0
sVOwnerUin
p4633
I0
sVMemberList
p4634
g41
sVAlias
p4635
g43
sVPYQuanPin
p4636
Velemewangshangdingcan
p4637
sVSignature
p4638
V\u997f\u4e86\u4e48\uff08http://ele.me\uff09\uff0c\u4e13\u4e1a\u7684\u5916\u5356\u8ba2\u9910\u7f51\u7ad9\uff0c\u6c47\u96c6\u5468\u8fb9\u7f8e\u98df\u5916\u5356\uff0c\u4e09\u952e\u4e0b\u5355\u65b9\u4fbf\u5feb\u6377\u3002\u670d\u52a1\u53f7\u76f4\u63a5\u4e0b\u5355\uff0c\u652f\u6301\u8d27\u5230\u4ed8\u6b3e\uff01
p4639
sVRemarkPYInitial
p4640
g43
sVContactFlag
p4641
I3
sVUin
p4642
I0
sVNickName
p4643
V\u997f\u4e86\u4e48\u7f51\u4e0a\u8ba2\u9910
p4644
sVAppAccountFlag
p4645
I0
sVVerifyFlag
p4646
I24
sVRemarkPYQuanPin
p4647
g43
sVHeadImgUrl
p4648
V/cgi-bin/mmwebwx-bin/webwxgeticon?seq=654290538&username=@b58d2055729d11a0ae75eb3818a5b307&skey=@crypt_6353e9d_f7009d40044db940ad3ae927b3f6f744
p4649
sVKeyWord
p4650
Vgh_
p4651
sVProvince
p4652
V\u4e0a\u6d77
p4653
sVPYInitial
p4654
VELMWSDC
p4655
sVRemarkName
p4656
g43
sVIsOwner
p4657
I0
sVSex
p4658
I0
sVStarFriend
p4659
I0
sVHideInputBarFlag
p4660
I0
sVChatRoomId
p4661
I0
sVEncryChatRoomId
p4662
g43
sVAttrStatus
p4663
I0
sVStatues
p4664
I0
stp4665
Rp4666
I1
bag25
(g3222
g30
(dp4667
VUserName
p4668
V@3832d887f27460478c12574193451394
p4669
sVCity
p4670
V\u671d\u9633
p4671
sVSnsFlag
p4672
I0
sVDisplayName
p4673
g43
sVUniFriend
p4674
I0
sVMemberCount
p4675
I0
sVOwnerUin
p4676
I0
sVMemberList
p4677
g41
sVAlias
p4678
g43
sVPYQuanPin
p4679
Vyoubao
p4680
sVSignature
p4681
V\u53cb\u5b9dUbox\u662f\u5168\u7403\u552f\u4e00\u7684\u4e92\u52a8\u578b\u81ea\u52a9\u552e\u8d27\u673a\uff0c\u901a\u8fc7\u53cb\u5b9d\u624b\u673a\u5ba2\u6237\u7aef\u53ef\u5728\u552e\u8d27\u673a\u4e0a\u8d2d\u4e70\u996e\u6599\u3001\u96f6\u98df\u3001\u5feb\u9910\uff0c\u83b7\u5f97\u4f60\u7684\u4e13\u5c5e\u4fbf\u5229\u3001\u4e13\u5c5e\u7279\u6743\u3001\u4e13\u5c5e\u4f18\u60e0\u3002
p4682
sVRemarkPYInitial
p4683
g43
sVContactFlag
p4684
I3
sVUin
p4685
I0
sVNickName
p4686
V\u53cb\u5b9d
p4687
sVAppAccountFlag
p4688
I0
sVVerifyFlag
p4689
I24
sVRemarkPYQuanPin
p4690
g43
sVHeadImgUrl
p4691
V/cgi-bin/mmwebwx-bin/webwxgeticon?seq=654291338&username=@3832d887f27460478c12574193451394&skey=@crypt_6353e9d_f7009d40044db940ad3ae927b3f6f744
p4692
sVKeyWord
p4693
Vgh_
p4694
sVProvince
p4695
V\u5317\u4eac
p4696
sVPYInitial
p4697
VYB
p4698
sVRemarkName
p4699
g43
sVIsOwner
p4700
I0
sVSex
p4701
I0
sVStarFriend
p4702
I0
sVHideInputBarFlag
p4703
I0
sVChatRoomId
p4704
I0
sVEncryChatRoomId
p4705
g43
sVAttrStatus
p4706
I4
sVStatues
p4707
I0
stp4708
Rp4709
I1
bag25
(g3222
g30
(dp4710
VUserName
p4711
V@78391d3d956e6a844d7f90f18cf41841
p4712
sVCity
p4713
g43
sVSnsFlag
p4714
I0
sVDisplayName
p4715
g43
sVUniFriend
p4716
I0
sVMemberCount
p4717
I0
sVOwnerUin
p4718
I0
sVMemberList
p4719
g41
sVAlias
p4720
g43
sVPYQuanPin
p4721
Vmeituanwaimai
p4722
sVSignature
p4723
V\u9001\u4e0a\u95e8\u7684\u7f8e\u597d\u751f\u6d3b\u3002
p4724
sVRemarkPYInitial
p4725
g43
sVContactFlag
p4726
I3
sVUin
p4727
I0
sVNickName
p4728
V\u7f8e\u56e2\u5916\u5356
p4729
sVAppAccountFlag
p4730
I0
sVVerifyFlag
p4731
I24
sVRemarkPYQuanPin
p4732
g43
sVHeadImgUrl
p4733
V/cgi-bin/mmwebwx-bin/webwxgeticon?seq=654290526&username=@78391d3d956e6a844d7f90f18cf41841&skey=@crypt_6353e9d_f7009d40044db940ad3ae927b3f6f744
p4734
sVKeyWord
p4735
Vgh_
p4736
sVProvince
p4737
V\u5317\u4eac
p4738
sVPYInitial
p4739
VMTWM
p4740
sVRemarkName
p4741
g43
sVIsOwner
p4742
I0
sVSex
p4743
I0
sVStarFriend
p4744
I0
sVHideInputBarFlag
p4745
I0
sVChatRoomId
p4746
I0
sVEncryChatRoomId
p4747
g43
sVAttrStatus
p4748
I0
sVStatues
p4749
I0
stp4750
Rp4751
I1
bag25
(g3222
g30
(dp4752
VUserName
p4753
V@b3a2e867f962ce86569bc0f9f8c3d38e
p4754
sVCity
p4755
V\u5357\u4eac
p4756
sVSnsFlag
p4757
I0
sVDisplayName
p4758
g43
sVUniFriend
p4759
I0
sVMemberCount
p4760
I0
sVOwnerUin
p4761
I0
sVMemberList
p4762
g41
sVAlias
p4763
g43
sVPYQuanPin
p4764
Vyunchuangdashuju
p4765
sVSignature
p4766
V\u4e91\u521b\u5927\u6570\u636e\uff08\u8bc1\u5238\u7b80\u79f0\uff1a\u4e91\u521b\u6570\u636e\uff0c\u80a1\u7968\u4ee3\u7801\uff1a835305\uff09\uff0c\u5927\u6570\u636e\u6280\u672f\u9886\u519b\u4f01\u4e1a\u3002\u63d0\u4f9b\u6027\u4ef7\u6bd4\u63d0\u5347\u5341\u500d\u7684\u8d85\u4f4e\u529f\u8017\u4e91\u5b58\u50a8\u7cfb\u7edf\u3001\u6570\u636e\u7acb\u65b9\u5927\u6570\u636e\u5e93\u3001\u8d85\u9ad8\u901f\u4e91\u4f20\u8f93\u7cfb\u7edf\u3001\u6574\u5408\u5404\u79cd\u76d1\u63a7\u7cfb\u7edf\u7684\u4e91\u89c6\u9891\u7cfb\u7edf\u3001PM2.5\u4e91\u76d1\u6d4b\u9884\u8b66\u5e73\u53f0\u7b49\u3002
p4767
sVRemarkPYInitial
p4768
g43
sVContactFlag
p4769
I3
sVUin
p4770
I0
sVNickName
p4771
V\u4e91\u521b\u5927\u6570\u636e
p4772
sVAppAccountFlag
p4773
I0
sVVerifyFlag
p4774
I24
sVRemarkPYQuanPin
p4775
g43
sVHeadImgUrl
p4776
V/cgi-bin/mmwebwx-bin/webwxgeticon?seq=668517604&username=@b3a2e867f962ce86569bc0f9f8c3d38e&skey=@crypt_6353e9d_f7009d40044db940ad3ae927b3f6f744
p4777
sVKeyWord
p4778
Vgh_
p4779
sVProvince
p4780
V\u6c5f\u82cf
p4781
sVPYInitial
p4782
VYCDSJ
p4783
sVRemarkName
p4784
g43
sVIsOwner
p4785
I0
sVSex
p4786
I0
sVStarFriend
p4787
I0
sVHideInputBarFlag
p4788
I0
sVChatRoomId
p4789
I0
sVEncryChatRoomId
p4790
g43
sVAttrStatus
p4791
I0
sVStatues
p4792
I0
stp4793
Rp4794
I1
bag25
(g3222
g30
(dp4795
VUserName
p4796
V@9730cbd2d1f7cdbbfd6a79aaac7ae675
p4797
sVCity
p4798
V\u5357\u4eac
p4799
sVSnsFlag
p4800
I0
sVDisplayName
p4801
g43
sVUniFriend
p4802
I0
sVMemberCount
p4803
I0
sVOwnerUin
p4804
I0
sVMemberList
p4805
g41
sVAlias
p4806
g43
sVPYQuanPin
p4807
Vzhongguodashuju
p4808
sVSignature
p4809
V\u4e2d\u56fd\u5927\u6570\u636e |  \u63d0\u4f9b\u5927\u6570\u636e\u6280\u672f\uff0c\u5927\u6570\u636e\u5e94\u7528\u6848\u4f8b\uff0c\u6c47\u805a\u5927\u6570\u636e\u8d44\u6599\uff0c\u8ba8\u8bba\u5927\u6570\u636e\u8bdd\u9898\u3002\u4e2d\u56fd\u5927\u6570\u636e\u662f\u56fd\u5185\u6700\u65e9\u7684\u516c\u76ca\u6027\u5927\u6570\u636e\u7f51\u7ad9\uff0c\u7531\u5218\u9e4f\u6559\u6388\u521b\u529e\u3002
p4810
sVRemarkPYInitial
p4811
g43
sVContactFlag
p4812
I3
sVUin
p4813
I0
sVNickName
p4814
V\u4e2d\u56fd\u5927\u6570\u636e
p4815
sVAppAccountFlag
p4816
I0
sVVerifyFlag
p4817
I8
sVRemarkPYQuanPin
p4818
g43
sVHeadImgUrl
p4819
V/cgi-bin/mmwebwx-bin/webwxgeticon?seq=668520041&username=@9730cbd2d1f7cdbbfd6a79aaac7ae675&skey=@crypt_6353e9d_f7009d40044db940ad3ae927b3f6f744
p4820
sVKeyWord
p4821
Vgh_
p4822
sVProvince
p4823
V\u6c5f\u82cf
p4824
sVPYInitial
p4825
VZGDSJ
p4826
sVRemarkName
p4827
g43
sVIsOwner
p4828
I0
sVSex
p4829
I0
sVStarFriend
p4830
I0
sVHideInputBarFlag
p4831
I0
sVChatRoomId
p4832
I0
sVEncryChatRoomId
p4833
g43
sVAttrStatus
p4834
I0
sVStatues
p4835
I0
stp4836
Rp4837
I1
bag25
(g3222
g30
(dp4838
VUserName
p4839
V@d080f4952afb33f41515d9b181b12f4e
p4840
sVCity
p4841
V\u5e7f\u5dde
p4842
sVSnsFlag
p4843
I0
sVDisplayName
p4844
g43
sVUniFriend
p4845
I0
sVMemberCount
p4846
I0
sVOwnerUin
p4847
I0
sVMemberList
p4848
g41
sVAlias
p4849
g43
sVPYQuanPin
p4850
VqianliaoLive
p4851
sVSignature
p4852
V\u70b9\u51fb\u5e95\u90e8\u201c\u5173\u6ce8\u201d\uff0c\u624d\u53ef\u53ca\u65f6\u6536\u5230\u8001\u5e08\u5e03\u7f6e\u7684\u4f5c\u4e1a\u548c\u5f00\u8bfe\u901a\u77e5\uff1b\u5343\u804a\u8bfe\u7a0b\u8986\u76d6\u5973\u6027\u6210\u957f\u3001\u5a5a\u604b\u3001\u80b2\u513f\u3001\u745c\u4f3d\u5851\u5f62\u3001\u804c\u573a\u3001\u7ecf\u8425\u7ba1\u7406\u3001\u5fc3\u7406\u7b4940\u591a\u4e2a\u7c7b\u76ee\u3002\u8fdb\u5165\u5343\u804a\uff0c\u8ddf\u4e00\u5343\u4e07\u5b66\u5458\u4e00\u8d77\u5b66\u4e60\u4e00\u8d77\u804a\u3002
p4853
sVRemarkPYInitial
p4854
g43
sVContactFlag
p4855
I3
sVUin
p4856
I0
sVNickName
p4857
V\u5343\u804aLive
p4858
sVAppAccountFlag
p4859
I0
sVVerifyFlag
p4860
I24
sVRemarkPYQuanPin
p4861
g43
sVHeadImgUrl
p4862
V/cgi-bin/mmwebwx-bin/webwxgeticon?seq=668521606&username=@d080f4952afb33f41515d9b181b12f4e&skey=@crypt_6353e9d_f7009d40044db940ad3ae927b3f6f744
p4863
sVKeyWord
p4864
Vgh_
p4865
sVProvince
p4866
V\u5e7f\u4e1c
p4867
sVPYInitial
p4868
VQLLIVE
p4869
sVRemarkName
p4870
g43
sVIsOwner
p4871
I0
sVSex
p4872
I0
sVStarFriend
p4873
I0
sVHideInputBarFlag
p4874
I0
sVChatRoomId
p4875
I0
sVEncryChatRoomId
p4876
g43
sVAttrStatus
p4877
I0
sVStatues
p4878
I0
stp4879
Rp4880
I1
bag25
(g3222
g30
(dp4881
VUserName
p4882
V@548b8dce40c8d511d6103f63b216b029
p4883
sVCity
p4884
g43
sVSnsFlag
p4885
I0
sVDisplayName
p4886
g43
sVUniFriend
p4887
I0
sVMemberCount
p4888
I0
sVOwnerUin
p4889
I0
sVMemberList
p4890
g41
sVAlias
p4891
g43
sVPYQuanPin
p4892
Vmoshoushijie
p4893
sVSignature
p4894
V\u5173\u6ce8\u9b54\u517d\u4e16\u754c\u670d\u52a1\u53f7\uff0c\u4e3b\u52a8\u83b7\u53d6\u9b54\u517d\u4e16\u754c\u6700\u65b0\u7684\u5b98\u65b9\u8d44\u8baf\u4ee5\u53ca\u6d3b\u52a8\u4fe1\u606f\u3002
p4895
sVRemarkPYInitial
p4896
g43
sVContactFlag
p4897
I3
sVUin
p4898
I0
sVNickName
p4899
V\u9b54\u517d\u4e16\u754c
p4900
sVAppAccountFlag
p4901
I0
sVVerifyFlag
p4902
I24
sVRemarkPYQuanPin
p4903
g43
sVHeadImgUrl
p4904
V/cgi-bin/mmwebwx-bin/webwxgeticon?seq=621170370&username=@548b8dce40c8d511d6103f63b216b029&skey=@crypt_6353e9d_f7009d40044db940ad3ae927b3f6f744
p4905
sVKeyWord
p4906
Vgh_
p4907
sVProvince
p4908
V\u4e0a\u6d77
p4909
sVPYInitial
p4910
VMSSJ
p4911
sVRemarkName
p4912
g43
sVIsOwner
p4913
I0
sVSex
p4914
I0
sVStarFriend
p4915
I0
sVHideInputBarFlag
p4916
I0
sVChatRoomId
p4917
I0
sVEncryChatRoomId
p4918
g43
sVAttrStatus
p4919
I0
sVStatues
p4920
I0
stp4921
Rp4922
I1
bag25
(g3222
g30
(dp4923
VUserName
p4924
V@1cc4a6b5dcb125a6bb1bc780be5665c2
p4925
sVCity
p4926
V\u5357\u4eac
p4927
sVSnsFlag
p4928
I0
sVDisplayName
p4929
g43
sVUniFriend
p4930
I0
sVMemberCount
p4931
I0
sVOwnerUin
p4932
I0
sVMemberList
p4933
g41
sVAlias
p4934
g43
sVPYQuanPin
p4935
Vyinchengqianwanjian
p4936
sVSignature
p4937
V\u5357\u4eac\u9996\u5bb6\u8d44\u4ea7\u7ba1\u7406\uff0c\u957f\u79df\u5e73\u53f0\u3002\uff08\u6c38\u4e45\u514d\u4e2d\u4ecb\u8d39\uff09
p4938
sVRemarkPYInitial
p4939
g43
sVContactFlag
p4940
I3
sVUin
p4941
I0
sVNickName
p4942
V\u94f6\u57ce\u5343\u4e07\u95f4
p4943
sVAppAccountFlag
p4944
I0
sVVerifyFlag
p4945
I24
sVRemarkPYQuanPin
p4946
g43
sVHeadImgUrl
p4947
V/cgi-bin/mmwebwx-bin/webwxgeticon?seq=668529949&username=@1cc4a6b5dcb125a6bb1bc780be5665c2&skey=@crypt_6353e9d_f7009d40044db940ad3ae927b3f6f744
p4948
sVKeyWord
p4949
Vgh_
p4950
sVProvince
p4951
V\u6c5f\u82cf
p4952
sVPYInitial
p4953
VYCQWJ
p4954
sVRemarkName
p4955
g43
sVIsOwner
p4956
I0
sVSex
p4957
I0
sVStarFriend
p4958
I0
sVHideInputBarFlag
p4959
I0
sVChatRoomId
p4960
I0
sVEncryChatRoomId
p4961
g43
sVAttrStatus
p4962
I0
sVStatues
p4963
I0
stp4964
Rp4965
I1
bag25
(g3222
g30
(dp4966
VUserName
p4967
V@19db5b57a867fe07e3d21b02b82767e4
p4968
sVCity
p4969
g43
sVSnsFlag
p4970
I0
sVDisplayName
p4971
g43
sVUniFriend
p4972
I0
sVMemberCount
p4973
I0
sVOwnerUin
p4974
I0
sVMemberList
p4975
g41
sVAlias
p4976
g43
sVPYQuanPin
p4977
VbotaohuiWeHotel
p4978
sVSignature
p4979
V\u94c2\u6d9b\u65c5\u884c\u4f5c\u4e3a\u4e2d\u56fd\u9152\u5e97\u4e1a\u6700\u5927\u5b98\u65b9\u76f4\u9500\u5e73\u53f0\uff0c\u73b0\u5df2\u6b63\u5f0f\u52a0\u5165WeHotel\u4f53\u7cfb\u3002\u4f1a\u5458\u9884\u8ba2\u4ecd\u4eab\u53d7\u5b98\u65b9\u76f4\u9500\u4ef7\u683c\uff0c\u8986\u76d67\u5929\u3001\u9e97\u67ab\u3001\u9526\u6c5f\u4e4b\u661f\u3001\u7ef4\u4e5f\u7eb3\u7b49\u5168\u740323\u4e2a\u54c1\u724c\u8d855000\u5bb6\u9152\u5e97\u3002\u6b64\u5916\uff0c\u8fd8\u53ef\u9884\u8ba2\u666f\u533a\u95e8\u7968\u3001\u6c11\u5bbf\u548c\u516c\u5bd3\u7b49\u4ea7\u54c1\uff0c\u5e76\u4eab\u53d7\u4f1a\u5458\u6298\u6263\u3001\u79ef\u5206\u548c\u6743\u76ca\uff01
p4980
sVRemarkPYInitial
p4981
g43
sVContactFlag
p4982
I3
sVUin
p4983
I0
sVNickName
p4984
V\u94c2\u6d9b\u4f1aWeHotel
p4985
sVAppAccountFlag
p4986
I0
sVVerifyFlag
p4987
I24
sVRemarkPYQuanPin
p4988
g43
sVHeadImgUrl
p4989
V/cgi-bin/mmwebwx-bin/webwxgeticon?seq=668530063&username=@19db5b57a867fe07e3d21b02b82767e4&skey=@crypt_6353e9d_f7009d40044db940ad3ae927b3f6f744
p4990
sVKeyWord
p4991
Vgh_
p4992
sVProvince
p4993
V\u5e7f\u4e1c
p4994
sVPYInitial
p4995
VBTHWEHOTEL
p4996
sVRemarkName
p4997
g43
sVIsOwner
p4998
I0
sVSex
p4999
I0
sVStarFriend
p5000
I0
sVHideInputBarFlag
p5001
I0
sVChatRoomId
p5002
I0
sVEncryChatRoomId
p5003
g43
sVAttrStatus
p5004
I0
sVStatues
p5005
I0
stp5006
Rp5007
I1
bag25
(g3222
g30
(dp5008
VUserName
p5009
V@5531a67e0d23791468d7ae9394686806
p5010
sVCity
p5011
V\u626c\u5dde
p5012
sVSnsFlag
p5013
I0
sVDisplayName
p5014
g43
sVUniFriend
p5015
I0
sVMemberCount
p5016
I0
sVOwnerUin
p5017
I0
sVMemberList
p5018
g41
sVAlias
p5019
g43
sVPYQuanPin
p5020
Vyinxiangmingchengfuwuhao
p5021
sVSignature
p5022
V\u901a\u8fc7\u5c0f\u7a0b\u5e8f\u4e8c\u7ef4\u7801\u628a\u4eba\u4e0e\u57ce\u5e02\u8fde\u63a5\u8d77\u6765\uff0c\u79fb\u52a8\u4e92\u8054\u7f51\u5c55\u73b0\u57ce\u5e02\u98ce\u8c8c\u3001\u4f53\u73b0\u57ce\u5e02\u6d3b\u529b\u3001\u5bfb\u89c5\u57ce\u5e02\u5386\u53f2\u3001\u6316\u6398\u57ce\u5e02\u7075\u9b42\u3001\u4e86\u89e3\u57ce\u5e02\u6027\u683c\u3001\u4f20\u64ad\u54c1\u724c\u5370\u8c61\u540d\u57ce\u3002\u597d\u5370\u8c61\u81ea\u6709\u5927\u5f71\u54cd\uff01
p5023
sVRemarkPYInitial
p5024
g43
sVContactFlag
p5025
I3
sVUin
p5026
I0
sVNickName
p5027
V\u5370\u8c61\u540d\u57ce\u670d\u52a1\u53f7
p5028
sVAppAccountFlag
p5029
I0
sVVerifyFlag
p5030
I24
sVRemarkPYQuanPin
p5031
g43
sVHeadImgUrl
p5032
V/cgi-bin/mmwebwx-bin/webwxgeticon?seq=668527510&username=@5531a67e0d23791468d7ae9394686806&skey=@crypt_6353e9d_f7009d40044db940ad3ae927b3f6f744
p5033
sVKeyWord
p5034
Vgh_
p5035
sVProvince
p5036
V\u6c5f\u82cf
p5037
sVPYInitial
p5038
VYXMCFWH
p5039
sVRemarkName
p5040
g43
sVIsOwner
p5041
I0
sVSex
p5042
I0
sVStarFriend
p5043
I0
sVHideInputBarFlag
p5044
I0
sVChatRoomId
p5045
I0
sVEncryChatRoomId
p5046
g43
sVAttrStatus
p5047
I0
sVStatues
p5048
I0
stp5049
Rp5050
I1
bag25
(g3222
g30
(dp5051
VUserName
p5052
V@0c4b95777498423ade3e077aa29a893f
p5053
sVCity
p5054
V\u6d66\u4e1c\u65b0\u533a
p5055
sVSnsFlag
p5056
I0
sVDisplayName
p5057
g43
sVUniFriend
p5058
I0
sVMemberCount
p5059
I0
sVOwnerUin
p5060
I0
sVMemberList
p5061
g41
sVAlias
p5062
g43
sVPYQuanPin
p5063
Vjiangnacangshuguan
p5064
sVSignature
p5065
V\u6d77\u91cf\u56fe\u4e66 \u514d\u8d39\u9605\u8bfb
p5066
sVRemarkPYInitial
p5067
g43
sVContactFlag
p5068
I3
sVUin
p5069
I0
sVNickName
p5070
V\u6c5f\u5357\u85cf\u4e66\u9986
p5071
sVAppAccountFlag
p5072
I0
sVVerifyFlag
p5073
I24
sVRemarkPYQuanPin
p5074
g43
sVHeadImgUrl
p5075
V/cgi-bin/mmwebwx-bin/webwxgeticon?seq=668541044&username=@0c4b95777498423ade3e077aa29a893f&skey=@crypt_6353e9d_f7009d40044db940ad3ae927b3f6f744
p5076
sVKeyWord
p5077
Vgh_
p5078
sVProvince
p5079
V\u4e0a\u6d77
p5080
sVPYInitial
p5081
VJNCSG
p5082
sVRemarkName
p5083
g43
sVIsOwner
p5084
I0
sVSex
p5085
I0
sVStarFriend
p5086
I0
sVHideInputBarFlag
p5087
I0
sVChatRoomId
p5088
I0
sVEncryChatRoomId
p5089
g43
sVAttrStatus
p5090
I0
sVStatues
p5091
I0
stp5092
Rp5093
I1
bag25
(g3222
g30
(dp5094
VUserName
p5095
V@d8232473a5b97b7181bca8ac62fee56e
p5096
sVCity
p5097
V\u6df1\u5733
p5098
sVSnsFlag
p5099
I0
sVDisplayName
p5100
g43
sVUniFriend
p5101
I0
sVMemberCount
p5102
I0
sVOwnerUin
p5103
I0
sVMemberList
p5104
g41
sVAlias
p5105
g43
sVPYQuanPin
p5106
Vtengxunyingmeiju
p5107
sVSignature
p5108
V\u6700\u6f6e\u6d41\u7684\u82f1\u7f8e\u5267\u8ffd\u5267\u6307\u5357
p5109
sVRemarkPYInitial
p5110
g43
sVContactFlag
p5111
I1
sVUin
p5112
I0
sVNickName
p5113
V\u817e\u8baf\u82f1\u7f8e\u5267
p5114
sVAppAccountFlag
p5115
I0
sVVerifyFlag
p5116
I24
sVRemarkPYQuanPin
p5117
g43
sVHeadImgUrl
p5118
V/cgi-bin/mmwebwx-bin/webwxgeticon?seq=668542168&username=@d8232473a5b97b7181bca8ac62fee56e&skey=@crypt_6353e9d_f7009d40044db940ad3ae927b3f6f744
p5119
sVKeyWord
p5120
Vgh_
p5121
sVProvince
p5122
V\u5e7f\u4e1c
p5123
sVPYInitial
p5124
VTXYMJ
p5125
sVRemarkName
p5126
g43
sVIsOwner
p5127
I0
sVSex
p5128
I0
sVStarFriend
p5129
I0
sVHideInputBarFlag
p5130
I0
sVChatRoomId
p5131
I0
sVEncryChatRoomId
p5132
g43
sVAttrStatus
p5133
I0
sVStatues
p5134
I0
stp5135
Rp5136
I1
batp5137
Rp5138
I1
bssS'loginInfo'
p5139
(dp5140
S'SyncKey'
p5141
(dp5142
VCount
p5143
I8
sVList
p5144
(lp5145
(dp5146
VVal
p5147
I668545702
sVKey
p5148
I1
sa(dp5149
VVal
p5150
I668547191
sVKey
p5151
I2
sa(dp5152
VVal
p5153
I668547101
sVKey
p5154
I3
sa(dp5155
VVal
p5156
I668544518
sVKey
p5157
I11
sa(dp5158
VVal
p5159
I668490321
sVKey
p5160
I13
sa(dp5161
VVal
p5162
I1502029014
sVKey
p5163
I201
sa(dp5164
VVal
p5165
I1502013961
sVKey
p5166
I1000
sa(dp5167
VVal
p5168
I1502013992
sVKey
p5169
I1001
sassS'syncUrl'
p5170
S'https://webpush.wx.qq.com/cgi-bin/mmwebwx-bin'
p5171
sS'skey'
p5172
V@crypt_6353e9d_f7009d40044db940ad3ae927b3f6f744
p5173
sS'wxuin'
p5174
V1610532702
p5175
sS'synckey'
p5176
S'1_668545702|2_668547191|3_668547101|11_668544518|13_668490321|201_1502029014|1000_1502013961|1001_1502013992'
p5177
sS'url'
p5178
Vhttps://wx.qq.com/cgi-bin/mmwebwx-bin
p5179
sS'pass_ticket'
p5180
VxM1vWA4FSJ5Z%2Fp5INGCOmGDrb5ZDVPU8pH4p1NEWagMuggVzLgZ6VfRGRvj3QB9V
p5181
sS'wxsid'
p5182
VwXOXLDvvdnNMDh8Y
p5183
sS'InviteStartCount'
p5184
I40
sS'deviceid'
p5185
S'e456913919069703'
p5186
sS'fileUrl'
p5187
S'https://file.wx.qq.com/cgi-bin/mmwebwx-bin'
p5188
sS'BaseRequest'
p5189
(dp5190
g45
g5175
sS'Skey'
p5191
g5173
sS'DeviceID'
p5192
g5181
sS'Sid'
p5193
g5183
ssS'User'
p5194
g25
(g29
g30
(dp5195
g32
g22
sg33
g34
sg35
g34
sg36
I0
sg38
g41
sg42
g43
sg44
g43
sg69
I1
sg46
I0
sg47
I0
sg48
g34
sg49
g34
sg50
g43
sg51
g43
sg52
I0
sg53
I0
sg54
I1
sg55
g34
sg56
I0
sg59
I0
sg57
I17
sg58
I0
sg37
I0
sg60
g34
sg61
g62
sg63
I0
sg64
g65
sg66
g43
sg67
g68
sg45
I1610532702
sg70
I0
sg71
I0
stp5196
Rp5197
I1
bss.