(dp0
S'cookies'
p1
(dp2
S'wxloadtime'
p3
S'1501868327'
p4
sS'webwx_data_ticket'
p5
S'gScDYkvNXOCZiD3nu/kvsoau'
p6
sS'wxuin'
p7
S'1610532702'
p8
sS'login_frequency'
p9
S'2'
p10
sS'MM_WX_NOTIFY_STATE'
p11
S'1'
p12
sS'MM_WX_SOUND_STATE'
p13
g12
sS'webwx_auth_ticket'
p14
S'CIsBENmUuJ8PGoAB2By3WN71y6IzSBh47j4WWl6AdP9m3tRtyR69AY7sPBZVbaTti9Zv9vhCXhe25FG0M3yseX0TsSAaQbmxQfabDIaaLXrQ+yW2THDwWjfOmmPFrkKZlLpy4p+Dva/ssDmDkErUw/tC4eN5x22PYwMPjZufe3FgBgQj5m2Wa0HX+2c='
p15
sS'last_wxuin'
p16
S'1610532702'
p17
sS'webwxuvid'
p18
S'a6c7fcceeb1625f0223e419a518d34206cb8291333c0b7b10c95edc5deeeb86fbbf2092770bba3c794d4625bb121977e'
p19
sS'wxpluginkey'
p20
S'1501865557'
p21
sS'wxsid'
p22
S'h1lDF1Vo5ka2HdO9'
p23
sS'mm_lang'
p24
S'zh_CN'
p25
ssS'version'
p26
S'1.3.9'
p27
sS'storage'
p28
(dp29
S'userName'
p30
V@f98fecccc73e71dfb8a3079301b5b06ada4715621eb8871f63e621e6f68c8848
p31
sS'lastInputUserName'
p32
NsS'memberList'
p33
ccopy_reg
_reconstructor
p34
(citchat.storage.templates
ContactList
p35
c__builtin__
list
p36
(lp37
g34
(citchat.storage.templates
User
p38
c__builtin__
dict
p39
(dp40
S'UserName'
p41
g31
sS'City'
p42
S''
p43
sS'DisplayName'
p44
g43
sS'UniFriend'
p45
I0
sS'OwnerUin'
p46
I0
sS'MemberList'
p47
g34
(g35
g36
(lp48
tp49
Rp50
I1
bsS'PYQuanPin'
p51
V
p52
sS'RemarkPYInitial'
p53
g52
sS'Uin'
p54
I1610532702
sS'AppAccountFlag'
p55
I0
sS'VerifyFlag'
p56
I0
sS'Province'
p57
g43
sS'KeyWord'
p58
g43
sS'RemarkName'
p59
g52
sS'PYInitial'
p60
g52
sS'ChatRoomId'
p61
I0
sS'HideInputBarFlag'
p62
I0
sVHeadImgFlag
p63
I1
sS'EncryChatRoomId'
p64
g43
sS'AttrStatus'
p65
I0
sS'SnsFlag'
p66
I17
sS'MemberCount'
p67
I0
sVWebWxPluginSwitch
p68
I0
sS'Alias'
p69
g43
sS'Signature'
p70
V\u989d\u989d\uff1f
p71
sS'ContactFlag'
p72
I0
sS'NickName'
p73
V\u5218\u9756
p74
sS'RemarkPYQuanPin'
p75
g52
sS'HeadImgUrl'
p76
V/cgi-bin/mmwebwx-bin/webwxgeticon?seq=849271102&username=@f98fecccc73e71dfb8a3079301b5b06ada4715621eb8871f63e621e6f68c8848&skey=@crypt_6353e9d_c05b3ff3a1f7b536c85fc996d814cf64
p77
sS'Sex'
p78
I1
sS'StarFriend'
p79
I0
sS'Statues'
p80
I0
stp81
Rp82
I1
bag34
(g38
g39
(dp83
VUserName
p84
V@1d5f63962112b5fee5938d356909c1fb6cdf4c542d9cc5225b7cc2c9fc9de7aa
p85
sVCity
p86
V\u5357\u4eac
p87
sVSnsFlag
p88
I49
sVDisplayName
p89
g52
sVUniFriend
p90
I0
sVMemberCount
p91
I0
sVOwnerUin
p92
I0
sVMemberList
p93
g50
sVAlias
p94
g52
sVPYQuanPin
p95
Vjiayibingding
p96
sVSignature
p97
V\u4ece\u524d\u73b0\u5728\u8fc7\u53bb\u4e86\u518d\u4e0d\u6765
p98
sVRemarkPYInitial
p99
VJYBD
p100
sVContactFlag
p101
I3
sVUin
p102
I0
sVNickName
p103
V\u7532\u4e59\u4e19\u4e01
p104
sVAppAccountFlag
p105
I0
sVVerifyFlag
p106
I0
sVRemarkPYQuanPin
p107
Vjiayibingding
p108
sVHeadImgUrl
p109
V/cgi-bin/mmwebwx-bin/webwxgeticon?seq=668543036&username=@1d5f63962112b5fee5938d356909c1fb6cdf4c542d9cc5225b7cc2c9fc9de7aa&skey=@crypt_6353e9d_c05b3ff3a1f7b536c85fc996d814cf64
p110
sVKeyWord
p111
g52
sVProvince
p112
V\u6c5f\u82cf
p113
sVPYInitial
p114
VJYBD
p115
sVRemarkName
p116
V\u7532\u4e59\u4e19\u4e01
p117
sVIsOwner
p118
I0
sVSex
p119
I2
sVStarFriend
p120
I0
sVHideInputBarFlag
p121
I0
sVChatRoomId
p122
I0
sVEncryChatRoomId
p123
g52
sVAttrStatus
p124
I104549
sVStatues
p125
I0
stp126
Rp127
I1
bag34
(g38
g39
(dp128
VUserName
p129
V@fa8636b2b4937796582a4fa9dbd006ac
p130
sVCity
p131
V\u5357\u4eac
p132
sVSnsFlag
p133
I49
sVDisplayName
p134
g52
sVUniFriend
p135
I0
sVMemberCount
p136
I0
sVOwnerUin
p137
I0
sVMemberList
p138
g50
sVAlias
p139
g52
sVPYQuanPin
p140
Vshuiwangyunchuan
p141
sVSignature
p142
V\u51b3\u5b9a\u4f60\u4eba\u751f\u9ad8\u5ea6\u7684\uff0c\u4e0d\u662f\u4f60\u7684\u624d\u80fd\uff0c\u800c\u662f\u4f60\u7684\u6001\u5ea6\uff01
p143
sVRemarkPYInitial
p144
g52
sVContactFlag
p145
I3
sVUin
p146
I0
sVNickName
p147
V\u6c34\u671b\u4e91\u7a7f
p148
sVAppAccountFlag
p149
I0
sVVerifyFlag
p150
I0
sVRemarkPYQuanPin
p151
g52
sVHeadImgUrl
p152
V/cgi-bin/mmwebwx-bin/webwxgeticon?seq=656870815&username=@fa8636b2b4937796582a4fa9dbd006ac&skey=@crypt_6353e9d_c05b3ff3a1f7b536c85fc996d814cf64
p153
sVKeyWord
p154
VATY
p155
sVProvince
p156
V\u6c5f\u82cf
p157
sVPYInitial
p158
VSWYC
p159
sVRemarkName
p160
g52
sVIsOwner
p161
I0
sVSex
p162
I2
sVStarFriend
p163
I0
sVHideInputBarFlag
p164
I0
sVChatRoomId
p165
I0
sVEncryChatRoomId
p166
g52
sVAttrStatus
p167
I233407
sVStatues
p168
I0
stp169
Rp170
I1
bag34
(g38
g39
(dp171
VUserName
p172
V@bb036908dbc6a7220c9765d4b3851f1404631278b80f1af99687832a819a8711
p173
sVCity
p174
V\u65e0\u9521
p175
sVSnsFlag
p176
I49
sVDisplayName
p177
g52
sVUniFriend
p178
I0
sVMemberCount
p179
I0
sVOwnerUin
p180
I0
sVMemberList
p181
g50
sVAlias
p182
g52
sVPYQuanPin
p183
Vkangyanyangshengmeirongweilaoshi18362334829
p184
sVSignature
p185
g52
sVRemarkPYInitial
p186
g52
sVContactFlag
p187
I65537
sVUin
p188
I0
sVNickName
p189
V\u5eb7\u598d\u517b\u751f\u7f8e\u5bb9\u3001\u9b4f\u8001\u5e0818362334829
p190
sVAppAccountFlag
p191
I0
sVVerifyFlag
p192
I0
sVRemarkPYQuanPin
p193
g52
sVHeadImgUrl
p194
V/cgi-bin/mmwebwx-bin/webwxgeticon?seq=656873449&username=@bb036908dbc6a7220c9765d4b3851f1404631278b80f1af99687832a819a8711&skey=@crypt_6353e9d_c05b3ff3a1f7b536c85fc996d814cf64
p195
sVKeyWord
p196
g52
sVProvince
p197
V\u6c5f\u82cf
p198
sVPYInitial
p199
VKYYSMRWLS18362334829
p200
sVRemarkName
p201
g52
sVIsOwner
p202
I0
sVSex
p203
I2
sVStarFriend
p204
I0
sVHideInputBarFlag
p205
I0
sVChatRoomId
p206
I0
sVEncryChatRoomId
p207
g52
sVAttrStatus
p208
I98341
sVStatues
p209
I0
stp210
Rp211
I1
bag34
(g38
g39
(dp212
VUserName
p213
V@53eb2a44d5b9315dd14151ba782fd3d24644fe5290b64ed2d9c27c209efd8e57
p214
sVCity
p215
V\u676d\u5dde
p216
sVSnsFlag
p217
I1
sVDisplayName
p218
g52
sVUniFriend
p219
I0
sVMemberCount
p220
I0
sVOwnerUin
p221
I0
sVMemberList
p222
g50
sVAlias
p223
g52
sVPYQuanPin
p224
VWinnieniu
p225
sVSignature
p226
g52
sVRemarkPYInitial
p227
g52
sVContactFlag
p228
I3
sVUin
p229
I0
sVNickName
p230
VWinnie\u599e
p231
sVAppAccountFlag
p232
I0
sVVerifyFlag
p233
I0
sVRemarkPYQuanPin
p234
g52
sVHeadImgUrl
p235
V/cgi-bin/mmwebwx-bin/webwxgeticon?seq=656880568&username=@53eb2a44d5b9315dd14151ba782fd3d24644fe5290b64ed2d9c27c209efd8e57&skey=@crypt_6353e9d_c05b3ff3a1f7b536c85fc996d814cf64
p236
sVKeyWord
p237
g52
sVProvince
p238
V\u6d59\u6c5f
p239
sVPYInitial
p240
VWINNIEN
p241
sVRemarkName
p242
g52
sVIsOwner
p243
I0
sVSex
p244
I2
sVStarFriend
p245
I0
sVHideInputBarFlag
p246
I0
sVChatRoomId
p247
I0
sVEncryChatRoomId
p248
g52
sVAttrStatus
p249
I102585
sVStatues
p250
I0
stp251
Rp252
I1
bag34
(g38
g39
(dp253
VUserName
p254
V@410af832606e9abbe8392b3462bb18bc2ff0c1b5431cbfa289b8a05526344d7e
p255
sVCity
p256
V\u6dee\u5b89
p257
sVSnsFlag
p258
I1
sVDisplayName
p259
g52
sVUniFriend
p260
I0
sVMemberCount
p261
I0
sVOwnerUin
p262
I0
sVMemberList
p263
g50
sVAlias
p264
g52
sVPYQuanPin
p265
VMa
p266
sVSignature
p267
g52
sVRemarkPYInitial
p268
VLM
p269
sVContactFlag
p270
I3
sVUin
p271
I0
sVNickName
p272
VMa
p273
sVAppAccountFlag
p274
I0
sVVerifyFlag
p275
I0
sVRemarkPYQuanPin
p276
Vlaoma
p277
sVHeadImgUrl
p278
V/cgi-bin/mmwebwx-bin/webwxgeticon?seq=649411536&username=@410af832606e9abbe8392b3462bb18bc2ff0c1b5431cbfa289b8a05526344d7e&skey=@crypt_6353e9d_c05b3ff3a1f7b536c85fc996d814cf64
p279
sVKeyWord
p280
g52
sVProvince
p281
V\u6c5f\u82cf
p282
sVPYInitial
p283
VMA
p284
sVRemarkName
p285
V\u8001\u5988
p286
sVIsOwner
p287
I0
sVSex
p288
I1
sVStarFriend
p289
I0
sVHideInputBarFlag
p290
I0
sVChatRoomId
p291
I0
sVEncryChatRoomId
p292
g52
sVAttrStatus
p293
I4133
sVStatues
p294
I0
stp295
Rp296
I1
bag34
(g38
g39
(dp297
VUserName
p298
V@802859c55cf464993ec7d73f2ff4cf855725b316360e73613f3477b7f9c52110
p299
sVCity
p300
V\u5e38\u5dde
p301
sVSnsFlag
p302
I1
sVDisplayName
p303
g52
sVUniFriend
p304
I0
sVMemberCount
p305
I0
sVOwnerUin
p306
I0
sVMemberList
p307
g50
sVAlias
p308
g52
sVPYQuanPin
p309
Vhefangyinxiaojuxuxing
p310
sVSignature
p311
g52
sVRemarkPYInitial
p312
VCHX
p313
sVContactFlag
p314
I3
sVUin
p315
I0
sVNickName
p316
V\u4f55\u59a8\u541f\u5578\u4e14\u5f90\u884c
p317
sVAppAccountFlag
p318
I0
sVVerifyFlag
p319
I0
sVRemarkPYQuanPin
p320
Vchihuixiang
p321
sVHeadImgUrl
p322
V/cgi-bin/mmwebwx-bin/webwxgeticon?seq=656886300&username=@802859c55cf464993ec7d73f2ff4cf855725b316360e73613f3477b7f9c52110&skey=@crypt_6353e9d_c05b3ff3a1f7b536c85fc996d814cf64
p323
sVKeyWord
p324
g52
sVProvince
p325
V\u6c5f\u82cf
p326
sVPYInitial
p327
VHFYXJXX
p328
sVRemarkName
p329
V\u5403\u6167\u7fd4
p330
sVIsOwner
p331
I0
sVSex
p332
I1
sVStarFriend
p333
I0
sVHideInputBarFlag
p334
I0
sVChatRoomId
p335
I0
sVEncryChatRoomId
p336
g52
sVAttrStatus
p337
I102501
sVStatues
p338
I0
stp339
Rp340
I1
bag34
(g38
g39
(dp341
VUserName
p342
V@fbc4f5aea714c6bb08fef4d5bda3908863936f56453cf0923bed515d66279cc4
p343
sVCity
p344
V\u5357\u5cb8
p345
sVSnsFlag
p346
I1
sVDisplayName
p347
g52
sVUniFriend
p348
I0
sVMemberCount
p349
I0
sVOwnerUin
p350
I0
sVMemberList
p351
g50
sVAlias
p352
g52
sVPYQuanPin
p353
Vchuotong
p354
sVSignature
p355
V\u52aa\u529b\u5de5\u4f5c\uff0c\u505a\u4e00\u4e2a\u81ea\u4fe1\u7684get\u70b9
p356
sVRemarkPYInitial
p357
g52
sVContactFlag
p358
I3
sVUin
p359
I0
sVNickName
p360
V\u5a7c\u5f64
p361
sVAppAccountFlag
p362
I0
sVVerifyFlag
p363
I0
sVRemarkPYQuanPin
p364
g52
sVHeadImgUrl
p365
V/cgi-bin/mmwebwx-bin/webwxgeticon?seq=656874974&username=@fbc4f5aea714c6bb08fef4d5bda3908863936f56453cf0923bed515d66279cc4&skey=@crypt_6353e9d_c05b3ff3a1f7b536c85fc996d814cf64
p366
sVKeyWord
p367
g52
sVProvince
p368
V\u91cd\u5e86
p369
sVPYInitial
p370
VCT
p371
sVRemarkName
p372
g52
sVIsOwner
p373
I0
sVSex
p374
I2
sVStarFriend
p375
I0
sVHideInputBarFlag
p376
I0
sVChatRoomId
p377
I0
sVEncryChatRoomId
p378
g52
sVAttrStatus
p379
I102433
sVStatues
p380
I0
stp381
Rp382
I1
bag34
(g38
g39
(dp383
VUserName
p384
V@d72852b877a85247443200e4a8812ce1cbafaae43da6ad371cde40b53f3d71bb
p385
sVCity
p386
V\u5357\u4eac
p387
sVSnsFlag
p388
I1
sVDisplayName
p389
g52
sVUniFriend
p390
I0
sVMemberCount
p391
I0
sVOwnerUin
p392
I0
sVMemberList
p393
g50
sVAlias
p394
g52
sVPYQuanPin
p395
VAngle
p396
sVSignature
p397
V\u672a\u6765\u4e0d\u8fce\uff0c\u8fc7\u5f80\u4e0d\u604b\uff0c\u6d3b\u597d\u5f53\u4e0b\uff01
p398
sVRemarkPYInitial
p399
g52
sVContactFlag
p400
I3
sVUin
p401
I0
sVNickName
p402
VAngle~
p403
sVAppAccountFlag
p404
I0
sVVerifyFlag
p405
I0
sVRemarkPYQuanPin
p406
g52
sVHeadImgUrl
p407
V/cgi-bin/mmwebwx-bin/webwxgeticon?seq=656886397&username=@d72852b877a85247443200e4a8812ce1cbafaae43da6ad371cde40b53f3d71bb&skey=@crypt_6353e9d_c05b3ff3a1f7b536c85fc996d814cf64
p408
sVKeyWord
p409
g52
sVProvince
p410
V\u6c5f\u82cf
p411
sVPYInitial
p412
VANGLE
p413
sVRemarkName
p414
g52
sVIsOwner
p415
I0
sVSex
p416
I2
sVStarFriend
p417
I0
sVHideInputBarFlag
p418
I0
sVChatRoomId
p419
I0
sVEncryChatRoomId
p420
g52
sVAttrStatus
p421
I102437
sVStatues
p422
I0
stp423
Rp424
I1
bag34
(g38
g39
(dp425
VUserName
p426
V@115b995a3fcfa881e2d02af85b9da97b063f92c7cd48f3bdaed2d4f7b1978d8b
p427
sVCity
p428
V\u5e7f\u5dde
p429
sVSnsFlag
p430
I1
sVDisplayName
p431
g52
sVUniFriend
p432
I0
sVMemberCount
p433
I0
sVOwnerUin
p434
I0
sVMemberList
p435
g50
sVAlias
p436
g52
sVPYQuanPin
p437
Vwo
p438
sVSignature
p439
V\u7ed9
p440
sVRemarkPYInitial
p441
g52
sVContactFlag
p442
I3
sVUin
p443
I0
sVNickName
p444
V\u6211
p445
sVAppAccountFlag
p446
I0
sVVerifyFlag
p447
I0
sVRemarkPYQuanPin
p448
g52
sVHeadImgUrl
p449
V/cgi-bin/mmwebwx-bin/webwxgeticon?seq=656874692&username=@115b995a3fcfa881e2d02af85b9da97b063f92c7cd48f3bdaed2d4f7b1978d8b&skey=@crypt_6353e9d_c05b3ff3a1f7b536c85fc996d814cf64
p450
sVKeyWord
p451
g52
sVProvince
p452
V\u5e7f\u4e1c
p453
sVPYInitial
p454
VW
p455
sVRemarkName
p456
g52
sVIsOwner
p457
I0
sVSex
p458
I2
sVStarFriend
p459
I0
sVHideInputBarFlag
p460
I0
sVChatRoomId
p461
I0
sVEncryChatRoomId
p462
g52
sVAttrStatus
p463
I4133
sVStatues
p464
I0
stp465
Rp466
I1
bag34
(g38
g39
(dp467
VUserName
p468
V@366a6215e2eed844983d35a71060c302420d814f47c066f99f7fefc63b76f34c
p469
sVCity
p470
V\u5b9d\u5c71
p471
sVSnsFlag
p472
I17
sVDisplayName
p473
g52
sVUniFriend
p474
I0
sVMemberCount
p475
I0
sVOwnerUin
p476
I0
sVMemberList
p477
g50
sVAlias
p478
g52
sVPYQuanPin
p479
Vyongheng
p480
sVSignature
p481
g52
sVRemarkPYInitial
p482
g52
sVContactFlag
p483
I3
sVUin
p484
I0
sVNickName
p485
V\u6c38\u6052
p486
sVAppAccountFlag
p487
I0
sVVerifyFlag
p488
I0
sVRemarkPYQuanPin
p489
g52
sVHeadImgUrl
p490
V/cgi-bin/mmwebwx-bin/webwxgeticon?seq=656890678&username=@366a6215e2eed844983d35a71060c302420d814f47c066f99f7fefc63b76f34c&skey=@crypt_6353e9d_c05b3ff3a1f7b536c85fc996d814cf64
p491
sVKeyWord
p492
g52
sVProvince
p493
V\u4e0a\u6d77
p494
sVPYInitial
p495
VYH
p496
sVRemarkName
p497
g52
sVIsOwner
p498
I0
sVSex
p499
I1
sVStarFriend
p500
I0
sVHideInputBarFlag
p501
I0
sVChatRoomId
p502
I0
sVEncryChatRoomId
p503
g52
sVAttrStatus
p504
I112741
sVStatues
p505
I0
stp506
Rp507
I1
bag34
(g38
g39
(dp508
VUserName
p509
V@60f95e5523c5e5e7b9576b1d126ec383
p510
sVCity
p511
V\u5357\u4eac
p512
sVSnsFlag
p513
I49
sVDisplayName
p514
g52
sVUniFriend
p515
I0
sVMemberCount
p516
I0
sVOwnerUin
p517
I0
sVMemberList
p518
g50
sVAlias
p519
g52
sVPYQuanPin
p520
Vhualidebuxuyaoxieshi
p521
sVSignature
p522
V\u770b\u900f\u4eba\u60c5\u5374\u4e0d\u4e16\u6545\uff0c\u892a\u53bb\u7a1a\u5ae9\u4ecd\u65e7\u5355\u7eaf\u3002\u3002\u3002
p523
sVRemarkPYInitial
p524
VZQ
p525
sVContactFlag
p526
I65539
sVUin
p527
I0
sVNickName
p528
V\u534e\u4e3d\u5f97\u4e0d\u9700\u8981\u89e3\u91ca
p529
sVAppAccountFlag
p530
I0
sVVerifyFlag
p531
I0
sVRemarkPYQuanPin
p532
Vzhengquan
p533
sVHeadImgUrl
p534
V/cgi-bin/mmwebwx-bin/webwxgeticon?seq=667330370&username=@60f95e5523c5e5e7b9576b1d126ec383&skey=@crypt_6353e9d_c05b3ff3a1f7b536c85fc996d814cf64
p535
sVKeyWord
p536
Vlis
p537
sVProvince
p538
V\u6c5f\u82cf
p539
sVPYInitial
p540
VHLDBXYXS
p541
sVRemarkName
p542
V\u8bc1\u5238
p543
sVIsOwner
p544
I0
sVSex
p545
I1
sVStarFriend
p546
I0
sVHideInputBarFlag
p547
I0
sVChatRoomId
p548
I0
sVEncryChatRoomId
p549
g52
sVAttrStatus
p550
I102439
sVStatues
p551
I0
stp552
Rp553
I1
bag34
(g38
g39
(dp554
VUserName
p555
V@c6159927ad05f0aae9c5b617d7bad645ff1f95bebc32be579362ea9a6982d266
p556
sVCity
p557
V\u626c\u5dde
p558
sVSnsFlag
p559
I1
sVDisplayName
p560
g52
sVUniFriend
p561
I0
sVMemberCount
p562
I0
sVOwnerUin
p563
I0
sVMemberList
p564
g50
sVAlias
p565
g52
sVPYQuanPin
p566
Vwencheng
p567
sVSignature
p568
Vno pain,no gain.
p569
sVRemarkPYInitial
p570
VXWC
p571
sVContactFlag
p572
I3
sVUin
p573
I0
sVNickName
p574
V\u554f\u627f
p575
sVAppAccountFlag
p576
I0
sVVerifyFlag
p577
I0
sVRemarkPYQuanPin
p578
Vxuwencheng
p579
sVHeadImgUrl
p580
V/cgi-bin/mmwebwx-bin/webwxgeticon?seq=651750698&username=@c6159927ad05f0aae9c5b617d7bad645ff1f95bebc32be579362ea9a6982d266&skey=@crypt_6353e9d_c05b3ff3a1f7b536c85fc996d814cf64
p581
sVKeyWord
p582
g52
sVProvince
p583
V\u6c5f\u82cf
p584
sVPYInitial
p585
VWC
p586
sVRemarkName
p587
V\u5f90\u6587\u6210
p588
sVIsOwner
p589
I0
sVSex
p590
I1
sVStarFriend
p591
I0
sVHideInputBarFlag
p592
I0
sVChatRoomId
p593
I0
sVEncryChatRoomId
p594
g52
sVAttrStatus
p595
I135269
sVStatues
p596
I0
stp597
Rp598
I1
bag34
(g38
g39
(dp599
VUserName
p600
V@b40236254051abb37d7413a3258a82f04f94187417d7e7dc397bf0569b2a7a3a
p601
sVCity
p602
V\u6dee\u5b89
p603
sVSnsFlag
p604
I17
sVDisplayName
p605
g52
sVUniFriend
p606
I0
sVMemberCount
p607
I0
sVOwnerUin
p608
I0
sVMemberList
p609
g50
sVAlias
p610
g52
sVPYQuanPin
p611
Vlaowu
p612
sVSignature
p613
g52
sVRemarkPYInitial
p614
g52
sVContactFlag
p615
I3
sVUin
p616
I0
sVNickName
p617
V\u8001\u4e94
p618
sVAppAccountFlag
p619
I0
sVVerifyFlag
p620
I0
sVRemarkPYQuanPin
p621
g52
sVHeadImgUrl
p622
V/cgi-bin/mmwebwx-bin/webwxgeticon?seq=668497684&username=@b40236254051abb37d7413a3258a82f04f94187417d7e7dc397bf0569b2a7a3a&skey=@crypt_6353e9d_c05b3ff3a1f7b536c85fc996d814cf64
p623
sVKeyWord
p624
g52
sVProvince
p625
V\u6c5f\u82cf
p626
sVPYInitial
p627
VLW
p628
sVRemarkName
p629
g52
sVIsOwner
p630
I0
sVSex
p631
I1
sVStarFriend
p632
I0
sVHideInputBarFlag
p633
I0
sVChatRoomId
p634
I0
sVEncryChatRoomId
p635
g52
sVAttrStatus
p636
I4157
sVStatues
p637
I0
stp638
Rp639
I1
bag34
(g38
g39
(dp640
VUserName
p641
V@fafbf49467047a72d0ed56335d1b35abacb78f64a1f3404b6d828e06ff2c046e
p642
sVCity
p643
V\u76d8\u9526
p644
sVSnsFlag
p645
I1
sVDisplayName
p646
g52
sVUniFriend
p647
I0
sVMemberCount
p648
I0
sVOwnerUin
p649
I0
sVMemberList
p650
g50
sVAlias
p651
g52
sVPYQuanPin
p652
Vpanjinanqiernvxing
p653
sVSignature
p654
V\u6211\u6ca1\u6709\u8d2a\u5a6a\uff0c\u4f46\u6211\u7fa1\u6155\u6d77\u67af\u77f3\u70c2
p655
sVRemarkPYInitial
p656
g52
sVContactFlag
p657
I65539
sVUin
p658
I0
sVNickName
p659
V\u76d8\u9526\u5b89\u742a\u513f\u5973\u6027
p660
sVAppAccountFlag
p661
I0
sVVerifyFlag
p662
I0
sVRemarkPYQuanPin
p663
g52
sVHeadImgUrl
p664
V/cgi-bin/mmwebwx-bin/webwxgeticon?seq=656891306&username=@fafbf49467047a72d0ed56335d1b35abacb78f64a1f3404b6d828e06ff2c046e&skey=@crypt_6353e9d_c05b3ff3a1f7b536c85fc996d814cf64
p665
sVKeyWord
p666
g52
sVProvince
p667
V\u8fbd\u5b81
p668
sVPYInitial
p669
VPJAQENX
p670
sVRemarkName
p671
g52
sVIsOwner
p672
I0
sVSex
p673
I2
sVStarFriend
p674
I0
sVHideInputBarFlag
p675
I0
sVChatRoomId
p676
I0
sVEncryChatRoomId
p677
g52
sVAttrStatus
p678
I236221
sVStatues
p679
I0
stp680
Rp681
I1
bag34
(g38
g39
(dp682
VUserName
p683
V@0222ed56baa0ebab8db059140a67cb28af1e0a7948597c09e4d0c36bb234294f
p684
sVCity
p685
V\u76ca\u9633
p686
sVSnsFlag
p687
I17
sVDisplayName
p688
g52
sVUniFriend
p689
I0
sVMemberCount
p690
I0
sVOwnerUin
p691
I0
sVMemberList
p692
g50
sVAlias
p693
g52
sVPYQuanPin
p694
Vyandeqiang
p695
sVSignature
p696
g52
sVRemarkPYInitial
p697
VXQ
p698
sVContactFlag
p699
I3
sVUin
p700
I0
sVNickName
p701
V\u4e25\u5fb7\u5f3a
p702
sVAppAccountFlag
p703
I0
sVVerifyFlag
p704
I0
sVRemarkPYQuanPin
p705
Vxiaoqiang
p706
sVHeadImgUrl
p707
V/cgi-bin/mmwebwx-bin/webwxgeticon?seq=668508756&username=@0222ed56baa0ebab8db059140a67cb28af1e0a7948597c09e4d0c36bb234294f&skey=@crypt_6353e9d_c05b3ff3a1f7b536c85fc996d814cf64
p708
sVKeyWord
p709
g52
sVProvince
p710
V\u6e56\u5357
p711
sVPYInitial
p712
VYDQ
p713
sVRemarkName
p714
V\u5c0f\u5f3a
p715
sVIsOwner
p716
I0
sVSex
p717
I1
sVStarFriend
p718
I0
sVHideInputBarFlag
p719
I0
sVChatRoomId
p720
I0
sVEncryChatRoomId
p721
g52
sVAttrStatus
p722
I33656871
sVStatues
p723
I0
stp724
Rp725
I1
bag34
(g38
g39
(dp726
VUserName
p727
V@a906ea84466d4c563d50e3029299537adeeb1b474edacdc8c4528579c162c894
p728
sVCity
p729
g52
sVSnsFlag
p730
I0
sVDisplayName
p731
g52
sVUniFriend
p732
I0
sVMemberCount
p733
I0
sVOwnerUin
p734
I0
sVMemberList
p735
g50
sVAlias
p736
g52
sVPYQuanPin
p737
Vhuanxiangrensheng
p738
sVSignature
p739
V\u68a6
p740
sVRemarkPYInitial
p741
g52
sVContactFlag
p742
I3
sVUin
p743
I0
sVNickName
p744
V\u5e7b\u60f3\u4eba\u751f
p745
sVAppAccountFlag
p746
I0
sVVerifyFlag
p747
I0
sVRemarkPYQuanPin
p748
g52
sVHeadImgUrl
p749
V/cgi-bin/mmwebwx-bin/webwxgeticon?seq=656875396&username=@a906ea84466d4c563d50e3029299537adeeb1b474edacdc8c4528579c162c894&skey=@crypt_6353e9d_c05b3ff3a1f7b536c85fc996d814cf64
p750
sVKeyWord
p751
g52
sVProvince
p752
V\u6c5f\u82cf
p753
sVPYInitial
p754
VHXRS
p755
sVRemarkName
p756
g52
sVIsOwner
p757
I0
sVSex
p758
I1
sVStarFriend
p759
I0
sVHideInputBarFlag
p760
I0
sVChatRoomId
p761
I0
sVEncryChatRoomId
p762
g52
sVAttrStatus
p763
I4133
sVStatues
p764
I0
stp765
Rp766
I1
bag34
(g38
g39
(dp767
VUserName
p768
V@77f3cd0f2abd865e065406f638bd5a0d
p769
sVCity
p770
V\u5357\u901a
p771
sVSnsFlag
p772
I49
sVDisplayName
p773
g52
sVUniFriend
p774
I0
sVMemberCount
p775
I0
sVOwnerUin
p776
I0
sVMemberList
p777
g50
sVAlias
p778
g52
sVPYQuanPin
p779
Vlemonlyp
p780
sVSignature
p781
g52
sVRemarkPYInitial
p782
VLYP
p783
sVContactFlag
p784
I3
sVUin
p785
I0
sVNickName
p786
Vlemonlyp
p787
sVAppAccountFlag
p788
I0
sVVerifyFlag
p789
I0
sVRemarkPYQuanPin
p790
Vlinyunpeng
p791
sVHeadImgUrl
p792
V/cgi-bin/mmwebwx-bin/webwxgeticon?seq=668513872&username=@77f3cd0f2abd865e065406f638bd5a0d&skey=@crypt_6353e9d_c05b3ff3a1f7b536c85fc996d814cf64
p793
sVKeyWord
p794
Vlin
p795
sVProvince
p796
V\u6c5f\u82cf
p797
sVPYInitial
p798
VLEMONLYP
p799
sVRemarkName
p800
V\u6797\u4e91\u9e4f
p801
sVIsOwner
p802
I0
sVSex
p803
I1
sVStarFriend
p804
I0
sVHideInputBarFlag
p805
I0
sVChatRoomId
p806
I0
sVEncryChatRoomId
p807
g52
sVAttrStatus
p808
I104615
sVStatues
p809
I0
stp810
Rp811
I1
bag34
(g38
g39
(dp812
VUserName
p813
V@be54e15effa93db0ff9ef5e4e68fc509540533ece96cfd257a4a6cc462ddaf0d
p814
sVCity
p815
V\u5357\u4eac
p816
sVSnsFlag
p817
I17
sVDisplayName
p818
g52
sVUniFriend
p819
I0
sVMemberCount
p820
I0
sVOwnerUin
p821
I0
sVMemberList
p822
g50
sVAlias
p823
g52
sVPYQuanPin
p824
Vjieaobuxun
p825
sVSignature
p826
V\u7231\u4f60\uff0c\u4e0d\u9700\u8981\u7406\u7531\uff01\uff01
p827
sVRemarkPYInitial
p828
g52
sVContactFlag
p829
I3
sVUin
p830
I0
sVNickName
p831
V\u201c\u5091\u201d\u9a9c\u4e0d\u9a6f
p832
sVAppAccountFlag
p833
I0
sVVerifyFlag
p834
I0
sVRemarkPYQuanPin
p835
g52
sVHeadImgUrl
p836
V/cgi-bin/mmwebwx-bin/webwxgeticon?seq=656887939&username=@be54e15effa93db0ff9ef5e4e68fc509540533ece96cfd257a4a6cc462ddaf0d&skey=@crypt_6353e9d_c05b3ff3a1f7b536c85fc996d814cf64
p837
sVKeyWord
p838
g52
sVProvince
p839
V\u6c5f\u82cf
p840
sVPYInitial
p841
VJABX
p842
sVRemarkName
p843
g52
sVIsOwner
p844
I0
sVSex
p845
I1
sVStarFriend
p846
I0
sVHideInputBarFlag
p847
I0
sVChatRoomId
p848
I0
sVEncryChatRoomId
p849
g52
sVAttrStatus
p850
I102439
sVStatues
p851
I0
stp852
Rp853
I1
bag34
(g38
g39
(dp854
VUserName
p855
V@291b49391425871452956d230baaab7343bea42ce03f500d469ea3d86094ae79
p856
sVCity
p857
g52
sVSnsFlag
p858
I1
sVDisplayName
p859
g52
sVUniFriend
p860
I0
sVMemberCount
p861
I0
sVOwnerUin
p862
I0
sVMemberList
p863
g50
sVAlias
p864
g52
sVPYQuanPin
p865
Vsanshengyouyeming
p866
sVSignature
p867
g52
sVRemarkPYInitial
p868
g52
sVContactFlag
p869
I3
sVUin
p870
I0
sVNickName
p871
V\u4e09\u751f\u6709\u7237\u540d
p872
sVAppAccountFlag
p873
I0
sVVerifyFlag
p874
I0
sVRemarkPYQuanPin
p875
g52
sVHeadImgUrl
p876
V/cgi-bin/mmwebwx-bin/webwxgeticon?seq=656887729&username=@291b49391425871452956d230baaab7343bea42ce03f500d469ea3d86094ae79&skey=@crypt_6353e9d_c05b3ff3a1f7b536c85fc996d814cf64
p877
sVKeyWord
p878
g52
sVProvince
p879
g52
sVPYInitial
p880
VSSYYM
p881
sVRemarkName
p882
g52
sVIsOwner
p883
I0
sVSex
p884
I0
sVStarFriend
p885
I0
sVHideInputBarFlag
p886
I0
sVChatRoomId
p887
I0
sVEncryChatRoomId
p888
g52
sVAttrStatus
p889
I136037
sVStatues
p890
I0
stp891
Rp892
I1
bag34
(g38
g39
(dp893
VUserName
p894
V@17ed4912f1a669b3f7bdcccd6071a5da1dae97fff12b0375ef39aa2e9d85a7c7
p895
sVCity
p896
V\u5357\u4eac
p897
sVSnsFlag
p898
I49
sVDisplayName
p899
g52
sVUniFriend
p900
I0
sVMemberCount
p901
I0
sVOwnerUin
p902
I0
sVMemberList
p903
g50
sVAlias
p904
g52
sVPYQuanPin
p905
Vxiaoxiaoyong
p906
sVSignature
p907
V\u4f9d\u9760\u7684\u5f00\u59cb
p908
sVRemarkPYInitial
p909
VZXY
p910
sVContactFlag
p911
I3
sVUin
p912
I0
sVNickName
p913
V\u5c0f\u5c0f\u52c7
p914
sVAppAccountFlag
p915
I0
sVVerifyFlag
p916
I0
sVRemarkPYQuanPin
p917
Vzhangxiaoyong
p918
sVHeadImgUrl
p919
V/cgi-bin/mmwebwx-bin/webwxgeticon?seq=668081091&username=@17ed4912f1a669b3f7bdcccd6071a5da1dae97fff12b0375ef39aa2e9d85a7c7&skey=@crypt_6353e9d_c05b3ff3a1f7b536c85fc996d814cf64
p920
sVKeyWord
p921
g52
sVProvince
p922
V\u6c5f\u82cf
p923
sVPYInitial
p924
VXXY
p925
sVRemarkName
p926
V\u5f20\u5c0f\u52c7
p927
sVIsOwner
p928
I0
sVSex
p929
I1
sVStarFriend
p930
I0
sVHideInputBarFlag
p931
I0
sVChatRoomId
p932
I0
sVEncryChatRoomId
p933
g52
sVAttrStatus
p934
I102589
sVStatues
p935
I0
stp936
Rp937
I1
bag34
(g38
g39
(dp938
VUserName
p939
V@9b858b274455a6e8f51e5102082e8a50
p940
sVCity
p941
V\u5357\u4eac
p942
sVSnsFlag
p943
I17
sVDisplayName
p944
g52
sVUniFriend
p945
I0
sVMemberCount
p946
I0
sVOwnerUin
p947
I0
sVMemberList
p948
g50
sVAlias
p949
g52
sVPYQuanPin
p950
Vwoxingyu
p951
sVSignature
p952
g52
sVRemarkPYInitial
p953
g52
sVContactFlag
p954
I3
sVUin
p955
I0
sVNickName
p956
V\u6211\u59d3\u55bb
p957
sVAppAccountFlag
p958
I0
sVVerifyFlag
p959
I0
sVRemarkPYQuanPin
p960
g52
sVHeadImgUrl
p961
V/cgi-bin/mmwebwx-bin/webwxgeticon?seq=668517206&username=@9b858b274455a6e8f51e5102082e8a50&skey=@crypt_6353e9d_c05b3ff3a1f7b536c85fc996d814cf64
p962
sVKeyWord
p963
Vwox
p964
sVProvince
p965
V\u6c5f\u82cf
p966
sVPYInitial
p967
VWXY
p968
sVRemarkName
p969
g52
sVIsOwner
p970
I0
sVSex
p971
I1
sVStarFriend
p972
I0
sVHideInputBarFlag
p973
I0
sVChatRoomId
p974
I0
sVEncryChatRoomId
p975
g52
sVAttrStatus
p976
I103
sVStatues
p977
I0
stp978
Rp979
I1
bag34
(g38
g39
(dp980
VUserName
p981
V@1a5a7b4e9a694af910e2e73b0fb58c32329abd6101d730bb9ee727a0d22e4cfd
p982
sVCity
p983
g52
sVSnsFlag
p984
I1
sVDisplayName
p985
g52
sVUniFriend
p986
I0
sVMemberCount
p987
I0
sVOwnerUin
p988
I0
sVMemberList
p989
g50
sVAlias
p990
g52
sVPYQuanPin
p991
VVictoria
p992
sVSignature
p993
g52
sVRemarkPYInitial
p994
VLHDC
p995
sVContactFlag
p996
I3
sVUin
p997
I0
sVNickName
p998
VVictoria
p999
sVAppAccountFlag
p1000
I0
sVVerifyFlag
p1001
I0
sVRemarkPYQuanPin
p1002
Vlianghaidechan
p1003
sVHeadImgUrl
p1004
V/cgi-bin/mmwebwx-bin/webwxgeticon?seq=668520015&username=@1a5a7b4e9a694af910e2e73b0fb58c32329abd6101d730bb9ee727a0d22e4cfd&skey=@crypt_6353e9d_c05b3ff3a1f7b536c85fc996d814cf64
p1005
sVKeyWord
p1006
g52
sVProvince
p1007
V\u5409\u6797
p1008
sVPYInitial
p1009
VVICTORIA
p1010
sVRemarkName
p1011
V\u6881\u6d77\u5730\u4ea7
p1012
sVIsOwner
p1013
I0
sVSex
p1014
I2
sVStarFriend
p1015
I0
sVHideInputBarFlag
p1016
I0
sVChatRoomId
p1017
I0
sVEncryChatRoomId
p1018
g52
sVAttrStatus
p1019
I233829
sVStatues
p1020
I0
stp1021
Rp1022
I1
bag34
(g38
g39
(dp1023
VUserName
p1024
V@70db144812f51b92fe5dbc64dfbbd631ec8ce67c392378a6ec1e33b942632a81
p1025
sVCity
p1026
V\u798f\u5dde
p1027
sVSnsFlag
p1028
I17
sVDisplayName
p1029
g52
sVUniFriend
p1030
I0
sVMemberCount
p1031
I0
sVOwnerUin
p1032
I0
sVMemberList
p1033
g50
sVAlias
p1034
g52
sVPYQuanPin
p1035
Vzixi
p1036
sVSignature
p1037
V\u4e0d\u5fd8\u521d\u5fc3
p1038
sVRemarkPYInitial
p1039
g52
sVContactFlag
p1040
I3
sVUin
p1041
I0
sVNickName
p1042
V\u6893\u5915
p1043
sVAppAccountFlag
p1044
I0
sVVerifyFlag
p1045
I0
sVRemarkPYQuanPin
p1046
g52
sVHeadImgUrl
p1047
V/cgi-bin/mmwebwx-bin/webwxgeticon?seq=668519329&username=@70db144812f51b92fe5dbc64dfbbd631ec8ce67c392378a6ec1e33b942632a81&skey=@crypt_6353e9d_c05b3ff3a1f7b536c85fc996d814cf64
p1048
sVKeyWord
p1049
g52
sVProvince
p1050
V\u798f\u5efa
p1051
sVPYInitial
p1052
VZX
p1053
sVRemarkName
p1054
g52
sVIsOwner
p1055
I0
sVSex
p1056
I2
sVStarFriend
p1057
I0
sVHideInputBarFlag
p1058
I0
sVChatRoomId
p1059
I0
sVEncryChatRoomId
p1060
g52
sVAttrStatus
p1061
I4605
sVStatues
p1062
I0
stp1063
Rp1064
I1
bag34
(g38
g39
(dp1065
VUserName
p1066
V@917afcac1f7fd6a0dea7890aa0e58cd3e828dbc453b16e5f59585a99bffae508
p1067
sVCity
p1068
V\u5e38\u5dde
p1069
sVSnsFlag
p1070
I17
sVDisplayName
p1071
g52
sVUniFriend
p1072
I0
sVMemberCount
p1073
I0
sVOwnerUin
p1074
I0
sVMemberList
p1075
g50
sVAlias
p1076
g52
sVPYQuanPin
p1077
Vxulingdan
p1078
sVSignature
p1079
g52
sVRemarkPYInitial
p1080
g52
sVContactFlag
p1081
I3
sVUin
p1082
I0
sVNickName
p1083
V\u5f90\u73b2\u4e39
p1084
sVAppAccountFlag
p1085
I0
sVVerifyFlag
p1086
I0
sVRemarkPYQuanPin
p1087
g52
sVHeadImgUrl
p1088
V/cgi-bin/mmwebwx-bin/webwxgeticon?seq=668521853&username=@917afcac1f7fd6a0dea7890aa0e58cd3e828dbc453b16e5f59585a99bffae508&skey=@crypt_6353e9d_c05b3ff3a1f7b536c85fc996d814cf64
p1089
sVKeyWord
p1090
g52
sVProvince
p1091
V\u6c5f\u82cf
p1092
sVPYInitial
p1093
VXLD
p1094
sVRemarkName
p1095
g52
sVIsOwner
p1096
I0
sVSex
p1097
I2
sVStarFriend
p1098
I0
sVHideInputBarFlag
p1099
I0
sVChatRoomId
p1100
I0
sVEncryChatRoomId
p1101
g52
sVAttrStatus
p1102
I4197
sVStatues
p1103
I0
stp1104
Rp1105
I1
bag34
(g38
g39
(dp1106
VUserName
p1107
V@3c5f562520ebdc579d8f59687e6cf4d19818cf001cbe9fc360991bdb2c2d6e40
p1108
sVCity
p1109
g52
sVSnsFlag
p1110
I17
sVDisplayName
p1111
g52
sVUniFriend
p1112
I0
sVMemberCount
p1113
I0
sVOwnerUin
p1114
I0
sVMemberList
p1115
g50
sVAlias
p1116
g52
sVPYQuanPin
p1117
Vlalalalalala
p1118
sVSignature
p1119
VEscape,\u9003\u3052
p1120
sVRemarkPYInitial
p1121
g52
sVContactFlag
p1122
I3
sVUin
p1123
I0
sVNickName
p1124
V\u5566\u5566\u5566\u5566\u5566\u5566
p1125
sVAppAccountFlag
p1126
I0
sVVerifyFlag
p1127
I0
sVRemarkPYQuanPin
p1128
g52
sVHeadImgUrl
p1129
V/cgi-bin/mmwebwx-bin/webwxgeticon?seq=668513884&username=@3c5f562520ebdc579d8f59687e6cf4d19818cf001cbe9fc360991bdb2c2d6e40&skey=@crypt_6353e9d_c05b3ff3a1f7b536c85fc996d814cf64
p1130
sVKeyWord
p1131
g52
sVProvince
p1132
VKanagawa
p1133
sVPYInitial
p1134
VLLLLLL
p1135
sVRemarkName
p1136
g52
sVIsOwner
p1137
I0
sVSex
p1138
I2
sVStarFriend
p1139
I0
sVHideInputBarFlag
p1140
I0
sVChatRoomId
p1141
I0
sVEncryChatRoomId
p1142
g52
sVAttrStatus
p1143
I102501
sVStatues
p1144
I0
stp1145
Rp1146
I1
bag34
(g38
g39
(dp1147
VUserName
p1148
V@31752f4ad84fb22d7b27783d40f4fabf06f27cac565c50c3676042ab59b32e6d
p1149
sVCity
p1150
g52
sVSnsFlag
p1151
I17
sVDisplayName
p1152
g52
sVUniFriend
p1153
I0
sVMemberCount
p1154
I0
sVOwnerUin
p1155
I0
sVMemberList
p1156
g50
sVAlias
p1157
g52
sVPYQuanPin
p1158
Vbumingzeyi
p1159
sVSignature
p1160
g52
sVRemarkPYInitial
p1161
VCXM
p1162
sVContactFlag
p1163
I3
sVUin
p1164
I0
sVNickName
p1165
V\u4e0d\u9e23\u5219\u5df2
p1166
sVAppAccountFlag
p1167
I0
sVVerifyFlag
p1168
I0
sVRemarkPYQuanPin
p1169
Vchenxiaoming
p1170
sVHeadImgUrl
p1171
V/cgi-bin/mmwebwx-bin/webwxgeticon?seq=668523709&username=@31752f4ad84fb22d7b27783d40f4fabf06f27cac565c50c3676042ab59b32e6d&skey=@crypt_6353e9d_c05b3ff3a1f7b536c85fc996d814cf64
p1172
sVKeyWord
p1173
g52
sVProvince
p1174
V\u6c5f\u82cf
p1175
sVPYInitial
p1176
VBMZY
p1177
sVRemarkName
p1178
V\u9648\u6653\u9e23
p1179
sVIsOwner
p1180
I0
sVSex
p1181
I2
sVStarFriend
p1182
I0
sVHideInputBarFlag
p1183
I0
sVChatRoomId
p1184
I0
sVEncryChatRoomId
p1185
g52
sVAttrStatus
p1186
I110629
sVStatues
p1187
I0
stp1188
Rp1189
I1
bag34
(g38
g39
(dp1190
VUserName
p1191
V@4f357933da15dad74844d292f4daecd98745c8cffbd72643c2b62ef89e2cd142
p1192
sVCity
p1193
g52
sVSnsFlag
p1194
I1
sVDisplayName
p1195
g52
sVUniFriend
p1196
I0
sVMemberCount
p1197
I0
sVOwnerUin
p1198
I0
sVMemberList
p1199
g50
sVAlias
p1200
g52
sVPYQuanPin
p1201
Vzuimeidehenji
p1202
sVSignature
p1203
g52
sVRemarkPYInitial
p1204
VLYY
p1205
sVContactFlag
p1206
I3
sVUin
p1207
I0
sVNickName
p1208
V\u6700\u7f8e\u7684\u75d5\u8ff9
p1209
sVAppAccountFlag
p1210
I0
sVVerifyFlag
p1211
I0
sVRemarkPYQuanPin
p1212
Vliuyaoying
p1213
sVHeadImgUrl
p1214
V/cgi-bin/mmwebwx-bin/webwxgeticon?seq=668524921&username=@4f357933da15dad74844d292f4daecd98745c8cffbd72643c2b62ef89e2cd142&skey=@crypt_6353e9d_c05b3ff3a1f7b536c85fc996d814cf64
p1215
sVKeyWord
p1216
g52
sVProvince
p1217
g52
sVPYInitial
p1218
VZMDHJ
p1219
sVRemarkName
p1220
V\u5218\u7476\u83b9
p1221
sVIsOwner
p1222
I0
sVSex
p1223
I0
sVStarFriend
p1224
I0
sVHideInputBarFlag
p1225
I0
sVChatRoomId
p1226
I0
sVEncryChatRoomId
p1227
g52
sVAttrStatus
p1228
I4133
sVStatues
p1229
I0
stp1230
Rp1231
I1
bag34
(g38
g39
(dp1232
VUserName
p1233
V@fbf4d99e2789e6928293079eec0a0779
p1234
sVCity
p1235
V\u5357\u4eac
p1236
sVSnsFlag
p1237
I49
sVDisplayName
p1238
g52
sVUniFriend
p1239
I0
sVMemberCount
p1240
I0
sVOwnerUin
p1241
I0
sVMemberList
p1242
g50
sVAlias
p1243
g52
sVPYQuanPin
p1244
Vwyz
p1245
sVSignature
p1246
g52
sVRemarkPYInitial
p1247
g52
sVContactFlag
p1248
I3
sVUin
p1249
I0
sVNickName
p1250
Vwyz
p1251
sVAppAccountFlag
p1252
I0
sVVerifyFlag
p1253
I0
sVRemarkPYQuanPin
p1254
g52
sVHeadImgUrl
p1255
V/cgi-bin/mmwebwx-bin/webwxgeticon?seq=668518861&username=@fbf4d99e2789e6928293079eec0a0779&skey=@crypt_6353e9d_c05b3ff3a1f7b536c85fc996d814cf64
p1256
sVKeyWord
p1257
Vwuy
p1258
sVProvince
p1259
V\u6c5f\u82cf
p1260
sVPYInitial
p1261
VWYZ
p1262
sVRemarkName
p1263
g52
sVIsOwner
p1264
I0
sVSex
p1265
I1
sVStarFriend
p1266
I0
sVHideInputBarFlag
p1267
I0
sVChatRoomId
p1268
I0
sVEncryChatRoomId
p1269
g52
sVAttrStatus
p1270
I235559
sVStatues
p1271
I0
stp1272
Rp1273
I1
bag34
(g38
g39
(dp1274
VUserName
p1275
V@850853d514ad5dd211ce88b7dd9db6da829c5ee2efe0c8e7b1726f6f085152f2
p1276
sVCity
p1277
V\u6cf0\u5dde
p1278
sVSnsFlag
p1279
I17
sVDisplayName
p1280
g52
sVUniFriend
p1281
I0
sVMemberCount
p1282
I0
sVOwnerUin
p1283
I0
sVMemberList
p1284
g50
sVAlias
p1285
g52
sVPYQuanPin
p1286
Vlikelike
p1287
sVSignature
p1288
V\u542b\u6cea\u64ad\u79cd\u7684\u4eba\u4e00\u5b9a\u4f1a\u542b\u7b11\u800c\u83b7!
p1289
sVRemarkPYInitial
p1290
g52
sVContactFlag
p1291
I3
sVUin
p1292
I0
sVNickName
p1293
Vlike\u68a8\u53ef
p1294
sVAppAccountFlag
p1295
I0
sVVerifyFlag
p1296
I0
sVRemarkPYQuanPin
p1297
g52
sVHeadImgUrl
p1298
V/cgi-bin/mmwebwx-bin/webwxgeticon?seq=668514243&username=@850853d514ad5dd211ce88b7dd9db6da829c5ee2efe0c8e7b1726f6f085152f2&skey=@crypt_6353e9d_c05b3ff3a1f7b536c85fc996d814cf64
p1299
sVKeyWord
p1300
g52
sVProvince
p1301
V\u6c5f\u82cf
p1302
sVPYInitial
p1303
VLIKELK
p1304
sVRemarkName
p1305
g52
sVIsOwner
p1306
I0
sVSex
p1307
I2
sVStarFriend
p1308
I0
sVHideInputBarFlag
p1309
I0
sVChatRoomId
p1310
I0
sVEncryChatRoomId
p1311
g52
sVAttrStatus
p1312
I110695
sVStatues
p1313
I0
stp1314
Rp1315
I1
bag34
(g38
g39
(dp1316
VUserName
p1317
V@168e53ee8af925f0b6e374aaeb94257589743cae08243e4abd525aafcfe61e2c
p1318
sVCity
p1319
V\u5357\u4eac
p1320
sVSnsFlag
p1321
I49
sVDisplayName
p1322
g52
sVUniFriend
p1323
I0
sVMemberCount
p1324
I0
sVOwnerUin
p1325
I0
sVMemberList
p1326
g50
sVAlias
p1327
g52
sVPYQuanPin
p1328
Vdoudou
p1329
sVSignature
p1330
g52
sVRemarkPYInitial
p1331
g52
sVContactFlag
p1332
I3
sVUin
p1333
I0
sVNickName
p1334
V\u8c46\u8c46
p1335
sVAppAccountFlag
p1336
I0
sVVerifyFlag
p1337
I0
sVRemarkPYQuanPin
p1338
g52
sVHeadImgUrl
p1339
V/cgi-bin/mmwebwx-bin/webwxgeticon?seq=668523536&username=@168e53ee8af925f0b6e374aaeb94257589743cae08243e4abd525aafcfe61e2c&skey=@crypt_6353e9d_c05b3ff3a1f7b536c85fc996d814cf64
p1340
sVKeyWord
p1341
Vzhe
p1342
sVProvince
p1343
V\u6c5f\u82cf
p1344
sVPYInitial
p1345
VDD
p1346
sVRemarkName
p1347
g52
sVIsOwner
p1348
I0
sVSex
p1349
I1
sVStarFriend
p1350
I0
sVHideInputBarFlag
p1351
I0
sVChatRoomId
p1352
I0
sVEncryChatRoomId
p1353
g52
sVAttrStatus
p1354
I235007
sVStatues
p1355
I0
stp1356
Rp1357
I1
bag34
(g38
g39
(dp1358
VUserName
p1359
V@4c1df9483f1447860c9c17e2886d44ff
p1360
sVCity
p1361
V\u9ec4\u5188
p1362
sVSnsFlag
p1363
I17
sVDisplayName
p1364
g52
sVUniFriend
p1365
I0
sVMemberCount
p1366
I0
sVOwnerUin
p1367
I0
sVMemberList
p1368
g50
sVAlias
p1369
g52
sVPYQuanPin
p1370
Vxiongqitao
p1371
sVSignature
p1372
V\u51a5\u51a5\u4e4b\u4e2d\uff0c\u7531\u4e0d\u5f97\u4f60\u3002
p1373
sVRemarkPYInitial
p1374
g52
sVContactFlag
p1375
I3
sVUin
p1376
I0
sVNickName
p1377
V\u718a\u8572\u6d9b
p1378
sVAppAccountFlag
p1379
I0
sVVerifyFlag
p1380
I0
sVRemarkPYQuanPin
p1381
g52
sVHeadImgUrl
p1382
V/cgi-bin/mmwebwx-bin/webwxgeticon?seq=656884667&username=@4c1df9483f1447860c9c17e2886d44ff&skey=@crypt_6353e9d_c05b3ff3a1f7b536c85fc996d814cf64
p1383
sVKeyWord
p1384
Vxqt
p1385
sVProvince
p1386
V\u6e56\u5317
p1387
sVPYInitial
p1388
VXQT
p1389
sVRemarkName
p1390
g52
sVIsOwner
p1391
I0
sVSex
p1392
I1
sVStarFriend
p1393
I0
sVHideInputBarFlag
p1394
I0
sVChatRoomId
p1395
I0
sVEncryChatRoomId
p1396
g52
sVAttrStatus
p1397
I233575
sVStatues
p1398
I0
stp1399
Rp1400
I1
bag34
(g38
g39
(dp1401
VUserName
p1402
V@263e4aca45dbf3b54676a59a1c9a0132
p1403
sVCity
p1404
V\u5357\u4eac
p1405
sVSnsFlag
p1406
I49
sVDisplayName
p1407
g52
sVUniFriend
p1408
I0
sVMemberCount
p1409
I0
sVOwnerUin
p1410
I0
sVMemberList
p1411
g50
sVAlias
p1412
g52
sVPYQuanPin
p1413
VAction
p1414
sVSignature
p1415
V\u751f\u547d\u5728\u4e8e\u594b\u6597\uff01
p1416
sVRemarkPYInitial
p1417
VZW
p1418
sVContactFlag
p1419
I3
sVUin
p1420
I0
sVNickName
p1421
VAction
p1422
sVAppAccountFlag
p1423
I0
sVVerifyFlag
p1424
I0
sVRemarkPYQuanPin
p1425
Vzhaowei
p1426
sVHeadImgUrl
p1427
V/cgi-bin/mmwebwx-bin/webwxgeticon?seq=668530464&username=@263e4aca45dbf3b54676a59a1c9a0132&skey=@crypt_6353e9d_c05b3ff3a1f7b536c85fc996d814cf64
p1428
sVKeyWord
p1429
Vgou
p1430
sVProvince
p1431
V\u6c5f\u82cf
p1432
sVPYInitial
p1433
VACTION
p1434
sVRemarkName
p1435
V\u8d75\u4f1f
p1436
sVIsOwner
p1437
I0
sVSex
p1438
I1
sVStarFriend
p1439
I0
sVHideInputBarFlag
p1440
I0
sVChatRoomId
p1441
I0
sVEncryChatRoomId
p1442
g52
sVAttrStatus
p1443
I100927
sVStatues
p1444
I0
stp1445
Rp1446
I1
bag34
(g38
g39
(dp1447
VUserName
p1448
V@5ecdb116a2083b575c8e9a33cdb0f5129109ea8e647f7764933a189d60d77574
p1449
sVCity
p1450
g52
sVSnsFlag
p1451
I17
sVDisplayName
p1452
g52
sVUniFriend
p1453
I0
sVMemberCount
p1454
I0
sVOwnerUin
p1455
I0
sVMemberList
p1456
g50
sVAlias
p1457
g52
sVPYQuanPin
p1458
Vjsmspanclassemojiemoji1f41aspanxiaomi
p1459
sVSignature
p1460
V\u989d\u989d\u989d
p1461
sVRemarkPYInitial
p1462
g52
sVContactFlag
p1463
I3
sVUin
p1464
I0
sVNickName
p1465
Vjsm\U0001f41a\u5c0f\u7c73
p1466
sVAppAccountFlag
p1467
I0
sVVerifyFlag
p1468
I0
sVRemarkPYQuanPin
p1469
g52
sVHeadImgUrl
p1470
V/cgi-bin/mmwebwx-bin/webwxgeticon?seq=668531987&username=@5ecdb116a2083b575c8e9a33cdb0f5129109ea8e647f7764933a189d60d77574&skey=@crypt_6353e9d_c05b3ff3a1f7b536c85fc996d814cf64
p1471
sVKeyWord
p1472
g52
sVProvince
p1473
g52
sVPYInitial
p1474
VJSMSPANCLASSEMOJIEMOJI1F41ASPANXM
p1475
sVRemarkName
p1476
g52
sVIsOwner
p1477
I0
sVSex
p1478
I2
sVStarFriend
p1479
I0
sVHideInputBarFlag
p1480
I0
sVChatRoomId
p1481
I0
sVEncryChatRoomId
p1482
g52
sVAttrStatus
p1483
I102501
sVStatues
p1484
I0
stp1485
Rp1486
I1
bag34
(g38
g39
(dp1487
VUserName
p1488
V@d5d7c9a97a3a1e42bcc4c34127d473ac0e1a76b46b015aa34407f367b5bbed2d
p1489
sVCity
p1490
V\u626c\u5dde
p1491
sVSnsFlag
p1492
I17
sVDisplayName
p1493
g52
sVUniFriend
p1494
I0
sVMemberCount
p1495
I0
sVOwnerUin
p1496
I0
sVMemberList
p1497
g50
sVAlias
p1498
g52
sVPYQuanPin
p1499
Vzhaolou
p1500
sVSignature
p1501
g52
sVRemarkPYInitial
p1502
VZL
p1503
sVContactFlag
p1504
I3
sVUin
p1505
I0
sVNickName
p1506
V\u8d75\u9732
p1507
sVAppAccountFlag
p1508
I0
sVVerifyFlag
p1509
I0
sVRemarkPYQuanPin
p1510
Vzhaolou
p1511
sVHeadImgUrl
p1512
V/cgi-bin/mmwebwx-bin/webwxgeticon?seq=668532384&username=@d5d7c9a97a3a1e42bcc4c34127d473ac0e1a76b46b015aa34407f367b5bbed2d&skey=@crypt_6353e9d_c05b3ff3a1f7b536c85fc996d814cf64
p1513
sVKeyWord
p1514
g52
sVProvince
p1515
V\u6c5f\u82cf
p1516
sVPYInitial
p1517
VZL
p1518
sVRemarkName
p1519
V\u8d75\u9732
p1520
sVIsOwner
p1521
I0
sVSex
p1522
I1
sVStarFriend
p1523
I0
sVHideInputBarFlag
p1524
I0
sVChatRoomId
p1525
I0
sVEncryChatRoomId
p1526
g52
sVAttrStatus
p1527
L2147586085L
sVStatues
p1528
I0
stp1529
Rp1530
I1
bag34
(g38
g39
(dp1531
VUserName
p1532
V@f7a6b8ba8bc270c1ddef77bd19af71f677574a72d4e24a78d7d8869cd086d73b
p1533
sVCity
p1534
g52
sVSnsFlag
p1535
I1
sVDisplayName
p1536
g52
sVUniFriend
p1537
I0
sVMemberCount
p1538
I0
sVOwnerUin
p1539
I0
sVMemberList
p1540
g50
sVAlias
p1541
g52
sVPYQuanPin
p1542
Vtingyu
p1543
sVSignature
p1544
g52
sVRemarkPYInitial
p1545
g52
sVContactFlag
p1546
I32771
sVUin
p1547
I0
sVNickName
p1548
V\u542c\u96e8
p1549
sVAppAccountFlag
p1550
I0
sVVerifyFlag
p1551
I0
sVRemarkPYQuanPin
p1552
g52
sVHeadImgUrl
p1553
V/cgi-bin/mmwebwx-bin/webwxgeticon?seq=668534522&username=@f7a6b8ba8bc270c1ddef77bd19af71f677574a72d4e24a78d7d8869cd086d73b&skey=@crypt_6353e9d_c05b3ff3a1f7b536c85fc996d814cf64
p1554
sVKeyWord
p1555
g52
sVProvince
p1556
g52
sVPYInitial
p1557
VTY
p1558
sVRemarkName
p1559
g52
sVIsOwner
p1560
I0
sVSex
p1561
I0
sVStarFriend
p1562
I0
sVHideInputBarFlag
p1563
I0
sVChatRoomId
p1564
I0
sVEncryChatRoomId
p1565
g52
sVAttrStatus
p1566
I135205
sVStatues
p1567
I0
stp1568
Rp1569
I1
bag34
(g38
g39
(dp1570
VUserName
p1571
V@db0c48b711d86455c15b09a0233f0dc70890d20833e0873b9c4289adfdec95d8
p1572
sVCity
p1573
g52
sVSnsFlag
p1574
I1
sVDisplayName
p1575
g52
sVUniFriend
p1576
I0
sVMemberCount
p1577
I0
sVOwnerUin
p1578
I0
sVMemberList
p1579
g50
sVAlias
p1580
g52
sVPYQuanPin
p1581
VDreamspanclassemojiemoji1f33bspan
p1582
sVSignature
p1583
V\u4f60\u82e5\u76db\u5f00 \u8774\u8776\u81ea\u6765
p1584
sVRemarkPYInitial
p1585
g52
sVContactFlag
p1586
I3
sVUin
p1587
I0
sVNickName
p1588
VDream\U0001f33b
p1589
sVAppAccountFlag
p1590
I0
sVVerifyFlag
p1591
I0
sVRemarkPYQuanPin
p1592
g52
sVHeadImgUrl
p1593
V/cgi-bin/mmwebwx-bin/webwxgeticon?seq=668499072&username=@db0c48b711d86455c15b09a0233f0dc70890d20833e0873b9c4289adfdec95d8&skey=@crypt_6353e9d_c05b3ff3a1f7b536c85fc996d814cf64
p1594
sVKeyWord
p1595
g52
sVProvince
p1596
VDubayy
p1597
sVPYInitial
p1598
VDREAMSPANCLASSEMOJIEMOJI1F33BSPAN
p1599
sVRemarkName
p1600
g52
sVIsOwner
p1601
I0
sVSex
p1602
I2
sVStarFriend
p1603
I0
sVHideInputBarFlag
p1604
I0
sVChatRoomId
p1605
I0
sVEncryChatRoomId
p1606
g52
sVAttrStatus
p1607
I104633
sVStatues
p1608
I0
stp1609
Rp1610
I1
bag34
(g38
g39
(dp1611
VUserName
p1612
V@92b5546fd4e9804b0976e332bb5f1ef04551cd1480d13492722c42a9f38f0bd9
p1613
sVCity
p1614
V\u5357\u4eac
p1615
sVSnsFlag
p1616
I49
sVDisplayName
p1617
g52
sVUniFriend
p1618
I0
sVMemberCount
p1619
I0
sVOwnerUin
p1620
I0
sVMemberList
p1621
g50
sVAlias
p1622
g52
sVPYQuanPin
p1623
VAlexzhonglili???
p1624
sVSignature
p1625
V\u6709\u89d2\u7684\u7ef5\u7f8a
p1626
sVRemarkPYInitial
p1627
VZLL
p1628
sVContactFlag
p1629
I3
sVUin
p1630
I0
sVNickName
p1631
VAlex\u949f\u7b20\u7b20 \uc885\ub9bd\ub9bd
p1632
sVAppAccountFlag
p1633
I0
sVVerifyFlag
p1634
I0
sVRemarkPYQuanPin
p1635
Vzhonglili
p1636
sVHeadImgUrl
p1637
V/cgi-bin/mmwebwx-bin/webwxgeticon?seq=668537438&username=@92b5546fd4e9804b0976e332bb5f1ef04551cd1480d13492722c42a9f38f0bd9&skey=@crypt_6353e9d_c05b3ff3a1f7b536c85fc996d814cf64
p1638
sVKeyWord
p1639
g52
sVProvince
p1640
V\u6c5f\u82cf
p1641
sVPYInitial
p1642
VALEXZLL???
p1643
sVRemarkName
p1644
V\u949f\u7b20\u7b20
p1645
sVIsOwner
p1646
I0
sVSex
p1647
I1
sVStarFriend
p1648
I0
sVHideInputBarFlag
p1649
I0
sVChatRoomId
p1650
I0
sVEncryChatRoomId
p1651
g52
sVAttrStatus
p1652
I203197
sVStatues
p1653
I0
stp1654
Rp1655
I1
bag34
(g38
g39
(dp1656
VUserName
p1657
V@bb5f97cf6a7032abd3e76730b538b0a23978890c1b718a9c3678cf02a378d9a2
p1658
sVCity
p1659
V\u4e30\u53f0
p1660
sVSnsFlag
p1661
I49
sVDisplayName
p1662
g52
sVUniFriend
p1663
I0
sVMemberCount
p1664
I0
sVOwnerUin
p1665
I0
sVMemberList
p1666
g50
sVAlias
p1667
g52
sVPYQuanPin
p1668
Vlianghaidechancaiwuzongbu
p1669
sVSignature
p1670
g52
sVRemarkPYInitial
p1671
VCWJLFYL
p1672
sVContactFlag
p1673
I3
sVUin
p1674
I0
sVNickName
p1675
V\u6881\u6d77\u5730\u4ea7\u8d22\u52a1\u603b\u90e8
p1676
sVAppAccountFlag
p1677
I0
sVVerifyFlag
p1678
I0
sVRemarkPYQuanPin
p1679
Vcaiwujinglifuyanling
p1680
sVHeadImgUrl
p1681
V/cgi-bin/mmwebwx-bin/webwxgeticon?seq=668538045&username=@bb5f97cf6a7032abd3e76730b538b0a23978890c1b718a9c3678cf02a378d9a2&skey=@crypt_6353e9d_c05b3ff3a1f7b536c85fc996d814cf64
p1682
sVKeyWord
p1683
g52
sVProvince
p1684
V\u5317\u4eac
p1685
sVPYInitial
p1686
VLHDCCWZB
p1687
sVRemarkName
p1688
V\u8d22\u52a1\u7ecf\u7406\u4ed8\u8273\u73b2
p1689
sVIsOwner
p1690
I0
sVSex
p1691
I2
sVStarFriend
p1692
I0
sVHideInputBarFlag
p1693
I0
sVChatRoomId
p1694
I0
sVEncryChatRoomId
p1695
g52
sVAttrStatus
p1696
I98813
sVStatues
p1697
I0
stp1698
Rp1699
I1
bag34
(g38
g39
(dp1700
VUserName
p1701
V@8a8a986936d5f29a186bfb1dcaaafa9c
p1702
sVCity
p1703
V\u6dee\u5b89
p1704
sVSnsFlag
p1705
I49
sVDisplayName
p1706
g52
sVUniFriend
p1707
I0
sVMemberCount
p1708
I0
sVOwnerUin
p1709
I0
sVMemberList
p1710
g50
sVAlias
p1711
g52
sVPYQuanPin
p1712
VA000zhishangyishupeixun
p1713
sVSignature
p1714
g52
sVRemarkPYInitial
p1715
VMJY
p1716
sVContactFlag
p1717
I65539
sVUin
p1718
I0
sVNickName
p1719
VA000\u5fd7\u5c1a\u827a\u672f\u57f9\u8bad
p1720
sVAppAccountFlag
p1721
I0
sVVerifyFlag
p1722
I0
sVRemarkPYQuanPin
p1723
Vmajiayue
p1724
sVHeadImgUrl
p1725
V/cgi-bin/mmwebwx-bin/webwxgeticon?seq=668537434&username=@8a8a986936d5f29a186bfb1dcaaafa9c&skey=@crypt_6353e9d_c05b3ff3a1f7b536c85fc996d814cf64
p1726
sVKeyWord
p1727
Vmaj
p1728
sVProvince
p1729
V\u6c5f\u82cf
p1730
sVPYInitial
p1731
VA000ZSYSPX
p1732
sVRemarkName
p1733
V\u9a6c\u5bb6\u4e50
p1734
sVIsOwner
p1735
I0
sVSex
p1736
I1
sVStarFriend
p1737
I0
sVHideInputBarFlag
p1738
I0
sVChatRoomId
p1739
I0
sVEncryChatRoomId
p1740
g52
sVAttrStatus
p1741
I4298853
sVStatues
p1742
I0
stp1743
Rp1744
I1
bag34
(g38
g39
(dp1745
VUserName
p1746
V@e3eb464d15dc2669e3ea2c5a09f47593452b01ed93004c54725bb1d216a12cac
p1747
sVCity
p1748
g52
sVSnsFlag
p1749
I1
sVDisplayName
p1750
g52
sVUniFriend
p1751
I0
sVMemberCount
p1752
I0
sVOwnerUin
p1753
I0
sVMemberList
p1754
g50
sVAlias
p1755
g52
sVPYQuanPin
p1756
Vlangxingtianxia18952093555
p1757
sVSignature
p1758
g52
sVRemarkPYInitial
p1759
g52
sVContactFlag
p1760
I65539
sVUin
p1761
I0
sVNickName
p1762
V\u72fc\u884c\u5929\u4e0b18952093555
p1763
sVAppAccountFlag
p1764
I0
sVVerifyFlag
p1765
I0
sVRemarkPYQuanPin
p1766
g52
sVHeadImgUrl
p1767
V/cgi-bin/mmwebwx-bin/webwxgeticon?seq=668493572&username=@e3eb464d15dc2669e3ea2c5a09f47593452b01ed93004c54725bb1d216a12cac&skey=@crypt_6353e9d_c05b3ff3a1f7b536c85fc996d814cf64
p1768
sVKeyWord
p1769
g52
sVProvince
p1770
g52
sVPYInitial
p1771
VLXTX18952093555
p1772
sVRemarkName
p1773
g52
sVIsOwner
p1774
I0
sVSex
p1775
I0
sVStarFriend
p1776
I0
sVHideInputBarFlag
p1777
I0
sVChatRoomId
p1778
I0
sVEncryChatRoomId
p1779
g52
sVAttrStatus
p1780
I4133
sVStatues
p1781
I0
stp1782
Rp1783
I1
bag34
(g38
g39
(dp1784
VUserName
p1785
V@44ded92ef57824ddb851e805ccaef4b0590b375f479c1f1de226eda9e3bcd858
p1786
sVCity
p1787
V\u8346\u5dde
p1788
sVSnsFlag
p1789
I1
sVDisplayName
p1790
g52
sVUniFriend
p1791
I0
sVMemberCount
p1792
I0
sVOwnerUin
p1793
I0
sVMemberList
p1794
g50
sVAlias
p1795
g52
sVPYQuanPin
p1796
Vhuolongguo
p1797
sVSignature
p1798
V\u4e00\u5bf8\u5149\u9634\u4e00\u5bf8\u91d1\uff0c\u5bf8\u91d1\u96be\u4e70\u5bf8\u5149\u9634
p1799
sVRemarkPYInitial
p1800
VNH
p1801
sVContactFlag
p1802
I3
sVUin
p1803
I0
sVNickName
p1804
V\u706b\u9f99\u679c
p1805
sVAppAccountFlag
p1806
I0
sVVerifyFlag
p1807
I0
sVRemarkPYQuanPin
p1808
Vnihao
p1809
sVHeadImgUrl
p1810
V/cgi-bin/mmwebwx-bin/webwxgeticon?seq=668526067&username=@44ded92ef57824ddb851e805ccaef4b0590b375f479c1f1de226eda9e3bcd858&skey=@crypt_6353e9d_c05b3ff3a1f7b536c85fc996d814cf64
p1811
sVKeyWord
p1812
g52
sVProvince
p1813
V\u6e56\u5317
p1814
sVPYInitial
p1815
VHLG
p1816
sVRemarkName
p1817
V\u4f60\u597d
p1818
sVIsOwner
p1819
I0
sVSex
p1820
I0
sVStarFriend
p1821
I0
sVHideInputBarFlag
p1822
I0
sVChatRoomId
p1823
I0
sVEncryChatRoomId
p1824
g52
sVAttrStatus
p1825
I4197
sVStatues
p1826
I0
stp1827
Rp1828
I1
bag34
(g38
g39
(dp1829
VUserName
p1830
V@9cedc3a4bb7d68e9ab5c26c827f758e5e7f3a75a321ba8482c7ba5d53d810109
p1831
sVCity
p1832
g52
sVSnsFlag
p1833
I1
sVDisplayName
p1834
g52
sVUniFriend
p1835
I0
sVMemberCount
p1836
I0
sVOwnerUin
p1837
I0
sVMemberList
p1838
g50
sVAlias
p1839
g52
sVPYQuanPin
p1840
VG
p1841
sVSignature
p1842
g52
sVRemarkPYInitial
p1843
VMK
p1844
sVContactFlag
p1845
I3
sVUin
p1846
I0
sVNickName
p1847
g1841
sVAppAccountFlag
p1848
I0
sVVerifyFlag
p1849
I0
sVRemarkPYQuanPin
p1850
Vmakai
p1851
sVHeadImgUrl
p1852
V/cgi-bin/mmwebwx-bin/webwxgeticon?seq=668539732&username=@9cedc3a4bb7d68e9ab5c26c827f758e5e7f3a75a321ba8482c7ba5d53d810109&skey=@crypt_6353e9d_c05b3ff3a1f7b536c85fc996d814cf64
p1853
sVKeyWord
p1854
g52
sVProvince
p1855
V\u6c5f\u82cf
p1856
sVPYInitial
p1857
g1841
sVRemarkName
p1858
V\u9a6c\u51ef
p1859
sVIsOwner
p1860
I0
sVSex
p1861
I1
sVStarFriend
p1862
I0
sVHideInputBarFlag
p1863
I0
sVChatRoomId
p1864
I0
sVEncryChatRoomId
p1865
g52
sVAttrStatus
p1866
I102437
sVStatues
p1867
I0
stp1868
Rp1869
I1
bag34
(g38
g39
(dp1870
VUserName
p1871
V@2785fd42da4c4e1a1f9e08f4cc15a92623341c47298340bcbda8f87bd75a09cd
p1872
sVCity
p1873
V\u5357\u4eac
p1874
sVSnsFlag
p1875
I17
sVDisplayName
p1876
g52
sVUniFriend
p1877
I0
sVMemberCount
p1878
I0
sVOwnerUin
p1879
I0
sVMemberList
p1880
g50
sVAlias
p1881
g52
sVPYQuanPin
p1882
Vfanan
p1883
sVSignature
p1884
g52
sVRemarkPYInitial
p1885
VFA
p1886
sVContactFlag
p1887
I3
sVUin
p1888
I0
sVNickName
p1889
V\u8303\u5b89
p1890
sVAppAccountFlag
p1891
I0
sVVerifyFlag
p1892
I0
sVRemarkPYQuanPin
p1893
Vfanan
p1894
sVHeadImgUrl
p1895
V/cgi-bin/mmwebwx-bin/webwxgeticon?seq=668539743&username=@2785fd42da4c4e1a1f9e08f4cc15a92623341c47298340bcbda8f87bd75a09cd&skey=@crypt_6353e9d_c05b3ff3a1f7b536c85fc996d814cf64
p1896
sVKeyWord
p1897
g52
sVProvince
p1898
V\u6c5f\u82cf
p1899
sVPYInitial
p1900
VFA
p1901
sVRemarkName
p1902
V\u8303\u5b89
p1903
sVIsOwner
p1904
I0
sVSex
p1905
I1
sVStarFriend
p1906
I0
sVHideInputBarFlag
p1907
I0
sVChatRoomId
p1908
I0
sVEncryChatRoomId
p1909
g52
sVAttrStatus
p1910
I36965
sVStatues
p1911
I0
stp1912
Rp1913
I1
bag34
(g38
g39
(dp1914
VUserName
p1915
V@f814ee8c4aeef45c5452bca76b6ed704f80a6c736ce2edb61d61c6b59adeb47d
p1916
sVCity
p1917
V\u5357\u4eac
p1918
sVSnsFlag
p1919
I1
sVDisplayName
p1920
g52
sVUniFriend
p1921
I0
sVMemberCount
p1922
I0
sVOwnerUin
p1923
I0
sVMemberList
p1924
g50
sVAlias
p1925
g52
sVPYQuanPin
p1926
VCampD
p1927
sVSignature
p1928
V\u5df1\u6240\u4e0d\u6b32\uff0c\u52ff\u65bd\u4e8e\u4eba\uff01
p1929
sVRemarkPYInitial
p1930
VNJDRKHCD
p1931
sVContactFlag
p1932
I3
sVUin
p1933
I0
sVNickName
p1934
VC&amp;D
p1935
sVAppAccountFlag
p1936
I0
sVVerifyFlag
p1937
I0
sVRemarkPYQuanPin
p1938
Vnajingdiruankehuchendong
p1939
sVHeadImgUrl
p1940
V/cgi-bin/mmwebwx-bin/webwxgeticon?seq=668538569&username=@f814ee8c4aeef45c5452bca76b6ed704f80a6c736ce2edb61d61c6b59adeb47d&skey=@crypt_6353e9d_c05b3ff3a1f7b536c85fc996d814cf64
p1941
sVKeyWord
p1942
g52
sVProvince
p1943
V\u6c5f\u82cf
p1944
sVPYInitial
p1945
VCAMPD
p1946
sVRemarkName
p1947
V\u5357\u4eac\u8fea\u8f6f\u5ba2\u6237 \u9648\u680b
p1948
sVIsOwner
p1949
I0
sVSex
p1950
I1
sVStarFriend
p1951
I0
sVHideInputBarFlag
p1952
I0
sVChatRoomId
p1953
I0
sVEncryChatRoomId
p1954
g52
sVAttrStatus
p1955
I104485
sVStatues
p1956
I0
stp1957
Rp1958
I1
bag34
(g38
g39
(dp1959
VUserName
p1960
V@7c287e36b3d807dee52d72f19bac39b1e652c44d0b2e19912d98a838b0568831
p1961
sVCity
p1962
V\u6b66\u6c49
p1963
sVSnsFlag
p1964
I1
sVDisplayName
p1965
g52
sVUniFriend
p1966
I0
sVMemberCount
p1967
I0
sVOwnerUin
p1968
I0
sVMemberList
p1969
g50
sVAlias
p1970
g52
sVPYQuanPin
p1971
Vtongtong
p1972
sVSignature
p1973
V\u5f97\u4e4b\u5766\u7136\uff0c\u5931\u4e4b\u6de1\u7136\uff0c\u4e89\u53d6\u5fc5\u7136\uff0c\u987a\u5176\u81ea\u7136\u3002
p1974
sVRemarkPYInitial
p1975
g52
sVContactFlag
p1976
I3
sVUin
p1977
I0
sVNickName
p1978
V\u5f64\u5f64
p1979
sVAppAccountFlag
p1980
I0
sVVerifyFlag
p1981
I0
sVRemarkPYQuanPin
p1982
g52
sVHeadImgUrl
p1983
V/cgi-bin/mmwebwx-bin/webwxgeticon?seq=668538472&username=@7c287e36b3d807dee52d72f19bac39b1e652c44d0b2e19912d98a838b0568831&skey=@crypt_6353e9d_c05b3ff3a1f7b536c85fc996d814cf64
p1984
sVKeyWord
p1985
g52
sVProvince
p1986
V\u6e56\u5317
p1987
sVPYInitial
p1988
VTT
p1989
sVRemarkName
p1990
g52
sVIsOwner
p1991
I0
sVSex
p1992
I2
sVStarFriend
p1993
I0
sVHideInputBarFlag
p1994
I0
sVChatRoomId
p1995
I0
sVEncryChatRoomId
p1996
g52
sVAttrStatus
p1997
I234277
sVStatues
p1998
I0
stp1999
Rp2000
I1
bag34
(g38
g39
(dp2001
VUserName
p2002
V@9c467699da855c0bc4c8632ed219665a8717f02095992d308bef63ad3be2674f
p2003
sVCity
p2004
V\u9675\u6c34
p2005
sVSnsFlag
p2006
I1
sVDisplayName
p2007
g52
sVUniFriend
p2008
I0
sVMemberCount
p2009
I0
sVOwnerUin
p2010
I0
sVMemberList
p2011
g50
sVAlias
p2012
g52
sVPYQuanPin
p2013
VHemingway
p2014
sVSignature
p2015
V\u554a
p2016
sVRemarkPYInitial
p2017
VWHM
p2018
sVContactFlag
p2019
I3
sVUin
p2020
I0
sVNickName
p2021
VHemingway
p2022
sVAppAccountFlag
p2023
I0
sVVerifyFlag
p2024
I0
sVRemarkPYQuanPin
p2025
Vwuhaiming
p2026
sVHeadImgUrl
p2027
V/cgi-bin/mmwebwx-bin/webwxgeticon?seq=656881823&username=@9c467699da855c0bc4c8632ed219665a8717f02095992d308bef63ad3be2674f&skey=@crypt_6353e9d_c05b3ff3a1f7b536c85fc996d814cf64
p2028
sVKeyWord
p2029
g52
sVProvince
p2030
V\u6d77\u5357
p2031
sVPYInitial
p2032
VHEMINGWAY
p2033
sVRemarkName
p2034
V\u4e4c\u6d77\u9e23
p2035
sVIsOwner
p2036
I0
sVSex
p2037
I1
sVStarFriend
p2038
I0
sVHideInputBarFlag
p2039
I0
sVChatRoomId
p2040
I0
sVEncryChatRoomId
p2041
g52
sVAttrStatus
p2042
I102439
sVStatues
p2043
I0
stp2044
Rp2045
I1
bag34
(g38
g39
(dp2046
VUserName
p2047
V@9a4e6ea9a862a3dfb7d81f4ca34c49306bb6efd095828beb7c625c2a68fa83d3
p2048
sVCity
p2049
V\u6dee\u5b89
p2050
sVSnsFlag
p2051
I17
sVDisplayName
p2052
g52
sVUniFriend
p2053
I0
sVMemberCount
p2054
I0
sVOwnerUin
p2055
I0
sVMemberList
p2056
g50
sVAlias
p2057
g52
sVPYQuanPin
p2058
Vmaze
p2059
sVSignature
p2060
V\u4e3b\u4eba\u5f88\u61d2\uff0c\u5f85\u66f4\u65b0\u2026\u2026
p2061
sVRemarkPYInitial
p2062
g52
sVContactFlag
p2063
I3
sVUin
p2064
I0
sVNickName
p2065
V\u9a6c\u6cfd
p2066
sVAppAccountFlag
p2067
I0
sVVerifyFlag
p2068
I0
sVRemarkPYQuanPin
p2069
g52
sVHeadImgUrl
p2070
V/cgi-bin/mmwebwx-bin/webwxgeticon?seq=668531070&username=@9a4e6ea9a862a3dfb7d81f4ca34c49306bb6efd095828beb7c625c2a68fa83d3&skey=@crypt_6353e9d_c05b3ff3a1f7b536c85fc996d814cf64
p2071
sVKeyWord
p2072
g52
sVProvince
p2073
V\u6c5f\u82cf
p2074
sVPYInitial
p2075
VMZ
p2076
sVRemarkName
p2077
g52
sVIsOwner
p2078
I0
sVSex
p2079
I1
sVStarFriend
p2080
I0
sVHideInputBarFlag
p2081
I0
sVChatRoomId
p2082
I0
sVEncryChatRoomId
p2083
g52
sVAttrStatus
p2084
I168231
sVStatues
p2085
I0
stp2086
Rp2087
I1
bag34
(g38
g39
(dp2088
VUserName
p2089
V@b02bb9dd5e6dd02e8d92b57a98fed87a13d743d7af3703615165935d4081c867
p2090
sVCity
p2091
V\u5357\u4eac
p2092
sVSnsFlag
p2093
I1
sVDisplayName
p2094
g52
sVUniFriend
p2095
I0
sVMemberCount
p2096
I0
sVOwnerUin
p2097
I0
sVMemberList
p2098
g50
sVAlias
p2099
g52
sVPYQuanPin
p2100
Vsu
p2101
sVSignature
p2102
V\u60df\u613f\uff1a\u73b0\u4e16\u5b89\u7a33\u3001\u5c81\u6708\u9759\u597d\uff01
p2103
sVRemarkPYInitial
p2104
VSY
p2105
sVContactFlag
p2106
I3
sVUin
p2107
I0
sVNickName
p2108
Vsu
p2109
sVAppAccountFlag
p2110
I0
sVVerifyFlag
p2111
I0
sVRemarkPYQuanPin
p2112
Vsuya
p2113
sVHeadImgUrl
p2114
V/cgi-bin/mmwebwx-bin/webwxgeticon?seq=668537173&username=@b02bb9dd5e6dd02e8d92b57a98fed87a13d743d7af3703615165935d4081c867&skey=@crypt_6353e9d_c05b3ff3a1f7b536c85fc996d814cf64
p2115
sVKeyWord
p2116
g52
sVProvince
p2117
V\u6c5f\u82cf
p2118
sVPYInitial
p2119
VSU
p2120
sVRemarkName
p2121
V\u82cf\u96c5
p2122
sVIsOwner
p2123
I0
sVSex
p2124
I2
sVStarFriend
p2125
I0
sVHideInputBarFlag
p2126
I0
sVChatRoomId
p2127
I0
sVEncryChatRoomId
p2128
g52
sVAttrStatus
p2129
I6437
sVStatues
p2130
I0
stp2131
Rp2132
I1
bag34
(g38
g39
(dp2133
VUserName
p2134
V@d6497196a55676526ea11459cbb132641f250eb44b111fece3a49c333a956d71
p2135
sVCity
p2136
g52
sVSnsFlag
p2137
I0
sVDisplayName
p2138
g52
sVUniFriend
p2139
I0
sVMemberCount
p2140
I0
sVOwnerUin
p2141
I0
sVMemberList
p2142
g50
sVAlias
p2143
g52
sVPYQuanPin
p2144
Vxingkongshidaoguolaidehai
p2145
sVSignature
p2146
g52
sVRemarkPYInitial
p2147
VLWT
p2148
sVContactFlag
p2149
I3
sVUin
p2150
I0
sVNickName
p2151
V\u661f\u7a7a\u662f\u5012\u8fc7\u6765\u7684\u6d77
p2152
sVAppAccountFlag
p2153
I0
sVVerifyFlag
p2154
I0
sVRemarkPYQuanPin
p2155
Vliuwenting
p2156
sVHeadImgUrl
p2157
V/cgi-bin/mmwebwx-bin/webwxgeticon?seq=668541128&username=@d6497196a55676526ea11459cbb132641f250eb44b111fece3a49c333a956d71&skey=@crypt_6353e9d_c05b3ff3a1f7b536c85fc996d814cf64
p2158
sVKeyWord
p2159
g52
sVProvince
p2160
g52
sVPYInitial
p2161
VXKSDGLDH
p2162
sVRemarkName
p2163
V\u5218\u6587\u5a77
p2164
sVIsOwner
p2165
I0
sVSex
p2166
I2
sVStarFriend
p2167
I0
sVHideInputBarFlag
p2168
I0
sVChatRoomId
p2169
I0
sVEncryChatRoomId
p2170
g52
sVAttrStatus
p2171
I135269
sVStatues
p2172
I0
stp2173
Rp2174
I1
bag34
(g38
g39
(dp2175
VUserName
p2176
V@f4a8dd1d3ec9e31c1ce460dda60035cc9b6f13699a414de55bc5d013c5c1a9ec
p2177
sVCity
p2178
V\u6dee\u5b89
p2179
sVSnsFlag
p2180
I17
sVDisplayName
p2181
g52
sVUniFriend
p2182
I0
sVMemberCount
p2183
I0
sVOwnerUin
p2184
I0
sVMemberList
p2185
g50
sVAlias
p2186
g52
sVPYQuanPin
p2187
VAspanclassemojiemoji1f388spanxiangrikuideweixiao
p2188
sVSignature
p2189
g52
sVRemarkPYInitial
p2190
VHXH
p2191
sVContactFlag
p2192
I8195
sVUin
p2193
I0
sVNickName
p2194
VA\U0001f388\u5411\u65e5\u8475\u7684\u5fae\u7b11
p2195
sVAppAccountFlag
p2196
I0
sVVerifyFlag
p2197
I0
sVRemarkPYQuanPin
p2198
Vhanxianghui
p2199
sVHeadImgUrl
p2200
V/cgi-bin/mmwebwx-bin/webwxgeticon?seq=668541273&username=@f4a8dd1d3ec9e31c1ce460dda60035cc9b6f13699a414de55bc5d013c5c1a9ec&skey=@crypt_6353e9d_c05b3ff3a1f7b536c85fc996d814cf64
p2201
sVKeyWord
p2202
g52
sVProvince
p2203
V\u6c5f\u82cf
p2204
sVPYInitial
p2205
VASPANCLASSEMOJIEMOJI1F388SPANXRKDWX
p2206
sVRemarkName
p2207
V\u97e9\u7965\u6167
p2208
sVIsOwner
p2209
I0
sVSex
p2210
I2
sVStarFriend
p2211
I0
sVHideInputBarFlag
p2212
I0
sVChatRoomId
p2213
I0
sVEncryChatRoomId
p2214
g52
sVAttrStatus
p2215
L2147586533L
sVStatues
p2216
I0
stp2217
Rp2218
I1
bag34
(g38
g39
(dp2219
VUserName
p2220
V@99d18792de45c7671a01dde7220ddef35ecd8b422ac47986fe00b3aefc734e60
p2221
sVCity
p2222
V\u767d\u57ce
p2223
sVSnsFlag
p2224
I17
sVDisplayName
p2225
g52
sVUniFriend
p2226
I0
sVMemberCount
p2227
I0
sVOwnerUin
p2228
I0
sVMemberList
p2229
g50
sVAlias
p2230
g52
sVPYQuanPin
p2231
Vanjingxuexi
p2232
sVSignature
p2233
V\u6211\u6240\u575a\u4fe1\u7684\uff0c\u6211\u5c06\u575a\u6301\u5230\u5e95
p2234
sVRemarkPYInitial
p2235
g52
sVContactFlag
p2236
I3
sVUin
p2237
I0
sVNickName
p2238
V\u5b89\u9759\u5b66\u4e60
p2239
sVAppAccountFlag
p2240
I0
sVVerifyFlag
p2241
I0
sVRemarkPYQuanPin
p2242
g52
sVHeadImgUrl
p2243
V/cgi-bin/mmwebwx-bin/webwxgeticon?seq=668529144&username=@99d18792de45c7671a01dde7220ddef35ecd8b422ac47986fe00b3aefc734e60&skey=@crypt_6353e9d_c05b3ff3a1f7b536c85fc996d814cf64
p2244
sVKeyWord
p2245
g52
sVProvince
p2246
V\u5409\u6797
p2247
sVPYInitial
p2248
VAJXX
p2249
sVRemarkName
p2250
g52
sVIsOwner
p2251
I0
sVSex
p2252
I1
sVStarFriend
p2253
I0
sVHideInputBarFlag
p2254
I0
sVChatRoomId
p2255
I0
sVEncryChatRoomId
p2256
g52
sVAttrStatus
p2257
I4135
sVStatues
p2258
I0
stp2259
Rp2260
I1
bag34
(g38
g39
(dp2261
VUserName
p2262
V@4578103860ae348bb8274d5cf56bae8635ee56a3fcba25b0bf0acf7602885e25
p2263
sVCity
p2264
V\u5357\u4eac
p2265
sVSnsFlag
p2266
I17
sVDisplayName
p2267
g52
sVUniFriend
p2268
I0
sVMemberCount
p2269
I0
sVOwnerUin
p2270
I0
sVMemberList
p2271
g50
sVAlias
p2272
g52
sVPYQuanPin
p2273
Vspanclassemojiemoji1f435span
p2274
sVSignature
p2275
g52
sVRemarkPYInitial
p2276
g52
sVContactFlag
p2277
I3
sVUin
p2278
I0
sVNickName
p2279
V\U0001f435
p2280
sVAppAccountFlag
p2281
I0
sVVerifyFlag
p2282
I0
sVRemarkPYQuanPin
p2283
g52
sVHeadImgUrl
p2284
V/cgi-bin/mmwebwx-bin/webwxgeticon?seq=656890541&username=@4578103860ae348bb8274d5cf56bae8635ee56a3fcba25b0bf0acf7602885e25&skey=@crypt_6353e9d_c05b3ff3a1f7b536c85fc996d814cf64
p2285
sVKeyWord
p2286
g52
sVProvince
p2287
V\u6c5f\u82cf
p2288
sVPYInitial
p2289
VSPANCLASSEMOJIEMOJI1F435SPAN
p2290
sVRemarkName
p2291
g52
sVIsOwner
p2292
I0
sVSex
p2293
I1
sVStarFriend
p2294
I0
sVHideInputBarFlag
p2295
I0
sVChatRoomId
p2296
I0
sVEncryChatRoomId
p2297
g52
sVAttrStatus
p2298
I4133
sVStatues
p2299
I0
stp2300
Rp2301
I1
bag34
(g38
g39
(dp2302
VUserName
p2303
V@bfa6bbaf269e66de05832a8e18a11520205978cb03254c67baae38034920d450
p2304
sVCity
p2305
V\u9a6c\u978d\u5c71
p2306
sVSnsFlag
p2307
I17
sVDisplayName
p2308
g52
sVUniFriend
p2309
I0
sVMemberCount
p2310
I0
sVOwnerUin
p2311
I0
sVMemberList
p2312
g50
sVAlias
p2313
g52
sVPYQuanPin
p2314
Vcaicai
p2315
sVSignature
p2316
V\u6211\u6765\u4e86\uff0c\u6211\u7d2f\u4e86\uff0c\u6211\u597d\u4e86\uff0c\u6211\u8d70\u4e86\u3002
p2317
sVRemarkPYInitial
p2318
g52
sVContactFlag
p2319
I3
sVUin
p2320
I0
sVNickName
p2321
V\u83dc\u83dc
p2322
sVAppAccountFlag
p2323
I0
sVVerifyFlag
p2324
I0
sVRemarkPYQuanPin
p2325
g52
sVHeadImgUrl
p2326
V/cgi-bin/mmwebwx-bin/webwxgeticon?seq=668540783&username=@bfa6bbaf269e66de05832a8e18a11520205978cb03254c67baae38034920d450&skey=@crypt_6353e9d_c05b3ff3a1f7b536c85fc996d814cf64
p2327
sVKeyWord
p2328
g52
sVProvince
p2329
V\u5b89\u5fbd
p2330
sVPYInitial
p2331
VCC
p2332
sVRemarkName
p2333
g52
sVIsOwner
p2334
I0
sVSex
p2335
I2
sVStarFriend
p2336
I0
sVHideInputBarFlag
p2337
I0
sVChatRoomId
p2338
I0
sVEncryChatRoomId
p2339
g52
sVAttrStatus
p2340
I232933
sVStatues
p2341
I0
stp2342
Rp2343
I1
bag34
(g38
g39
(dp2344
VUserName
p2345
V@99e3dacce67e83c407894c7019215149
p2346
sVCity
p2347
V\u676d\u5dde
p2348
sVSnsFlag
p2349
I49
sVDisplayName
p2350
g52
sVUniFriend
p2351
I0
sVMemberCount
p2352
I0
sVOwnerUin
p2353
I0
sVMemberList
p2354
g50
sVAlias
p2355
g52
sVPYQuanPin
p2356
Vmumu
p2357
sVSignature
p2358
V\u6d77\u5e95\u6708\u662f\u5929\u4e0a\u6708\uff0c\u773c\u524d\u4eba\u662f\u5fc3\u4e0a\u4eba\u3002
p2359
sVRemarkPYInitial
p2360
VLZ
p2361
sVContactFlag
p2362
I3
sVUin
p2363
I0
sVNickName
p2364
V\u6728\u6728
p2365
sVAppAccountFlag
p2366
I0
sVVerifyFlag
p2367
I0
sVRemarkPYQuanPin
p2368
Vlinzhi
p2369
sVHeadImgUrl
p2370
V/cgi-bin/mmwebwx-bin/webwxgeticon?seq=668507945&username=@99e3dacce67e83c407894c7019215149&skey=@crypt_6353e9d_c05b3ff3a1f7b536c85fc996d814cf64
p2371
sVKeyWord
p2372
Vlin
p2373
sVProvince
p2374
V\u6d59\u6c5f
p2375
sVPYInitial
p2376
VMM
p2377
sVRemarkName
p2378
V\u6797\u77e5
p2379
sVIsOwner
p2380
I0
sVSex
p2381
I1
sVStarFriend
p2382
I0
sVHideInputBarFlag
p2383
I0
sVChatRoomId
p2384
I0
sVEncryChatRoomId
p2385
g52
sVAttrStatus
p2386
I105471
sVStatues
p2387
I0
stp2388
Rp2389
I1
bag34
(g38
g39
(dp2390
VUserName
p2391
V@2393abd2750b2f14f07af50fcc574a1a4a4dfedd08b728732a0d52f3b47a06b3
p2392
sVCity
p2393
V\u626c\u5dde
p2394
sVSnsFlag
p2395
I49
sVDisplayName
p2396
g52
sVUniFriend
p2397
I0
sVMemberCount
p2398
I0
sVOwnerUin
p2399
I0
sVMemberList
p2400
g50
sVAlias
p2401
g52
sVPYQuanPin
p2402
VElaborate
p2403
sVSignature
p2404
V\u56de\u4e0d\u53bb\u7684\u8fc7\u53bb\uff0c\u731c\u4e0d\u900f\u7684\u4eba\u5fc3......
p2405
sVRemarkPYInitial
p2406
g52
sVContactFlag
p2407
I3
sVUin
p2408
I0
sVNickName
p2409
VElaborate
p2410
sVAppAccountFlag
p2411
I0
sVVerifyFlag
p2412
I0
sVRemarkPYQuanPin
p2413
g52
sVHeadImgUrl
p2414
V/cgi-bin/mmwebwx-bin/webwxgeticon?seq=668528973&username=@2393abd2750b2f14f07af50fcc574a1a4a4dfedd08b728732a0d52f3b47a06b3&skey=@crypt_6353e9d_c05b3ff3a1f7b536c85fc996d814cf64
p2415
sVKeyWord
p2416
g52
sVProvince
p2417
V\u6c5f\u82cf
p2418
sVPYInitial
p2419
VELABORATE
p2420
sVRemarkName
p2421
g52
sVIsOwner
p2422
I0
sVSex
p2423
I2
sVStarFriend
p2424
I0
sVHideInputBarFlag
p2425
I0
sVChatRoomId
p2426
I0
sVEncryChatRoomId
p2427
g52
sVAttrStatus
p2428
I33659943
sVStatues
p2429
I0
stp2430
Rp2431
I1
bag34
(g38
g39
(dp2432
VUserName
p2433
V@628d61367c9c63738c9bca1c77f4b03aaac6bff352a876c0d7432b2202bd6b31
p2434
sVCity
p2435
V\u6cf0\u5dde
p2436
sVSnsFlag
p2437
I17
sVDisplayName
p2438
g52
sVUniFriend
p2439
I0
sVMemberCount
p2440
I0
sVOwnerUin
p2441
I0
sVMemberList
p2442
g50
sVAlias
p2443
g52
sVPYQuanPin
p2444
VHY
p2445
sVSignature
p2446
g52
sVRemarkPYInitial
p2447
g52
sVContactFlag
p2448
I3
sVUin
p2449
I0
sVNickName
p2450
VHY\u3002
p2451
sVAppAccountFlag
p2452
I0
sVVerifyFlag
p2453
I0
sVRemarkPYQuanPin
p2454
g52
sVHeadImgUrl
p2455
V/cgi-bin/mmwebwx-bin/webwxgeticon?seq=668542995&username=@628d61367c9c63738c9bca1c77f4b03aaac6bff352a876c0d7432b2202bd6b31&skey=@crypt_6353e9d_c05b3ff3a1f7b536c85fc996d814cf64
p2456
sVKeyWord
p2457
g52
sVProvince
p2458
V\u6c5f\u82cf
p2459
sVPYInitial
p2460
VHY
p2461
sVRemarkName
p2462
g52
sVIsOwner
p2463
I0
sVSex
p2464
I2
sVStarFriend
p2465
I0
sVHideInputBarFlag
p2466
I0
sVChatRoomId
p2467
I0
sVEncryChatRoomId
p2468
g52
sVAttrStatus
p2469
I103013
sVStatues
p2470
I0
stp2471
Rp2472
I1
bag34
(g38
g39
(dp2473
VUserName
p2474
V@abef0a6c0f32089f5da3f33379901b13
p2475
sVCity
p2476
V\u5927\u540c
p2477
sVSnsFlag
p2478
I17
sVDisplayName
p2479
g52
sVUniFriend
p2480
I0
sVMemberCount
p2481
I0
sVOwnerUin
p2482
I0
sVMemberList
p2483
g50
sVAlias
p2484
g52
sVPYQuanPin
p2485
Vcaowei
p2486
sVSignature
p2487
V\u4f60\u662f\u94e0\u7532\u4e5f\u662f\u8f6f\u808b
p2488
sVRemarkPYInitial
p2489
g52
sVContactFlag
p2490
I3
sVUin
p2491
I0
sVNickName
p2492
V\u66f9\u7eac
p2493
sVAppAccountFlag
p2494
I0
sVVerifyFlag
p2495
I0
sVRemarkPYQuanPin
p2496
g52
sVHeadImgUrl
p2497
V/cgi-bin/mmwebwx-bin/webwxgeticon?seq=668541249&username=@abef0a6c0f32089f5da3f33379901b13&skey=@crypt_6353e9d_c05b3ff3a1f7b536c85fc996d814cf64
p2498
sVKeyWord
p2499
Vwei
p2500
sVProvince
p2501
V\u5c71\u897f
p2502
sVPYInitial
p2503
VCW
p2504
sVRemarkName
p2505
g52
sVIsOwner
p2506
I0
sVSex
p2507
I1
sVStarFriend
p2508
I0
sVHideInputBarFlag
p2509
I0
sVChatRoomId
p2510
I0
sVEncryChatRoomId
p2511
g52
sVAttrStatus
p2512
I102847
sVStatues
p2513
I0
stp2514
Rp2515
I1
bag34
(g38
g39
(dp2516
VUserName
p2517
V@3ad363b06b86c223cab423241b7bd17e7020b10ac0043b91a30dc93599d4d94c
p2518
sVCity
p2519
g52
sVSnsFlag
p2520
I1
sVDisplayName
p2521
g52
sVUniFriend
p2522
I0
sVMemberCount
p2523
I0
sVOwnerUin
p2524
I0
sVMemberList
p2525
g50
sVAlias
p2526
g52
sVPYQuanPin
p2527
VBetterman
p2528
sVSignature
p2529
V\u7231\u4e00\u4eba\u7ec8\u8001
p2530
sVRemarkPYInitial
p2531
VWL
p2532
sVContactFlag
p2533
I1
sVUin
p2534
I0
sVNickName
p2535
VBetter man
p2536
sVAppAccountFlag
p2537
I0
sVVerifyFlag
p2538
I0
sVRemarkPYQuanPin
p2539
Vwanglei
p2540
sVHeadImgUrl
p2541
V/cgi-bin/mmwebwx-bin/webwxgeticon?seq=668543313&username=@3ad363b06b86c223cab423241b7bd17e7020b10ac0043b91a30dc93599d4d94c&skey=@crypt_6353e9d_c05b3ff3a1f7b536c85fc996d814cf64
p2542
sVKeyWord
p2543
g52
sVProvince
p2544
VDubayy
p2545
sVPYInitial
p2546
VBETTERMAN
p2547
sVRemarkName
p2548
V\u738b\u78ca
p2549
sVIsOwner
p2550
I0
sVSex
p2551
I1
sVStarFriend
p2552
I0
sVHideInputBarFlag
p2553
I0
sVChatRoomId
p2554
I0
sVEncryChatRoomId
p2555
g52
sVAttrStatus
p2556
I104485
sVStatues
p2557
I0
stp2558
Rp2559
I1
bag34
(g38
g39
(dp2560
VUserName
p2561
V@d0a42c9a26057974211d3cad83652117
p2562
sVCity
p2563
V\u5357\u4eac
p2564
sVSnsFlag
p2565
I49
sVDisplayName
p2566
g52
sVUniFriend
p2567
I0
sVMemberCount
p2568
I0
sVOwnerUin
p2569
I0
sVMemberList
p2570
g50
sVAlias
p2571
g52
sVPYQuanPin
p2572
Vedceezyyy
p2573
sVSignature
p2574
V      \u5b66\u4f1a\u8046\u542c
p2575
sVRemarkPYInitial
p2576
VGL
p2577
sVContactFlag
p2578
I3
sVUin
p2579
I0
sVNickName
p2580
Vedceezyyy.
p2581
sVAppAccountFlag
p2582
I0
sVVerifyFlag
p2583
I0
sVRemarkPYQuanPin
p2584
Vgaoli
p2585
sVHeadImgUrl
p2586
V/cgi-bin/mmwebwx-bin/webwxgeticon?seq=668527170&username=@d0a42c9a26057974211d3cad83652117&skey=@crypt_6353e9d_c05b3ff3a1f7b536c85fc996d814cf64
p2587
sVKeyWord
p2588
Vglx
p2589
sVProvince
p2590
V\u6c5f\u82cf
p2591
sVPYInitial
p2592
VEDCEEZYYY
p2593
sVRemarkName
p2594
V\u9ad8\u529b
p2595
sVIsOwner
p2596
I0
sVSex
p2597
I1
sVStarFriend
p2598
I0
sVHideInputBarFlag
p2599
I0
sVChatRoomId
p2600
I0
sVEncryChatRoomId
p2601
g52
sVAttrStatus
p2602
I100711
sVStatues
p2603
I0
stp2604
Rp2605
I1
bag34
(g38
g39
(dp2606
VUserName
p2607
V@3f792a6a147ae560941c8ee8d86cbd0e658f8a904932f7e12deb3b5e2a55db53
p2608
sVCity
p2609
V\u5357\u4eac
p2610
sVSnsFlag
p2611
I17
sVDisplayName
p2612
g52
sVUniFriend
p2613
I0
sVMemberCount
p2614
I0
sVOwnerUin
p2615
I0
sVMemberList
p2616
g50
sVAlias
p2617
g52
sVPYQuanPin
p2618
Vzhuifengshaonianyourenai
p2619
sVSignature
p2620
g52
sVRemarkPYInitial
p2621
g52
sVContactFlag
p2622
I3
sVUin
p2623
I0
sVNickName
p2624
V\u8ffd\u98ce\u5c11\u5e74\u6709\u4eba\u7231
p2625
sVAppAccountFlag
p2626
I0
sVVerifyFlag
p2627
I0
sVRemarkPYQuanPin
p2628
g52
sVHeadImgUrl
p2629
V/cgi-bin/mmwebwx-bin/webwxgeticon?seq=668524978&username=@3f792a6a147ae560941c8ee8d86cbd0e658f8a904932f7e12deb3b5e2a55db53&skey=@crypt_6353e9d_c05b3ff3a1f7b536c85fc996d814cf64
p2630
sVKeyWord
p2631
g52
sVProvince
p2632
V\u6c5f\u82cf
p2633
sVPYInitial
p2634
VZFSNYRA
p2635
sVRemarkName
p2636
g52
sVIsOwner
p2637
I0
sVSex
p2638
I1
sVStarFriend
p2639
I0
sVHideInputBarFlag
p2640
I0
sVChatRoomId
p2641
I0
sVEncryChatRoomId
p2642
g52
sVAttrStatus
p2643
I33558845
sVStatues
p2644
I0
stp2645
Rp2646
I1
bag34
(g38
g39
(dp2647
VUserName
p2648
V@8860c7a9404b9fe181de30b144f8a2f32cfcbd50141adc3dcffe308b8e156801
p2649
sVCity
p2650
V\u626c\u5dde
p2651
sVSnsFlag
p2652
I49
sVDisplayName
p2653
g52
sVUniFriend
p2654
I0
sVMemberCount
p2655
I0
sVOwnerUin
p2656
I0
sVMemberList
p2657
g50
sVAlias
p2658
g52
sVPYQuanPin
p2659
Vspanclassemojiemoji1f451spanzhenyuya
p2660
sVSignature
p2661
V\u77e5\u4eba\u4e0d\u8bc4\u4eba
p2662
sVRemarkPYInitial
p2663
g52
sVContactFlag
p2664
I3
sVUin
p2665
I0
sVNickName
p2666
V\U0001f451\u632f\u5b87\u5440\uff01
p2667
sVAppAccountFlag
p2668
I0
sVVerifyFlag
p2669
I0
sVRemarkPYQuanPin
p2670
g52
sVHeadImgUrl
p2671
V/cgi-bin/mmwebwx-bin/webwxgeticon?seq=668543926&username=@8860c7a9404b9fe181de30b144f8a2f32cfcbd50141adc3dcffe308b8e156801&skey=@crypt_6353e9d_c05b3ff3a1f7b536c85fc996d814cf64
p2672
sVKeyWord
p2673
g52
sVProvince
p2674
V\u6c5f\u82cf
p2675
sVPYInitial
p2676
VSPANCLASSEMOJIEMOJI1F451SPANZYY
p2677
sVRemarkName
p2678
g52
sVIsOwner
p2679
I0
sVSex
p2680
I2
sVStarFriend
p2681
I0
sVHideInputBarFlag
p2682
I0
sVChatRoomId
p2683
I0
sVEncryChatRoomId
p2684
g52
sVAttrStatus
p2685
I98341
sVStatues
p2686
I0
stp2687
Rp2688
I1
bag34
(g38
g39
(dp2689
VUserName
p2690
V@e304d1cbf26c8c92fc4a7917c2931d80b202c04b51a4b6834500c5111567cae7
p2691
sVCity
p2692
V\u626c\u5dde
p2693
sVSnsFlag
p2694
I17
sVDisplayName
p2695
g52
sVUniFriend
p2696
I0
sVMemberCount
p2697
I0
sVOwnerUin
p2698
I0
sVMemberList
p2699
g50
sVAlias
p2700
g52
sVPYQuanPin
p2701
Vqiongyuezhilingyin
p2702
sVSignature
p2703
V\u6709\u7f18\u5343\u91cc\u6765\u76f8\u4f1a\uff0c\u65e0\u7f18\u76f8\u89c1\u4e0d\u76f8\u8bc6
p2704
sVRemarkPYInitial
p2705
VJY
p2706
sVContactFlag
p2707
I3
sVUin
p2708
I0
sVNickName
p2709
V\u743c\u6708\u4e4b\u94c3\u97f3
p2710
sVAppAccountFlag
p2711
I0
sVVerifyFlag
p2712
I0
sVRemarkPYQuanPin
p2713
Vjiangyu
p2714
sVHeadImgUrl
p2715
V/cgi-bin/mmwebwx-bin/webwxgeticon?seq=668509252&username=@e304d1cbf26c8c92fc4a7917c2931d80b202c04b51a4b6834500c5111567cae7&skey=@crypt_6353e9d_c05b3ff3a1f7b536c85fc996d814cf64
p2716
sVKeyWord
p2717
g52
sVProvince
p2718
V\u6c5f\u82cf
p2719
sVPYInitial
p2720
VQYZLY
p2721
sVRemarkName
p2722
V\u59dc\u5b87
p2723
sVIsOwner
p2724
I0
sVSex
p2725
I1
sVStarFriend
p2726
I0
sVHideInputBarFlag
p2727
I0
sVChatRoomId
p2728
I0
sVEncryChatRoomId
p2729
g52
sVAttrStatus
p2730
I33789925
sVStatues
p2731
I0
stp2732
Rp2733
I1
bag34
(g38
g39
(dp2734
VUserName
p2735
V@a94aca0ef152d69a99b21bfeb3ba143efe9d56278036437f02589b56137b2f90
p2736
sVCity
p2737
V\u6d66\u4e1c\u65b0\u533a
p2738
sVSnsFlag
p2739
I17
sVDisplayName
p2740
g52
sVUniFriend
p2741
I0
sVMemberCount
p2742
I0
sVOwnerUin
p2743
I0
sVMemberList
p2744
g50
sVAlias
p2745
g52
sVPYQuanPin
p2746
Vmizhixiaomonkey
p2747
sVSignature
p2748
V\u751f\u6d3b\u603b\u662f\u4e00\u5982\u65e2\u5f80\u7684\u5e73\u6de1
p2749
sVRemarkPYInitial
p2750
VLJJ
p2751
sVContactFlag
p2752
I8195
sVUin
p2753
I0
sVNickName
p2754
V\u8ff7\u4e4b\u5c0fmonkey\uff40
p2755
sVAppAccountFlag
p2756
I0
sVVerifyFlag
p2757
I0
sVRemarkPYQuanPin
p2758
Vluojingjing
p2759
sVHeadImgUrl
p2760
V/cgi-bin/mmwebwx-bin/webwxgeticon?seq=668541107&username=@a94aca0ef152d69a99b21bfeb3ba143efe9d56278036437f02589b56137b2f90&skey=@crypt_6353e9d_c05b3ff3a1f7b536c85fc996d814cf64
p2761
sVKeyWord
p2762
Vrug
p2763
sVProvince
p2764
V\u4e0a\u6d77
p2765
sVPYInitial
p2766
VMZXMONKEY
p2767
sVRemarkName
p2768
V\u7f57\u9759\u9759
p2769
sVIsOwner
p2770
I0
sVSex
p2771
I2
sVStarFriend
p2772
I0
sVHideInputBarFlag
p2773
I0
sVChatRoomId
p2774
I0
sVEncryChatRoomId
p2775
g52
sVAttrStatus
p2776
I104487
sVStatues
p2777
I0
stp2778
Rp2779
I1
bag34
(g38
g39
(dp2780
VUserName
p2781
V@a12187014ea1ad728e638455e1e64783dfa8de9eec8a8e134807bfc52a2b9901
p2782
sVCity
p2783
g52
sVSnsFlag
p2784
I49
sVDisplayName
p2785
g52
sVUniFriend
p2786
I0
sVMemberCount
p2787
I0
sVOwnerUin
p2788
I0
sVMemberList
p2789
g50
sVAlias
p2790
g52
sVPYQuanPin
p2791
Vfanfanzhibei
p2792
sVSignature
p2793
V\u5927\u96e8\u5c06\u81f3\uff0c\u4e07\u7269\u5f52\u606f
p2794
sVRemarkPYInitial
p2795
g52
sVContactFlag
p2796
I3
sVUin
p2797
I0
sVNickName
p2798
V\u6cdb\u6cdb\u4e4b\u8f88
p2799
sVAppAccountFlag
p2800
I0
sVVerifyFlag
p2801
I0
sVRemarkPYQuanPin
p2802
g52
sVHeadImgUrl
p2803
V/cgi-bin/mmwebwx-bin/webwxgeticon?seq=668544225&username=@a12187014ea1ad728e638455e1e64783dfa8de9eec8a8e134807bfc52a2b9901&skey=@crypt_6353e9d_c05b3ff3a1f7b536c85fc996d814cf64
p2804
sVKeyWord
p2805
g52
sVProvince
p2806
VFatima
p2807
sVPYInitial
p2808
VFFZB
p2809
sVRemarkName
p2810
g52
sVIsOwner
p2811
I0
sVSex
p2812
I2
sVStarFriend
p2813
I0
sVHideInputBarFlag
p2814
I0
sVChatRoomId
p2815
I0
sVEncryChatRoomId
p2816
g52
sVAttrStatus
p2817
I201061
sVStatues
p2818
I0
stp2819
Rp2820
I1
bag34
(g38
g39
(dp2821
VUserName
p2822
V@ac654cc69c774ccad815266a927e6af0
p2823
sVCity
p2824
g52
sVSnsFlag
p2825
I49
sVDisplayName
p2826
g52
sVUniFriend
p2827
I0
sVMemberCount
p2828
I0
sVOwnerUin
p2829
I0
sVMemberList
p2830
g50
sVAlias
p2831
g52
sVPYQuanPin
p2832
Vsheng
p2833
sVSignature
p2834
V\u771f\u60c5\u79d2\u609f\u94f8\u6587\u7ae0
p2835
sVRemarkPYInitial
p2836
VCS
p2837
sVContactFlag
p2838
I3
sVUin
p2839
I0
sVNickName
p2840
Vsheng
p2841
sVAppAccountFlag
p2842
I0
sVVerifyFlag
p2843
I0
sVRemarkPYQuanPin
p2844
Vchengsheng
p2845
sVHeadImgUrl
p2846
V/cgi-bin/mmwebwx-bin/webwxgeticon?seq=668531668&username=@ac654cc69c774ccad815266a927e6af0&skey=@crypt_6353e9d_c05b3ff3a1f7b536c85fc996d814cf64
p2847
sVKeyWord
p2848
Vcs7
p2849
sVProvince
p2850
V\u5317\u4eac
p2851
sVPYInitial
p2852
VSHENG
p2853
sVRemarkName
p2854
V\u6210\u5723
p2855
sVIsOwner
p2856
I0
sVSex
p2857
I1
sVStarFriend
p2858
I0
sVHideInputBarFlag
p2859
I0
sVChatRoomId
p2860
I0
sVEncryChatRoomId
p2861
g52
sVAttrStatus
p2862
I110695
sVStatues
p2863
I0
stp2864
Rp2865
I1
bag34
(g38
g39
(dp2866
VUserName
p2867
V@05d224cb9615d20e40d9eb0d3527857daf525ba6cdc80de187a2e564f7d4bbdb
p2868
sVCity
p2869
g52
sVSnsFlag
p2870
I49
sVDisplayName
p2871
g52
sVUniFriend
p2872
I0
sVMemberCount
p2873
I0
sVOwnerUin
p2874
I0
sVMemberList
p2875
g50
sVAlias
p2876
g52
sVPYQuanPin
p2877
Vspanclassemojiemoji1f389spanyispanclassemojiemoji1f48bspanspanclassemojiemoji1f618span
p2878
sVSignature
p2879
V^-^
p2880
sVRemarkPYInitial
p2881
g52
sVContactFlag
p2882
I3
sVUin
p2883
I0
sVNickName
p2884
V\U0001f389\u794e\U0001f48b\U0001f618
p2885
sVAppAccountFlag
p2886
I0
sVVerifyFlag
p2887
I0
sVRemarkPYQuanPin
p2888
g52
sVHeadImgUrl
p2889
V/cgi-bin/mmwebwx-bin/webwxgeticon?seq=668544667&username=@05d224cb9615d20e40d9eb0d3527857daf525ba6cdc80de187a2e564f7d4bbdb&skey=@crypt_6353e9d_c05b3ff3a1f7b536c85fc996d814cf64
p2890
sVKeyWord
p2891
g52
sVProvince
p2892
g52
sVPYInitial
p2893
VSPANCLASSEMOJIEMOJI1F389SPANYSPANCLASSEMOJIEMOJI1F48BSPANSPANCLASSEMOJIEMOJI1F618SPAN
p2894
sVRemarkName
p2895
g52
sVIsOwner
p2896
I0
sVSex
p2897
I2
sVStarFriend
p2898
I0
sVHideInputBarFlag
p2899
I0
sVChatRoomId
p2900
I0
sVEncryChatRoomId
p2901
g52
sVAttrStatus
p2902
I104893
sVStatues
p2903
I0
stp2904
Rp2905
I1
bag34
(g38
g39
(dp2906
VUserName
p2907
V@448e92021da0fe8ff98ca967b792a1562578ed37b85efe14a7af38a8d91ac313
p2908
sVCity
p2909
V\u5b89\u5e86
p2910
sVSnsFlag
p2911
I17
sVDisplayName
p2912
g52
sVUniFriend
p2913
I0
sVMemberCount
p2914
I0
sVOwnerUin
p2915
I0
sVMemberList
p2916
g50
sVAlias
p2917
g52
sVPYQuanPin
p2918
Vzhamaodeciwei
p2919
sVSignature
p2920
V\u6211\u5f53\u65f6\u5c31\u660e\u767d\u4e86\uff0c\u4f60\u8fd8\u662f\u5f53\u521d\u7684\u4f60\uff0c\u6240\u4ee5\u6211\u8bf4\uff0c\u6709\u7f18\u518d\u89c1\u2026\u2026
p2921
sVRemarkPYInitial
p2922
VZMY
p2923
sVContactFlag
p2924
I3
sVUin
p2925
I0
sVNickName
p2926
V\u70b8\u6bdb\u7684\u523a\u732c
p2927
sVAppAccountFlag
p2928
I0
sVVerifyFlag
p2929
I0
sVRemarkPYQuanPin
p2930
Vzhangmeiyuan
p2931
sVHeadImgUrl
p2932
V/cgi-bin/mmwebwx-bin/webwxgeticon?seq=668508056&username=@448e92021da0fe8ff98ca967b792a1562578ed37b85efe14a7af38a8d91ac313&skey=@crypt_6353e9d_c05b3ff3a1f7b536c85fc996d814cf64
p2933
sVKeyWord
p2934
g52
sVProvince
p2935
V\u5b89\u5fbd
p2936
sVPYInitial
p2937
VZMDCW
p2938
sVRemarkName
p2939
V\u5f20\u6885\u5a9b
p2940
sVIsOwner
p2941
I0
sVSex
p2942
I2
sVStarFriend
p2943
I0
sVHideInputBarFlag
p2944
I0
sVChatRoomId
p2945
I0
sVEncryChatRoomId
p2946
g52
sVAttrStatus
p2947
I105573
sVStatues
p2948
I0
stp2949
Rp2950
I1
bag34
(g38
g39
(dp2951
VUserName
p2952
V@7a50205a007b5239b82d48c53746e299d7c6aeddc420736a648f732883017db9
p2953
sVCity
p2954
g52
sVSnsFlag
p2955
I1
sVDisplayName
p2956
g52
sVUniFriend
p2957
I0
sVMemberCount
p2958
I0
sVOwnerUin
p2959
I0
sVMemberList
p2960
g50
sVAlias
p2961
g52
sVPYQuanPin
p2962
VApache
p2963
sVSignature
p2964
V\u4e00\u6b65\u4e00\u4e2a\u811a\u5370
p2965
sVRemarkPYInitial
p2966
VLC
p2967
sVContactFlag
p2968
I3
sVUin
p2969
I0
sVNickName
p2970
VApache
p2971
sVAppAccountFlag
p2972
I0
sVVerifyFlag
p2973
I0
sVRemarkPYQuanPin
p2974
Vleichao
p2975
sVHeadImgUrl
p2976
V/cgi-bin/mmwebwx-bin/webwxgeticon?seq=668532847&username=@7a50205a007b5239b82d48c53746e299d7c6aeddc420736a648f732883017db9&skey=@crypt_6353e9d_c05b3ff3a1f7b536c85fc996d814cf64
p2977
sVKeyWord
p2978
g52
sVProvince
p2979
g52
sVPYInitial
p2980
VAPACHE
p2981
sVRemarkName
p2982
V\u96f7\u8d85
p2983
sVIsOwner
p2984
I0
sVSex
p2985
I1
sVStarFriend
p2986
I0
sVHideInputBarFlag
p2987
I0
sVChatRoomId
p2988
I0
sVEncryChatRoomId
p2989
g52
sVAttrStatus
p2990
I4133
sVStatues
p2991
I0
stp2992
Rp2993
I1
bag34
(g38
g39
(dp2994
VUserName
p2995
V@cd5df4a23bcbed6ffbd731bea0f1eda90a43654ea5dab010d5d1df0934cc000c
p2996
sVCity
p2997
V\u9633\u6cc9
p2998
sVSnsFlag
p2999
I1
sVDisplayName
p3000
g52
sVUniFriend
p3001
I0
sVMemberCount
p3002
I0
sVOwnerUin
p3003
I0
sVMemberList
p3004
g50
sVAlias
p3005
g52
sVPYQuanPin
p3006
Vshanvzhi
p3007
sVSignature
p3008
V\u6709\u4e9b\u4e8b\u4e0d\u8bf4\u662f\u4e2a\u7ed3\uff0c\u8bf4\u4e86\u662f\u6761\u75a4
p3009
sVRemarkPYInitial
p3010
g52
sVContactFlag
p3011
I8195
sVUin
p3012
I0
sVNickName
p3013
V\u50bb\u5973\u7eb8
p3014
sVAppAccountFlag
p3015
I0
sVVerifyFlag
p3016
I0
sVRemarkPYQuanPin
p3017
g52
sVHeadImgUrl
p3018
V/cgi-bin/mmwebwx-bin/webwxgeticon?seq=668543515&username=@cd5df4a23bcbed6ffbd731bea0f1eda90a43654ea5dab010d5d1df0934cc000c&skey=@crypt_6353e9d_c05b3ff3a1f7b536c85fc996d814cf64
p3019
sVKeyWord
p3020
g52
sVProvince
p3021
V\u5c71\u897f
p3022
sVPYInitial
p3023
VSNZ
p3024
sVRemarkName
p3025
g52
sVIsOwner
p3026
I0
sVSex
p3027
I2
sVStarFriend
p3028
I0
sVHideInputBarFlag
p3029
I0
sVChatRoomId
p3030
I0
sVEncryChatRoomId
p3031
g52
sVAttrStatus
p3032
I102501
sVStatues
p3033
I0
stp3034
Rp3035
I1
batp3036
Rp3037
I1
bsS'chatroomList'
p3038
g34
(g35
g36
(lp3039
g34
(citchat.storage.templates
Chatroom
p3040
g39
(dp3041
VUserName
p3042
V@@c402fcbad2d4efbc034da063386c804b9e611d8064fe9e55d2b04780b708d456
p3043
sVCity
p3044
g52
sVDisplayName
p3045
g52
sVUniFriend
p3046
I0
sS'Self'
p3047
g34
(g38
g39
(dp3048
g41
g31
sg42
g43
sg44
g43
sg45
I0
sg46
I0
sg47
g34
(g35
g36
(lp3049
tp3050
Rp3051
I1
bsg51
g52
sg53
g52
sg54
I1610532702
sg55
I0
sg56
I0
sg57
g43
sg58
g43
sg59
g52
sg60
g52
sg61
I0
sg62
I0
sg63
I1
sg64
g43
sg65
I0
sg66
I17
sg67
I0
sg68
I0
sg69
g43
sg70
g71
sg72
I0
sg73
g74
sg75
g52
sg76
g77
sg78
I1
sg79
I0
sg80
I0
stp3052
Rp3053
I1
bsVMemberList
p3054
g34
(g35
g36
(lp3055
tp3056
Rp3057
I1
bsVPYQuanPin
p3058
g52
sVRemarkPYInitial
p3059
g52
sVSex
p3060
I0
sVAppAccountFlag
p3061
I0
sVVerifyFlag
p3062
I0
sVProvince
p3063
g52
sVKeyWord
p3064
g52
sVRemarkName
p3065
g52
sVPYInitial
p3066
g52
sVIsOwner
p3067
I0
sVChatRoomId
p3068
I0
sVHideInputBarFlag
p3069
I0
sVEncryChatRoomId
p3070
g52
sVAttrStatus
p3071
I0
sVSnsFlag
p3072
I0
sVMemberCount
p3073
I499
sVOwnerUin
p3074
I0
sVAlias
p3075
g52
sS'IsAdmin'
p3076
NsVSignature
p3077
g52
sVContactFlag
p3078
I0
sVNickName
p3079
V\u5168\u56fd\u5343\u6240\u9ad8\u6821\u5927\u6570\u636e\u5e08\u8d44\u8bb2\u4e60\u73ed
p3080
sVRemarkPYQuanPin
p3081
g52
sVHeadImgUrl
p3082
V/cgi-bin/mmwebwx-bin/webwxgetheadimg?seq=0&username=@@c402fcbad2d4efbc034da063386c804b9e611d8064fe9e55d2b04780b708d456&skey=@crypt_6353e9d_c05b3ff3a1f7b536c85fc996d814cf64
p3083
sVUin
p3084
I0
sVStarFriend
p3085
I0
sVStatues
p3086
I0
stp3087
Rp3088
I1
bag34
(g3040
g39
(dp3089
VUserName
p3090
V@@53e80d07fd9385afc21b95e3753d9688e178c1288e5753f9675e9a276c610109
p3091
sVCity
p3092
g52
sVDisplayName
p3093
g52
sVUniFriend
p3094
I0
sg3047
g34
(g38
g39
(dp3095
g41
g31
sg42
g43
sg44
g43
sg45
I0
sg46
I0
sg47
g34
(g35
g36
(lp3096
tp3097
Rp3098
I1
bsg51
g52
sg53
g52
sg54
I1610532702
sg55
I0
sg56
I0
sg57
g43
sg58
g43
sg59
g52
sg60
g52
sg61
I0
sg62
I0
sg63
I1
sg64
g43
sg65
I0
sg66
I17
sg67
I0
sg68
I0
sg69
g43
sg70
g71
sg72
I0
sg73
g74
sg75
g52
sg76
g77
sg78
I1
sg79
I0
sg80
I0
stp3099
Rp3100
I1
bsVMemberList
p3101
g34
(g35
g36
(lp3102
tp3103
Rp3104
I1
bsVPYQuanPin
p3105
g52
sVRemarkPYInitial
p3106
g52
sVSex
p3107
I0
sVAppAccountFlag
p3108
I0
sVVerifyFlag
p3109
I0
sVProvince
p3110
g52
sVKeyWord
p3111
g52
sVRemarkName
p3112
g52
sVPYInitial
p3113
g52
sVIsOwner
p3114
I0
sVChatRoomId
p3115
I0
sVHideInputBarFlag
p3116
I0
sVEncryChatRoomId
p3117
g52
sVAttrStatus
p3118
I0
sVSnsFlag
p3119
I0
sVMemberCount
p3120
I11
sVOwnerUin
p3121
I0
sVAlias
p3122
g52
sg3076
NsVSignature
p3123
g52
sVContactFlag
p3124
I0
sVNickName
p3125
VSingle Dogs
p3126
sVRemarkPYQuanPin
p3127
g52
sVHeadImgUrl
p3128
V/cgi-bin/mmwebwx-bin/webwxgetheadimg?seq=0&username=@@53e80d07fd9385afc21b95e3753d9688e178c1288e5753f9675e9a276c610109&skey=@crypt_6353e9d_c05b3ff3a1f7b536c85fc996d814cf64
p3129
sVUin
p3130
I0
sVStarFriend
p3131
I0
sVStatues
p3132
I1
stp3133
Rp3134
I1
bag34
(g3040
g39
(dp3135
VUserName
p3136
V@@8ec621df44c0d4bc81b22817e20da423c9de7d1390344a7f2bd4972a6ed65d38
p3137
sVCity
p3138
g52
sVDisplayName
p3139
g52
sVUniFriend
p3140
I0
sg3047
g34
(g38
g39
(dp3141
g41
g31
sg42
g43
sg44
g43
sg45
I0
sg46
I0
sg47
g34
(g35
g36
(lp3142
tp3143
Rp3144
I1
bsg51
g52
sg53
g52
sg54
I1610532702
sg55
I0
sg56
I0
sg57
g43
sg58
g43
sg59
g52
sg60
g52
sg61
I0
sg62
I0
sg63
I1
sg64
g43
sg65
I0
sg66
I17
sg67
I0
sg68
I0
sg69
g43
sg70
g71
sg72
I0
sg73
g74
sg75
g52
sg76
g77
sg78
I1
sg79
I0
sg80
I0
stp3145
Rp3146
I1
bsVMemberList
p3147
g34
(g35
g36
(lp3148
tp3149
Rp3150
I1
bsVPYQuanPin
p3151
g52
sVRemarkPYInitial
p3152
g52
sVSex
p3153
I0
sVAppAccountFlag
p3154
I0
sVVerifyFlag
p3155
I0
sVProvince
p3156
g52
sVKeyWord
p3157
g52
sVRemarkName
p3158
g52
sVPYInitial
p3159
g52
sVIsOwner
p3160
I0
sVChatRoomId
p3161
I0
sVHideInputBarFlag
p3162
I0
sVEncryChatRoomId
p3163
g52
sVAttrStatus
p3164
I0
sVSnsFlag
p3165
I0
sVMemberCount
p3166
I10
sVOwnerUin
p3167
I0
sVAlias
p3168
g52
sg3076
NsVSignature
p3169
g52
sVContactFlag
p3170
I0
sVNickName
p3171
V\u519c\u836f\u8054\u76df
p3172
sVRemarkPYQuanPin
p3173
g52
sVHeadImgUrl
p3174
V/cgi-bin/mmwebwx-bin/webwxgetheadimg?seq=0&username=@@8ec621df44c0d4bc81b22817e20da423c9de7d1390344a7f2bd4972a6ed65d38&skey=@crypt_6353e9d_c05b3ff3a1f7b536c85fc996d814cf64
p3175
sVUin
p3176
I0
sVStarFriend
p3177
I0
sVStatues
p3178
I1
stp3179
Rp3180
I1
bag34
(g3040
g39
(dp3181
VUserName
p3182
V@@11fc5c142f7b9988a0c2df55cbf500a155434d35f22c1bb2e0606ab77e7c3e19
p3183
sVCity
p3184
g52
sVDisplayName
p3185
g52
sVUniFriend
p3186
I0
sg3047
g34
(g38
g39
(dp3187
g41
g31
sg42
g43
sg44
g43
sg45
I0
sg46
I0
sg47
g34
(g35
g36
(lp3188
tp3189
Rp3190
I1
bsg51
g52
sg53
g52
sg54
I1610532702
sg55
I0
sg56
I0
sg57
g43
sg58
g43
sg59
g52
sg60
g52
sg61
I0
sg62
I0
sg63
I1
sg64
g43
sg65
I0
sg66
I17
sg67
I0
sg68
I0
sg69
g43
sg70
g71
sg72
I0
sg73
g74
sg75
g52
sg76
g77
sg78
I1
sg79
I0
sg80
I0
stp3191
Rp3192
I1
bsVMemberList
p3193
g34
(g35
g36
(lp3194
tp3195
Rp3196
I1
bsVPYQuanPin
p3197
g52
sVRemarkPYInitial
p3198
g52
sVSex
p3199
I0
sVAppAccountFlag
p3200
I0
sVVerifyFlag
p3201
I0
sVProvince
p3202
g52
sVKeyWord
p3203
g52
sVRemarkName
p3204
g52
sVPYInitial
p3205
g52
sVIsOwner
p3206
I0
sVChatRoomId
p3207
I0
sVHideInputBarFlag
p3208
I0
sVEncryChatRoomId
p3209
g52
sVAttrStatus
p3210
I0
sVSnsFlag
p3211
I0
sVMemberCount
p3212
I31
sVOwnerUin
p3213
I0
sVAlias
p3214
g52
sg3076
NsVSignature
p3215
g52
sVContactFlag
p3216
I2
sVNickName
p3217
V\u8fea\u8f6f\u8f6f\u4ef6
p3218
sVRemarkPYQuanPin
p3219
g52
sVHeadImgUrl
p3220
V/cgi-bin/mmwebwx-bin/webwxgetheadimg?seq=668539858&username=@@11fc5c142f7b9988a0c2df55cbf500a155434d35f22c1bb2e0606ab77e7c3e19&skey=@crypt_6353e9d_c05b3ff3a1f7b536c85fc996d814cf64
p3221
sVUin
p3222
I0
sVStarFriend
p3223
I0
sVStatues
p3224
I1
stp3225
Rp3226
I1
batp3227
Rp3228
I1
bsS'nickName'
p3229
g74
sS'mpList'
p3230
g34
(g35
g36
(lp3231
g34
(citchat.storage.templates
MassivePlatform
p3232
g39
(dp3233
VUserName
p3234
V@9bfbbfe3bc0d414be7b83ed49d7182c0
p3235
sVCity
p3236
V\u95f5\u884c
p3237
sVSnsFlag
p3238
I0
sVDisplayName
p3239
g52
sVUniFriend
p3240
I0
sVMemberCount
p3241
I0
sVOwnerUin
p3242
I0
sVMemberList
p3243
g50
sVAlias
p3244
g52
sVPYQuanPin
p3245
Velemewangshangdingcan
p3246
sVSignature
p3247
V\u997f\u4e86\u4e48\uff08http://ele.me\uff09\uff0c\u4e13\u4e1a\u7684\u5916\u5356\u8ba2\u9910\u7f51\u7ad9\uff0c\u6c47\u96c6\u5468\u8fb9\u7f8e\u98df\u5916\u5356\uff0c\u4e09\u952e\u4e0b\u5355\u65b9\u4fbf\u5feb\u6377\u3002\u670d\u52a1\u53f7\u76f4\u63a5\u4e0b\u5355\uff0c\u652f\u6301\u8d27\u5230\u4ed8\u6b3e\uff01
p3248
sVRemarkPYInitial
p3249
g52
sVContactFlag
p3250
I3
sVUin
p3251
I0
sVNickName
p3252
V\u997f\u4e86\u4e48\u7f51\u4e0a\u8ba2\u9910
p3253
sVAppAccountFlag
p3254
I0
sVVerifyFlag
p3255
I24
sVRemarkPYQuanPin
p3256
g52
sVHeadImgUrl
p3257
V/cgi-bin/mmwebwx-bin/webwxgeticon?seq=654290538&username=@9bfbbfe3bc0d414be7b83ed49d7182c0&skey=@crypt_6353e9d_c05b3ff3a1f7b536c85fc996d814cf64
p3258
sVKeyWord
p3259
Vgh_
p3260
sVProvince
p3261
V\u4e0a\u6d77
p3262
sVPYInitial
p3263
VELMWSDC
p3264
sVRemarkName
p3265
g52
sVIsOwner
p3266
I0
sVSex
p3267
I0
sVStarFriend
p3268
I0
sVHideInputBarFlag
p3269
I0
sVChatRoomId
p3270
I0
sVEncryChatRoomId
p3271
g52
sVAttrStatus
p3272
I0
sVStatues
p3273
I0
stp3274
Rp3275
I1
bag34
(g3232
g39
(dp3276
VUserName
p3277
V@dfeeb059d4bbd305ecf71b699d207f7b
p3278
sVCity
p3279
g52
sVSnsFlag
p3280
I0
sVDisplayName
p3281
g52
sVUniFriend
p3282
I0
sVMemberCount
p3283
I0
sVOwnerUin
p3284
I0
sVMemberList
p3285
g50
sVAlias
p3286
g52
sVPYQuanPin
p3287
VbotaohuiWeHotel
p3288
sVSignature
p3289
V\u94c2\u6d9b\u65c5\u884c\u4f5c\u4e3a\u4e2d\u56fd\u9152\u5e97\u4e1a\u6700\u5927\u5b98\u65b9\u76f4\u9500\u5e73\u53f0\uff0c\u73b0\u5df2\u6b63\u5f0f\u52a0\u5165WeHotel\u4f53\u7cfb\u3002\u4f1a\u5458\u9884\u8ba2\u4ecd\u4eab\u53d7\u5b98\u65b9\u76f4\u9500\u4ef7\u683c\uff0c\u8986\u76d67\u5929\u3001\u9e97\u67ab\u3001\u9526\u6c5f\u4e4b\u661f\u3001\u7ef4\u4e5f\u7eb3\u7b49\u5168\u740323\u4e2a\u54c1\u724c\u8d855000\u5bb6\u9152\u5e97\u3002\u6b64\u5916\uff0c\u8fd8\u53ef\u9884\u8ba2\u666f\u533a\u95e8\u7968\u3001\u6c11\u5bbf\u548c\u516c\u5bd3\u7b49\u4ea7\u54c1\uff0c\u5e76\u4eab\u53d7\u4f1a\u5458\u6298\u6263\u3001\u79ef\u5206\u548c\u6743\u76ca\uff01
p3290
sVRemarkPYInitial
p3291
g52
sVContactFlag
p3292
I3
sVUin
p3293
I0
sVNickName
p3294
V\u94c2\u6d9b\u4f1aWeHotel
p3295
sVAppAccountFlag
p3296
I0
sVVerifyFlag
p3297
I24
sVRemarkPYQuanPin
p3298
g52
sVHeadImgUrl
p3299
V/cgi-bin/mmwebwx-bin/webwxgeticon?seq=668530063&username=@dfeeb059d4bbd305ecf71b699d207f7b&skey=@crypt_6353e9d_c05b3ff3a1f7b536c85fc996d814cf64
p3300
sVKeyWord
p3301
Vgh_
p3302
sVProvince
p3303
V\u5e7f\u4e1c
p3304
sVPYInitial
p3305
VBTHWEHOTEL
p3306
sVRemarkName
p3307
g52
sVIsOwner
p3308
I0
sVSex
p3309
I0
sVStarFriend
p3310
I0
sVHideInputBarFlag
p3311
I0
sVChatRoomId
p3312
I0
sVEncryChatRoomId
p3313
g52
sVAttrStatus
p3314
I0
sVStatues
p3315
I0
stp3316
Rp3317
I1
bag34
(g3232
g39
(dp3318
VUserName
p3319
V@e7795ec80a8cc143003d244edfa40f78
p3320
sVCity
p3321
g52
sVSnsFlag
p3322
I0
sVDisplayName
p3323
g52
sVUniFriend
p3324
I0
sVMemberCount
p3325
I0
sVOwnerUin
p3326
I0
sVMemberList
p3327
g50
sVAlias
p3328
g52
sVPYQuanPin
p3329
Vweixinzhifu
p3330
sVSignature
p3331
V\u5e2e\u52a9\u89e3\u51b3\u5fae\u4fe1\u652f\u4ed8\u4e2d\u9047\u5230\u7684\u56f0\u96be\uff0c\u6536\u96c6\u5173\u4e8e\u5fae\u4fe1\u652f\u4ed8\u7684\u5efa\u8bae\u53cd\u9988\u3002
p3332
sVRemarkPYInitial
p3333
g52
sVContactFlag
p3334
I1
sVUin
p3335
I0
sVNickName
p3336
V\u5fae\u4fe1\u652f\u4ed8
p3337
sVAppAccountFlag
p3338
I0
sVVerifyFlag
p3339
I24
sVRemarkPYQuanPin
p3340
g52
sVHeadImgUrl
p3341
V/cgi-bin/mmwebwx-bin/webwxgeticon?seq=620390182&username=@e7795ec80a8cc143003d244edfa40f78&skey=@crypt_6353e9d_c05b3ff3a1f7b536c85fc996d814cf64
p3342
sVKeyWord
p3343
Vgh_
p3344
sVProvince
p3345
V\u5e7f\u4e1c
p3346
sVPYInitial
p3347
VWXZF
p3348
sVRemarkName
p3349
g52
sVIsOwner
p3350
I0
sVSex
p3351
I0
sVStarFriend
p3352
I0
sVHideInputBarFlag
p3353
I0
sVChatRoomId
p3354
I0
sVEncryChatRoomId
p3355
g52
sVAttrStatus
p3356
I0
sVStatues
p3357
I0
stp3358
Rp3359
I1
bag34
(g3232
g39
(dp3360
VUserName
p3361
V@cd715534fccbf50f127ab2952fa6b67a
p3362
sVCity
p3363
V\u6df1\u5733
p3364
sVSnsFlag
p3365
I0
sVDisplayName
p3366
g52
sVUniFriend
p3367
I0
sVMemberCount
p3368
I0
sVOwnerUin
p3369
I0
sVMemberList
p3370
g50
sVAlias
p3371
g52
sVPYQuanPin
p3372
g52
sVSignature
p3373
V\u8fd9\u91cc\u8bb0\u5f55\u60a8\u4e0e\u597d\u53cb\u7cbe\u5f69\u77ac\u95f4\uff0c\u66f4\u6709\u5929\u4e0b\u70ed\u70b9\u52a8\u6001\u3001\u767e\u59d3\u751f\u6d3b\u65b0\u9c9c\u4e8b\u4e3a\u60a8\u5448\u73b0\u3002\u817e\u8baf\u5fae\u535a\u4e0e\u60a8\u5e76\u80a9\u770b\u4e16\u754c\u3002
p3374
sVRemarkPYInitial
p3375
g52
sVContactFlag
p3376
I1
sVUin
p3377
I0
sVNickName
p3378
g52
sVAppAccountFlag
p3379
I0
sVVerifyFlag
p3380
I24
sVRemarkPYQuanPin
p3381
g52
sVHeadImgUrl
p3382
V/cgi-bin/mmwebwx-bin/webwxgeticon?seq=621170242&username=@cd715534fccbf50f127ab2952fa6b67a&skey=@crypt_6353e9d_c05b3ff3a1f7b536c85fc996d814cf64
p3383
sVKeyWord
p3384
Vgh_
p3385
sVProvince
p3386
V\u5e7f\u4e1c
p3387
sVPYInitial
p3388
g52
sVRemarkName
p3389
g52
sVIsOwner
p3390
I0
sVSex
p3391
I0
sVStarFriend
p3392
I0
sVHideInputBarFlag
p3393
I0
sVChatRoomId
p3394
I0
sVEncryChatRoomId
p3395
g52
sVAttrStatus
p3396
I0
sVStatues
p3397
I0
stp3398
Rp3399
I1
bag34
(g3232
g39
(dp3400
VUserName
p3401
V@5e4dfdabc7c6bdb0aefd7c7e870a7af4
p3402
sVCity
p3403
V\u626c\u5dde
p3404
sVSnsFlag
p3405
I0
sVDisplayName
p3406
g52
sVUniFriend
p3407
I0
sVMemberCount
p3408
I0
sVOwnerUin
p3409
I0
sVMemberList
p3410
g50
sVAlias
p3411
g52
sVPYQuanPin
p3412
Vwubutongmeishi
p3413
sVSignature
p3414
V\u5434\u4e0d\u540c\u7f8e\u98df\u63a8\u5e7f
p3415
sVRemarkPYInitial
p3416
g52
sVContactFlag
p3417
I3
sVUin
p3418
I0
sVNickName
p3419
V\u5434\u4e0d\u540c\u7f8e\u98df
p3420
sVAppAccountFlag
p3421
I0
sVVerifyFlag
p3422
I8
sVRemarkPYQuanPin
p3423
g52
sVHeadImgUrl
p3424
V/cgi-bin/mmwebwx-bin/webwxgeticon?seq=639440358&username=@5e4dfdabc7c6bdb0aefd7c7e870a7af4&skey=@crypt_6353e9d_c05b3ff3a1f7b536c85fc996d814cf64
p3425
sVKeyWord
p3426
Vgh_
p3427
sVProvince
p3428
V\u6c5f\u82cf
p3429
sVPYInitial
p3430
VWBTMS
p3431
sVRemarkName
p3432
g52
sVIsOwner
p3433
I0
sVSex
p3434
I0
sVStarFriend
p3435
I0
sVHideInputBarFlag
p3436
I0
sVChatRoomId
p3437
I0
sVEncryChatRoomId
p3438
g52
sVAttrStatus
p3439
I0
sVStatues
p3440
I0
stp3441
Rp3442
I1
bag34
(g3232
g39
(dp3443
VUserName
p3444
V@ea50a407169d6530d9f32e9be0712943
p3445
sVCity
p3446
V\u5357\u4eac
p3447
sVSnsFlag
p3448
I0
sVDisplayName
p3449
g52
sVUniFriend
p3450
I0
sVMemberCount
p3451
I0
sVOwnerUin
p3452
I0
sVMemberList
p3453
g50
sVAlias
p3454
g52
sVPYQuanPin
p3455
g52
sVSignature
p3456
V\u65b0\u9c9c\u8003\u7814\u8d44\u8baf\uff0c\u771f\u9898\u8d44\u6599\u5e72\u8d27\uff0c\u5c3d\u5728\u901a\u9014\u6559\u80b2\uff01
p3457
sVRemarkPYInitial
p3458
g52
sVContactFlag
p3459
I3
sVUin
p3460
I0
sVNickName
p3461
g52
sVAppAccountFlag
p3462
I0
sVVerifyFlag
p3463
I8
sVRemarkPYQuanPin
p3464
g52
sVHeadImgUrl
p3465
V/cgi-bin/mmwebwx-bin/webwxgeticon?seq=639440444&username=@ea50a407169d6530d9f32e9be0712943&skey=@crypt_6353e9d_c05b3ff3a1f7b536c85fc996d814cf64
p3466
sVKeyWord
p3467
Vgh_
p3468
sVProvince
p3469
V\u6c5f\u82cf
p3470
sVPYInitial
p3471
g52
sVRemarkName
p3472
g52
sVIsOwner
p3473
I0
sVSex
p3474
I0
sVStarFriend
p3475
I0
sVHideInputBarFlag
p3476
I0
sVChatRoomId
p3477
I0
sVEncryChatRoomId
p3478
g52
sVAttrStatus
p3479
I0
sVStatues
p3480
I0
stp3481
Rp3482
I1
bag34
(g3232
g39
(dp3483
VUserName
p3484
V@6851ec66e6290ac3cbf533de68109618
p3485
sVCity
p3486
g52
sVSnsFlag
p3487
I0
sVDisplayName
p3488
g52
sVUniFriend
p3489
I0
sVMemberCount
p3490
I0
sVOwnerUin
p3491
I0
sVMemberList
p3492
g50
sVAlias
p3493
g52
sVPYQuanPin
p3494
Vduolunduohaixianzizhucanting
p3495
sVSignature
p3496
V\u591a\u4f26\u591a\u6d77\u9c9c\u81ea\u52a9\u662f\u661f\u8bed\u96c5\u96c6\u9910\u996e\u7ba1\u7406\u6709\u9650\u516c\u53f8\u4e3b\u6253\u54c1\u724c \u662f\u56fd\u5185\u6d77\u9c9c\u81ea\u52a9\u9910\u9886\u57df\u89c4\u6a21\u8f83\u5927 \u53d1\u5c55\u8f83\u5feb \u5177\u6709\u5f71\u54cd\u529b\u4e14\u7f8e\u8a89\u5ea6\u8f83\u597d\u7684\u81ea\u52a9\u9910\u54c1\u724c \u76ee\u524d\u5728\u6c5f\u6d59\u6caa\u7696\u5730\u533a\u8fd150\u5bb6\u8fde\u9501\u76f4\u8425\u95e8\u5e97 \u8ba1\u52122017\u5e74\u7a81\u7834100\u5bb6
p3497
sVRemarkPYInitial
p3498
g52
sVContactFlag
p3499
I3
sVUin
p3500
I0
sVNickName
p3501
V\u591a\u4f26\u591a\u6d77\u9c9c\u81ea\u52a9\u9910\u5385
p3502
sVAppAccountFlag
p3503
I0
sVVerifyFlag
p3504
I24
sVRemarkPYQuanPin
p3505
g52
sVHeadImgUrl
p3506
V/cgi-bin/mmwebwx-bin/webwxgeticon?seq=639440497&username=@6851ec66e6290ac3cbf533de68109618&skey=@crypt_6353e9d_c05b3ff3a1f7b536c85fc996d814cf64
p3507
sVKeyWord
p3508
Vgh_
p3509
sVProvince
p3510
V\u6c5f\u82cf
p3511
sVPYInitial
p3512
VDLDHXZZCT
p3513
sVRemarkName
p3514
g52
sVIsOwner
p3515
I0
sVSex
p3516
I0
sVStarFriend
p3517
I0
sVHideInputBarFlag
p3518
I0
sVChatRoomId
p3519
I0
sVEncryChatRoomId
p3520
g52
sVAttrStatus
p3521
I0
sVStatues
p3522
I0
stp3523
Rp3524
I1
bag34
(g3232
g39
(dp3525
VUserName
p3526
V@40b1ff89126d657255063ce6210589ca
p3527
sVCity
p3528
g52
sVSnsFlag
p3529
I0
sVDisplayName
p3530
g52
sVUniFriend
p3531
I0
sVMemberCount
p3532
I0
sVOwnerUin
p3533
I0
sVMemberList
p3534
g50
sVAlias
p3535
g52
sVPYQuanPin
p3536
Vtengxunchengshi
p3537
sVSignature
p3538
V\u817e\u8baf\u57ce\u5e02\u4e0e\u60a8\u4e00\u5171\u5173\u6ce8\u57ce\u5e02\u53d1\u5c55\uff0c\u89c1\u8bc1\u57ce\u5e02\u53d8\u8fc1\uff0c\u53d1\u73b0\u57ce\u5e02\u529b\u91cf\u3002
p3539
sVRemarkPYInitial
p3540
g52
sVContactFlag
p3541
I3
sVUin
p3542
I0
sVNickName
p3543
V\u817e\u8baf\u57ce\u5e02
p3544
sVAppAccountFlag
p3545
I0
sVVerifyFlag
p3546
I24
sVRemarkPYQuanPin
p3547
g52
sVHeadImgUrl
p3548
V/cgi-bin/mmwebwx-bin/webwxgeticon?seq=643840641&username=@40b1ff89126d657255063ce6210589ca&skey=@crypt_6353e9d_c05b3ff3a1f7b536c85fc996d814cf64
p3549
sVKeyWord
p3550
Vgh_
p3551
sVProvince
p3552
g52
sVPYInitial
p3553
VTXCS
p3554
sVRemarkName
p3555
g52
sVIsOwner
p3556
I0
sVSex
p3557
I0
sVStarFriend
p3558
I0
sVHideInputBarFlag
p3559
I0
sVChatRoomId
p3560
I0
sVEncryChatRoomId
p3561
g52
sVAttrStatus
p3562
I0
sVStatues
p3563
I0
stp3564
Rp3565
I1
bag34
(g3232
g39
(dp3566
VUserName
p3567
V@b72808b6cb651d1b7d0ba134092f9674
p3568
sVCity
p3569
V\u6df1\u5733
p3570
sVSnsFlag
p3571
I0
sVDisplayName
p3572
g52
sVUniFriend
p3573
I0
sVMemberCount
p3574
I0
sVOwnerUin
p3575
I0
sVMemberList
p3576
g50
sVAlias
p3577
g52
sVPYQuanPin
p3578
g52
sVSignature
p3579
V\u672c\u671f\u6d3b\u52a8\uff0c\u624b\u8868\u4e3a\u516c\u53f8\u8054\u5408\u7b2c\u4e09\u65b9\u5b9e\u529b\u5382\u5bb6\u5b9a\u5236\u751f\u4ea7\uff0c\u8d28\u91cf\u6709\u4fdd\u969c\u3002\u4e09\u8272\u53ef\u9009\uff0c\u7537\u5973\u901a\u7528\uff0c\u975e\u5e38\u65f6\u5c1a\u53c8\u5927\u6c14\uff0c\u4f11\u95f2/\u5546\u52a1\u90fd\u662f\u4e0d\u9519\u7684\u9009\u62e9\uff0c\u672c\u6d3b\u52a8\u9ed8\u8ba4\u3010\u5706\u901a\u5feb\u9012\u3011
p3580
sVRemarkPYInitial
p3581
g52
sVContactFlag
p3582
I3
sVUin
p3583
I0
sVNickName
p3584
g52
sVAppAccountFlag
p3585
I0
sVVerifyFlag
p3586
I24
sVRemarkPYQuanPin
p3587
g52
sVHeadImgUrl
p3588
V/cgi-bin/mmwebwx-bin/webwxgeticon?seq=646580357&username=@b72808b6cb651d1b7d0ba134092f9674&skey=@crypt_6353e9d_c05b3ff3a1f7b536c85fc996d814cf64
p3589
sVKeyWord
p3590
Vgh_
p3591
sVProvince
p3592
V\u5e7f\u4e1c
p3593
sVPYInitial
p3594
g52
sVRemarkName
p3595
g52
sVIsOwner
p3596
I0
sVSex
p3597
I0
sVStarFriend
p3598
I0
sVHideInputBarFlag
p3599
I0
sVChatRoomId
p3600
I0
sVEncryChatRoomId
p3601
g52
sVAttrStatus
p3602
I0
sVStatues
p3603
I0
stp3604
Rp3605
I1
bag34
(g3232
g39
(dp3606
VUserName
p3607
V@8c6e49dcf0a1d1dacca2a73ebc0cd9fc
p3608
sVCity
p3609
V\u5357\u4eac
p3610
sVSnsFlag
p3611
I0
sVDisplayName
p3612
g52
sVUniFriend
p3613
I0
sVMemberCount
p3614
I0
sVOwnerUin
p3615
I0
sVMemberList
p3616
g50
sVAlias
p3617
g52
sVPYQuanPin
p3618
Vzhongguodianxinjiangsukefu
p3619
sVSignature
p3620
V\u6c5f\u82cf\u7535\u4fe110000\u53f7\u5b98\u65b9\u5ba2\u670d\uff0c\u65e0\u201c\u5fae\u201d\u4e0d\u81f3\u3001\u4f53\u8d34\u5165\u201c\u5fae\u201d\u3002\u7528\u5fc3\u4e3a\u60a8\u63d0\u4f9b\u8bdd\u8d39\u67e5\u8be2\u3001\u4e1a\u52a1\u529e\u7406\u3001\u5bbd\u5e26\u62a5\u4fee\u7b49\u670d\u52a1\uff0c\u8fd8\u6709\u5404\u79cd\u4f18\u60e0\u6d3b\u52a8\u4e0d\u5b9a\u671f\u63a8\u51fa\u54e6\uff01\u7528\u6237\u59cb\u7ec8\u81f3\u4e0a\uff0c\u670d\u52a1\u89e6\u624b\u53ef\u53ca\uff01
p3621
sVRemarkPYInitial
p3622
g52
sVContactFlag
p3623
I3
sVUin
p3624
I0
sVNickName
p3625
V\u4e2d\u56fd\u7535\u4fe1\u6c5f\u82cf\u5ba2\u670d
p3626
sVAppAccountFlag
p3627
I0
sVVerifyFlag
p3628
I24
sVRemarkPYQuanPin
p3629
g52
sVHeadImgUrl
p3630
V/cgi-bin/mmwebwx-bin/webwxgeticon?seq=646580687&username=@8c6e49dcf0a1d1dacca2a73ebc0cd9fc&skey=@crypt_6353e9d_c05b3ff3a1f7b536c85fc996d814cf64
p3631
sVKeyWord
p3632
Vgh_
p3633
sVProvince
p3634
V\u6c5f\u82cf
p3635
sVPYInitial
p3636
VZGDXJSKF
p3637
sVRemarkName
p3638
g52
sVIsOwner
p3639
I0
sVSex
p3640
I0
sVStarFriend
p3641
I0
sVHideInputBarFlag
p3642
I0
sVChatRoomId
p3643
I0
sVEncryChatRoomId
p3644
g52
sVAttrStatus
p3645
I0
sVStatues
p3646
I0
stp3647
Rp3648
I1
bag34
(g3232
g39
(dp3649
VUserName
p3650
V@974896459e183f10640bfc61e5e9a19c
p3651
sVCity
p3652
V\u5357\u4eac
p3653
sVSnsFlag
p3654
I0
sVDisplayName
p3655
g52
sVUniFriend
p3656
I0
sVMemberCount
p3657
I0
sVOwnerUin
p3658
I0
sVMemberList
p3659
g50
sVAlias
p3660
g52
sVPYQuanPin
p3661
Vrenzeshangyuan
p3662
sVSignature
p3663
V\u5e2e\u52a9\u60a8\u4e86\u89e3\u4ec1\u6cfd\u5546\u5b66\u9662\u7ec4\u7ec7\u3001\u7b56\u5212\u7684\u5404\u7c7b\u7f51\u7edc\u4e8b\u4e1a\u90e8\u6d3b\u52a8\u53ca\u5927\u8d5b\u3002\u53ca\u65f6\u6536\u53d6\u4ec1\u6cfd\u5546\u5b66\u9662\u7684\u6700\u65b0\u4fe1\u606f\u3002
p3664
sVRemarkPYInitial
p3665
g52
sVContactFlag
p3666
I3
sVUin
p3667
I0
sVNickName
p3668
V\u4ec1\u6cfd\u5546\u9662
p3669
sVAppAccountFlag
p3670
I0
sVVerifyFlag
p3671
I8
sVRemarkPYQuanPin
p3672
g52
sVHeadImgUrl
p3673
V/cgi-bin/mmwebwx-bin/webwxgeticon?seq=649410482&username=@974896459e183f10640bfc61e5e9a19c&skey=@crypt_6353e9d_c05b3ff3a1f7b536c85fc996d814cf64
p3674
sVKeyWord
p3675
Vgh_
p3676
sVProvince
p3677
V\u6c5f\u82cf
p3678
sVPYInitial
p3679
VRZSY
p3680
sVRemarkName
p3681
g52
sVIsOwner
p3682
I0
sVSex
p3683
I0
sVStarFriend
p3684
I0
sVHideInputBarFlag
p3685
I0
sVChatRoomId
p3686
I0
sVEncryChatRoomId
p3687
g52
sVAttrStatus
p3688
I0
sVStatues
p3689
I0
stp3690
Rp3691
I1
bag34
(g3232
g39
(dp3692
VUserName
p3693
V@d9377a528dc6caf29d423b4f2eda9e53
p3694
sVCity
p3695
V\u5e7f\u5dde
p3696
sVSnsFlag
p3697
I0
sVDisplayName
p3698
g52
sVUniFriend
p3699
I0
sVMemberCount
p3700
I0
sVOwnerUin
p3701
I0
sVMemberList
p3702
g50
sVAlias
p3703
g52
sVPYQuanPin
p3704
Vtianyiliuliang800
p3705
sVSignature
p3706
V\u5929\u7ffc\u6d41\u91cf800\u662f\u4e2d\u56fd\u7535\u4fe1\u63a8\u51fa\u7684\u201c\u7528\u6237\u514d\u8d39\u4f7f\u7528\u6d41\u91cf\uff0c\u4f01\u4e1a\u4e3a\u7528\u6237\u4e70\u5355\u201c\u7684\u5168\u65b0\u670d\u52a1\uff0c\u4e2d\u56fd\u7535\u4fe1\u901a\u8fc7\u8be5\u5fae\u4fe1\u516c\u4f17\u53f7\u5411\u7528\u6237\u957f\u671f\u53d1\u5e03\u7535\u4fe1\u514d\u8d39\u6d41\u91cf\u6d3b\u52a8\u3002\u5173\u6ce8\u201c\u5929\u7ffc\u6d41\u91cf800\u201d\uff0c\u514d\u8d39\u6d41\u91cf\u6e90\u6e90\u4e0d\u65ad\uff0c\u5408\u4f5c\u6d3b\u52a8\u7cbe\u5f69\u7eb7\u5448\uff0c\u8bf7\u60a8\u4e0d\u8981\u79bb\u5f00\u3002
p3707
sVRemarkPYInitial
p3708
g52
sVContactFlag
p3709
I3
sVUin
p3710
I0
sVNickName
p3711
V\u5929\u7ffc\u6d41\u91cf800
p3712
sVAppAccountFlag
p3713
I0
sVVerifyFlag
p3714
I24
sVRemarkPYQuanPin
p3715
g52
sVHeadImgUrl
p3716
V/cgi-bin/mmwebwx-bin/webwxgeticon?seq=633860440&username=@d9377a528dc6caf29d423b4f2eda9e53&skey=@crypt_6353e9d_c05b3ff3a1f7b536c85fc996d814cf64
p3717
sVKeyWord
p3718
Vgh_
p3719
sVProvince
p3720
V\u5e7f\u4e1c
p3721
sVPYInitial
p3722
VTYLL800
p3723
sVRemarkName
p3724
g52
sVIsOwner
p3725
I0
sVSex
p3726
I0
sVStarFriend
p3727
I0
sVHideInputBarFlag
p3728
I0
sVChatRoomId
p3729
I0
sVEncryChatRoomId
p3730
g52
sVAttrStatus
p3731
I0
sVStatues
p3732
I0
stp3733
Rp3734
I1
bag34
(g3232
g39
(dp3735
VUserName
p3736
V@e9e73f57354345004b0b08324b582d8e
p3737
sVCity
p3738
g52
sVSnsFlag
p3739
I0
sVDisplayName
p3740
g52
sVUniFriend
p3741
I0
sVMemberCount
p3742
I0
sVOwnerUin
p3743
I0
sVMemberList
p3744
g50
sVAlias
p3745
g52
sVPYQuanPin
p3746
Vgaizhanghaoyizhuxiao
p3747
sVSignature
p3748
g52
sVRemarkPYInitial
p3749
g52
sVContactFlag
p3750
I3
sVUin
p3751
I0
sVNickName
p3752
V\u8be5\u5e10\u53f7\u5df2\u6ce8\u9500
p3753
sVAppAccountFlag
p3754
I0
sVVerifyFlag
p3755
I24
sVRemarkPYQuanPin
p3756
g52
sVHeadImgUrl
p3757
V/cgi-bin/mmwebwx-bin/webwxgeticon?seq=649411792&username=@e9e73f57354345004b0b08324b582d8e&skey=@crypt_6353e9d_c05b3ff3a1f7b536c85fc996d814cf64
p3758
sVKeyWord
p3759
Vgh_
p3760
sVProvince
p3761
g52
sVPYInitial
p3762
VGZHYZX
p3763
sVRemarkName
p3764
g52
sVIsOwner
p3765
I0
sVSex
p3766
I0
sVStarFriend
p3767
I0
sVHideInputBarFlag
p3768
I0
sVChatRoomId
p3769
I0
sVEncryChatRoomId
p3770
g52
sVAttrStatus
p3771
I0
sVStatues
p3772
I0
stp3773
Rp3774
I1
bag34
(g3232
g39
(dp3775
VUserName
p3776
V@10d99a2af76555049be08c62e40f00fb
p3777
sVCity
p3778
V\u5357\u4eac
p3779
sVSnsFlag
p3780
I0
sVDisplayName
p3781
g52
sVUniFriend
p3782
I0
sVMemberCount
p3783
I0
sVOwnerUin
p3784
I0
sVMemberList
p3785
g50
sVAlias
p3786
g52
sVPYQuanPin
p3787
Vnajinggonggongzixingche
p3788
sVSignature
p3789
V\u4f4e\u78b3\u51fa\u884c\uff0c\u7eff\u8272\u751f\u6d3b\uff0c\u4fbf\u5229\u4e8e\u6c11\u3002\u53ef\u67e5\u8be2\u5357\u4eac\u516c\u5171\u81ea\u884c\u8f66\u76f8\u5173\u4fe1\u606f\u3002
p3790
sVRemarkPYInitial
p3791
g52
sVContactFlag
p3792
I3
sVUin
p3793
I0
sVNickName
p3794
V\u5357\u4eac\u516c\u5171\u81ea\u884c\u8f66
p3795
sVAppAccountFlag
p3796
I0
sVVerifyFlag
p3797
I24
sVRemarkPYQuanPin
p3798
g52
sVHeadImgUrl
p3799
V/cgi-bin/mmwebwx-bin/webwxgeticon?seq=649411939&username=@10d99a2af76555049be08c62e40f00fb&skey=@crypt_6353e9d_c05b3ff3a1f7b536c85fc996d814cf64
p3800
sVKeyWord
p3801
Vgh_
p3802
sVProvince
p3803
V\u6c5f\u82cf
p3804
sVPYInitial
p3805
VNJGGZXC
p3806
sVRemarkName
p3807
g52
sVIsOwner
p3808
I0
sVSex
p3809
I0
sVStarFriend
p3810
I0
sVHideInputBarFlag
p3811
I0
sVChatRoomId
p3812
I0
sVEncryChatRoomId
p3813
g52
sVAttrStatus
p3814
I0
sVStatues
p3815
I0
stp3816
Rp3817
I1
bag34
(g3232
g39
(dp3818
VUserName
p3819
V@3cd9e6ad759a8af36b0b6868c5bac5b4
p3820
sVCity
p3821
V\u5f90\u6c47
p3822
sVSnsFlag
p3823
I0
sVDisplayName
p3824
g52
sVUniFriend
p3825
I0
sVMemberCount
p3826
I0
sVOwnerUin
p3827
I0
sVMemberList
p3828
g50
sVAlias
p3829
g52
sVPYQuanPin
p3830
Vyouyiku
p3831
sVSignature
p3832
V\u4f18\u8863\u5e93\u54c1\u724c\u5b98\u65b9\u5fae\u4fe1
p3833
sVRemarkPYInitial
p3834
g52
sVContactFlag
p3835
I3
sVUin
p3836
I0
sVNickName
p3837
V\u4f18\u8863\u5e93
p3838
sVAppAccountFlag
p3839
I0
sVVerifyFlag
p3840
I28
sVRemarkPYQuanPin
p3841
g52
sVHeadImgUrl
p3842
V/cgi-bin/mmwebwx-bin/webwxgeticon?seq=651750650&username=@3cd9e6ad759a8af36b0b6868c5bac5b4&skey=@crypt_6353e9d_c05b3ff3a1f7b536c85fc996d814cf64
p3843
sVKeyWord
p3844
Vyou
p3845
sVProvince
p3846
V\u4e0a\u6d77
p3847
sVPYInitial
p3848
VYYK
p3849
sVRemarkName
p3850
g52
sVIsOwner
p3851
I0
sVSex
p3852
I0
sVStarFriend
p3853
I0
sVHideInputBarFlag
p3854
I0
sVChatRoomId
p3855
I0
sVEncryChatRoomId
p3856
g52
sVAttrStatus
p3857
I3
sVStatues
p3858
I0
stp3859
Rp3860
I1
bag34
(g3232
g39
(dp3861
VUserName
p3862
V@26e61fd20b500d8c64cdf32814dd1d9d
p3863
sVCity
p3864
V\u6d77\u6dc0
p3865
sVSnsFlag
p3866
I0
sVDisplayName
p3867
g52
sVUniFriend
p3868
I0
sVMemberCount
p3869
I0
sVOwnerUin
p3870
I0
sVMemberList
p3871
g50
sVAlias
p3872
g52
sVPYQuanPin
p3873
Vgelingshentong
p3874
sVSignature
p3875
V\u683c\u7075\u6df1\u77b3\u662f\u4e00\u5bb6\u5c06\u8ba1\u7b97\u673a\u89c6\u89c9\u548c\u6df1\u5ea6\u5b66\u4e60\u6280\u672f\u5e94\u7528\u4e8e\u5546\u4e1a\u9886\u57df\u7684\u79d1\u6280\u516c\u53f8\uff0c\u81ea\u4e3b\u7814\u53d1\u7684\u6df1\u77b3\u6280\u672f\u5728\u4eba\u548c\u8f66\u7684\u68c0\u6d4b\u3001\u8ddf\u8e2a\u4e0e\u8bc6\u522b\u65b9\u9762\u5c45\u4e8e\u4e16\u754c\u9886\u5148\u6c34\u5e73\u3002  \u5b98\u7f51\uff1awww.deepglint.com
p3876
sVRemarkPYInitial
p3877
g52
sVContactFlag
p3878
I3
sVUin
p3879
I0
sVNickName
p3880
V\u683c\u7075\u6df1\u77b3
p3881
sVAppAccountFlag
p3882
I0
sVVerifyFlag
p3883
I8
sVRemarkPYQuanPin
p3884
g52
sVHeadImgUrl
p3885
V/cgi-bin/mmwebwx-bin/webwxgeticon?seq=654291105&username=@26e61fd20b500d8c64cdf32814dd1d9d&skey=@crypt_6353e9d_c05b3ff3a1f7b536c85fc996d814cf64
p3886
sVKeyWord
p3887
Vgh_
p3888
sVProvince
p3889
V\u5317\u4eac
p3890
sVPYInitial
p3891
VGLST
p3892
sVRemarkName
p3893
g52
sVIsOwner
p3894
I0
sVSex
p3895
I0
sVStarFriend
p3896
I0
sVHideInputBarFlag
p3897
I0
sVChatRoomId
p3898
I0
sVEncryChatRoomId
p3899
g52
sVAttrStatus
p3900
I0
sVStatues
p3901
I0
stp3902
Rp3903
I1
bag34
(g3232
g39
(dp3904
VUserName
p3905
V@2cf3d60617f111ba30ee87fbe7ebb816
p3906
sVCity
p3907
V\u5357\u4eac
p3908
sVSnsFlag
p3909
I0
sVDisplayName
p3910
g52
sVUniFriend
p3911
I0
sVMemberCount
p3912
I0
sVOwnerUin
p3913
I0
sVMemberList
p3914
g50
sVAlias
p3915
g52
sVPYQuanPin
p3916
Vjiangsudianxin
p3917
sVSignature
p3918
V\u4e2d\u56fd\u7535\u4fe1\u6c5f\u82cf\u516c\u53f8\u552f\u4e00\u5b98\u65b9\u516c\u4f17\u53f7\uff0c\u60a8\u6700\u8d34\u5fc3\u7684\u53e3\u888b\u8425\u4e1a\u5385
p3919
sVRemarkPYInitial
p3920
g52
sVContactFlag
p3921
I1
sVUin
p3922
I0
sVNickName
p3923
V\u6c5f\u82cf\u7535\u4fe1
p3924
sVAppAccountFlag
p3925
I0
sVVerifyFlag
p3926
I24
sVRemarkPYQuanPin
p3927
g52
sVHeadImgUrl
p3928
V/cgi-bin/mmwebwx-bin/webwxgeticon?seq=643840449&username=@2cf3d60617f111ba30ee87fbe7ebb816&skey=@crypt_6353e9d_c05b3ff3a1f7b536c85fc996d814cf64
p3929
sVKeyWord
p3930
Vgh_
p3931
sVProvince
p3932
V\u6c5f\u82cf
p3933
sVPYInitial
p3934
VJSDX
p3935
sVRemarkName
p3936
g52
sVIsOwner
p3937
I0
sVSex
p3938
I0
sVStarFriend
p3939
I0
sVHideInputBarFlag
p3940
I0
sVChatRoomId
p3941
I0
sVEncryChatRoomId
p3942
g52
sVAttrStatus
p3943
I0
sVStatues
p3944
I0
stp3945
Rp3946
I1
bag34
(g3232
g39
(dp3947
VUserName
p3948
V@af2536b551794fd8e6dbcd19f5abaa3b
p3949
sVCity
p3950
V\u626c\u5dde
p3951
sVSnsFlag
p3952
I0
sVDisplayName
p3953
g52
sVUniFriend
p3954
I0
sVMemberCount
p3955
I0
sVOwnerUin
p3956
I0
sVMemberList
p3957
g50
sVAlias
p3958
g52
sVPYQuanPin
p3959
Vwuxianyangzhou
p3960
sVSignature
p3961
V\u5173\u6ce8\u6211\u4eec\uff0c"i-Yangzhou"\u5168\u57ce\u514d\u8d39\u8fde
p3962
sVRemarkPYInitial
p3963
g52
sVContactFlag
p3964
I3
sVUin
p3965
I0
sVNickName
p3966
V\u65e0\u7ebf\u626c\u5dde
p3967
sVAppAccountFlag
p3968
I0
sVVerifyFlag
p3969
I24
sVRemarkPYQuanPin
p3970
g52
sVHeadImgUrl
p3971
V/cgi-bin/mmwebwx-bin/webwxgeticon?seq=639440631&username=@af2536b551794fd8e6dbcd19f5abaa3b&skey=@crypt_6353e9d_c05b3ff3a1f7b536c85fc996d814cf64
p3972
sVKeyWord
p3973
Vgh_
p3974
sVProvince
p3975
V\u6c5f\u82cf
p3976
sVPYInitial
p3977
VWXYZ
p3978
sVRemarkName
p3979
g52
sVIsOwner
p3980
I0
sVSex
p3981
I0
sVStarFriend
p3982
I0
sVHideInputBarFlag
p3983
I0
sVChatRoomId
p3984
I0
sVEncryChatRoomId
p3985
g52
sVAttrStatus
p3986
I0
sVStatues
p3987
I0
stp3988
Rp3989
I1
bag34
(g3232
g39
(dp3990
VUserName
p3991
V@f7f95f1ee2e82afa463419ee0cac31c1
p3992
sVCity
p3993
V\u957f\u5b81
p3994
sVSnsFlag
p3995
I0
sVDisplayName
p3996
g52
sVUniFriend
p3997
I0
sVMemberCount
p3998
I0
sVOwnerUin
p3999
I0
sVMemberList
p4000
g50
sVAlias
p4001
g52
sVPYQuanPin
p4002
VCoCoduke
p4003
sVSignature
p4004
V\u3010\u65b0\u9c9c \u5b89\u5fc3 \u597d\u6ecb\u5473\u3011\u4e3a\u4e16\u754c\u63d0\u4f9b\u65b0\u9c9c\u597d\u559d\u7684\u53f0\u6e7e\u521b\u610f\u996e\u54c1\uff0c\u5173\u6ce8CoCo\u90fd\u53ef\u516c\u4f17\u53f7\uff0c\u5c06\u6709\u65e0\u9650\u7684\u60ca\u559c\u54e6\uff01
p4005
sVRemarkPYInitial
p4006
g52
sVContactFlag
p4007
I3
sVUin
p4008
I0
sVNickName
p4009
VCoCo\u90fd\u53ef
p4010
sVAppAccountFlag
p4011
I0
sVVerifyFlag
p4012
I24
sVRemarkPYQuanPin
p4013
g52
sVHeadImgUrl
p4014
V/cgi-bin/mmwebwx-bin/webwxgeticon?seq=654291113&username=@f7f95f1ee2e82afa463419ee0cac31c1&skey=@crypt_6353e9d_c05b3ff3a1f7b536c85fc996d814cf64
p4015
sVKeyWord
p4016
Vgh_
p4017
sVProvince
p4018
V\u4e0a\u6d77
p4019
sVPYInitial
p4020
VCOCODK
p4021
sVRemarkName
p4022
g52
sVIsOwner
p4023
I0
sVSex
p4024
I0
sVStarFriend
p4025
I0
sVHideInputBarFlag
p4026
I0
sVChatRoomId
p4027
I0
sVEncryChatRoomId
p4028
g52
sVAttrStatus
p4029
I0
sVStatues
p4030
I0
stp4031
Rp4032
I1
bag34
(g3232
g39
(dp4033
VUserName
p4034
V@14722385b85fd1c663f7d9c9182741d9
p4035
sVCity
p4036
V\u6df1\u5733
p4037
sVSnsFlag
p4038
I0
sVDisplayName
p4039
g52
sVUniFriend
p4040
I0
sVMemberCount
p4041
I0
sVOwnerUin
p4042
I0
sVMemberList
p4043
g50
sVAlias
p4044
g52
sVPYQuanPin
p4045
Vtengxunyouhuanquanzhongxin
p4046
sVSignature
p4047
V\u817e\u8baf\u6e38\u620f\u5b89\u5168\u4e2d\u5fc3\u5b98\u65b9\u5fae\u4fe1\u670d\u52a1\u53f7
p4048
sVRemarkPYInitial
p4049
g52
sVContactFlag
p4050
I3
sVUin
p4051
I0
sVNickName
p4052
V\u817e\u8baf\u6e38\u620f\u5b89\u5168\u4e2d\u5fc3
p4053
sVAppAccountFlag
p4054
I0
sVVerifyFlag
p4055
I24
sVRemarkPYQuanPin
p4056
g52
sVHeadImgUrl
p4057
V/cgi-bin/mmwebwx-bin/webwxgeticon?seq=649411144&username=@14722385b85fd1c663f7d9c9182741d9&skey=@crypt_6353e9d_c05b3ff3a1f7b536c85fc996d814cf64
p4058
sVKeyWord
p4059
Vgh_
p4060
sVProvince
p4061
V\u5e7f\u4e1c
p4062
sVPYInitial
p4063
VTXYHAQZX
p4064
sVRemarkName
p4065
g52
sVIsOwner
p4066
I0
sVSex
p4067
I0
sVStarFriend
p4068
I0
sVHideInputBarFlag
p4069
I0
sVChatRoomId
p4070
I0
sVEncryChatRoomId
p4071
g52
sVAttrStatus
p4072
I0
sVStatues
p4073
I0
stp4074
Rp4075
I1
bag34
(g3232
g39
(dp4076
VUserName
p4077
V@0bae206f05894ceb244182f187ff8d7c
p4078
sVCity
p4079
V\u6cf0\u5dde
p4080
sVSnsFlag
p4081
I0
sVDisplayName
p4082
g52
sVUniFriend
p4083
I0
sVMemberCount
p4084
I0
sVOwnerUin
p4085
I0
sVMemberList
p4086
g50
sVAlias
p4087
g52
sVPYQuanPin
p4088
Vpaopaoshaoerjiaoyutaizhouzhongxin
p4089
sVSignature
p4090
V\u65b0\u4e1c\u65b9\u6ce1\u6ce1\u5c11\u513f\u6559\u80b2\u6cf0\u5dde\u4e2d\u5fc3\u4e13\u6ce8\u4e8e4-14\u5c81\u9752\u5c11\u5e74\u82f1\u8bed\u57f9\u8bad\u3002\u5e7c\u513f\u82f1\u8bed/\u5c11\u513f\u82f1\u8bed/\u65b0\u6982\u5ff5\u82f1\u8bed/\u4e00\u5bf9\u4e00\u4e2a\u6027\u5316\u8bfe\u7a0b\u3002\u8be6\u8be2\uff1a\u6cf0\u5174\u4e2d\u5fc3\uff0887873377\uff09\u3001\u9ad8\u6e2f\u4e2d\u5fc3\uff0886967377\uff09\u3001\u6d77\u9675\u4e2d\u5fc3\uff0889993377\uff09\u3001\u59dc\u5830\u4e2d\u5fc3\uff0888213377\uff09\u3002
p4091
sVRemarkPYInitial
p4092
g52
sVContactFlag
p4093
I3
sVUin
p4094
I0
sVNickName
p4095
V\u6ce1\u6ce1\u5c11\u513f\u6559\u80b2\u6cf0\u5dde\u4e2d\u5fc3
p4096
sVAppAccountFlag
p4097
I0
sVVerifyFlag
p4098
I24
sVRemarkPYQuanPin
p4099
g52
sVHeadImgUrl
p4100
V/cgi-bin/mmwebwx-bin/webwxgeticon?seq=648940529&username=@0bae206f05894ceb244182f187ff8d7c&skey=@crypt_6353e9d_c05b3ff3a1f7b536c85fc996d814cf64
p4101
sVKeyWord
p4102
Vgh_
p4103
sVProvince
p4104
V\u6c5f\u82cf
p4105
sVPYInitial
p4106
VPPSEJYTZZX
p4107
sVRemarkName
p4108
g52
sVIsOwner
p4109
I0
sVSex
p4110
I0
sVStarFriend
p4111
I0
sVHideInputBarFlag
p4112
I0
sVChatRoomId
p4113
I0
sVEncryChatRoomId
p4114
g52
sVAttrStatus
p4115
I0
sVStatues
p4116
I0
stp4117
Rp4118
I1
bag34
(g3232
g39
(dp4119
VUserName
p4120
V@948f66e7f4997de46d08a4003ff76ec6
p4121
sVCity
p4122
V\u671d\u9633
p4123
sVSnsFlag
p4124
I0
sVDisplayName
p4125
g52
sVUniFriend
p4126
I0
sVMemberCount
p4127
I0
sVOwnerUin
p4128
I0
sVMemberList
p4129
g50
sVAlias
p4130
g52
sVPYQuanPin
p4131
Vjingdongshouhou
p4132
sVSignature
p4133
V\u8fd9\u91cc\u53d1\u5e03\u4eac\u4e1c\u5546\u57ce\u5b98\u65b9\u552e\u540e\u4fe1\u606f\uff0c\u63d0\u4f9b\u60a8\u771f\u5b9e\u6709\u6548\u7684\u552e\u540e\u653f\u7b56\uff0c\u4f20\u9012\u4eac\u4e1c\u552e\u540e\u5ba2\u6237\u4e3a\u5148\u7684\u670d\u52a1\u7406\u5ff5\u3002\u4eac\u4e1c\u552e\u540e\uff1a\u7b80\u5355\u4e13\u4e1a\u5feb\uff01
p4134
sVRemarkPYInitial
p4135
g52
sVContactFlag
p4136
I3
sVUin
p4137
I0
sVNickName
p4138
V\u4eac\u4e1c\u552e\u540e
p4139
sVAppAccountFlag
p4140
I0
sVVerifyFlag
p4141
I24
sVRemarkPYQuanPin
p4142
g52
sVHeadImgUrl
p4143
V/cgi-bin/mmwebwx-bin/webwxgeticon?seq=656876251&username=@948f66e7f4997de46d08a4003ff76ec6&skey=@crypt_6353e9d_c05b3ff3a1f7b536c85fc996d814cf64
p4144
sVKeyWord
p4145
Vgh_
p4146
sVProvince
p4147
V\u5317\u4eac
p4148
sVPYInitial
p4149
VJDSH
p4150
sVRemarkName
p4151
g52
sVIsOwner
p4152
I0
sVSex
p4153
I0
sVStarFriend
p4154
I0
sVHideInputBarFlag
p4155
I0
sVChatRoomId
p4156
I0
sVEncryChatRoomId
p4157
g52
sVAttrStatus
p4158
I0
sVStatues
p4159
I0
stp4160
Rp4161
I1
bag34
(g3232
g39
(dp4162
VUserName
p4163
V@b4823ff89c8dd43e15667a95265db0ff
p4164
sVCity
p4165
V\u5929\u95e8
p4166
sVSnsFlag
p4167
I0
sVDisplayName
p4168
g52
sVUniFriend
p4169
I0
sVMemberCount
p4170
I0
sVOwnerUin
p4171
I0
sVMemberList
p4172
g50
sVAlias
p4173
g52
sVPYQuanPin
p4174
Vduolabao
p4175
sVSignature
p4176
V\u83b7\u5f97\u6700\u65b0\u9177\u70ab\u7684\u798f\u5229\u6d3b\u52a8,\u4f53\u9a8c\u53c2\u4e0e\u6709\u5956\u4e92\u52a8\uff01\u5173\u6ce8\u54c6\u5566\u5b9d\uff0c\u597d\u73a9\u3001\u597d\u5e97\u968f\u5904\u53ef\u89c1~
p4177
sVRemarkPYInitial
p4178
g52
sVContactFlag
p4179
I3
sVUin
p4180
I0
sVNickName
p4181
V\u54c6\u5566\u5b9d
p4182
sVAppAccountFlag
p4183
I0
sVVerifyFlag
p4184
I24
sVRemarkPYQuanPin
p4185
g52
sVHeadImgUrl
p4186
V/cgi-bin/mmwebwx-bin/webwxgeticon?seq=656884506&username=@b4823ff89c8dd43e15667a95265db0ff&skey=@crypt_6353e9d_c05b3ff3a1f7b536c85fc996d814cf64
p4187
sVKeyWord
p4188
Vgh_
p4189
sVProvince
p4190
V\u6e56\u5317
p4191
sVPYInitial
p4192
VDLB
p4193
sVRemarkName
p4194
g52
sVIsOwner
p4195
I0
sVSex
p4196
I0
sVStarFriend
p4197
I0
sVHideInputBarFlag
p4198
I0
sVChatRoomId
p4199
I0
sVEncryChatRoomId
p4200
g52
sVAttrStatus
p4201
I0
sVStatues
p4202
I0
stp4203
Rp4204
I1
bag34
(g3232
g39
(dp4205
VUserName
p4206
V@aac4d04c2ba623861776a0d5d8ba53d7
p4207
sVCity
p4208
V\u6d77\u6dc0
p4209
sVSnsFlag
p4210
I0
sVDisplayName
p4211
g52
sVUniFriend
p4212
I0
sVMemberCount
p4213
I0
sVOwnerUin
p4214
I0
sVMemberList
p4215
g50
sVAlias
p4216
g52
sVPYQuanPin
p4217
Vxiaobing
p4218
sVSignature
p4219
V\u6211\u662f\u4eba\u5de5\u667a\u80fd\u5fae\u8f6f\u5c0f\u51b0~~
p4220
sVRemarkPYInitial
p4221
g52
sVContactFlag
p4222
I3
sVUin
p4223
I0
sVNickName
p4224
V\u5c0f\u51b0
p4225
sVAppAccountFlag
p4226
I0
sVVerifyFlag
p4227
I24
sVRemarkPYQuanPin
p4228
g52
sVHeadImgUrl
p4229
V/cgi-bin/mmwebwx-bin/webwxgeticon?seq=656885017&username=@aac4d04c2ba623861776a0d5d8ba53d7&skey=@crypt_6353e9d_c05b3ff3a1f7b536c85fc996d814cf64
p4230
sVKeyWord
p4231
Vgh_
p4232
sVProvince
p4233
V\u5317\u4eac
p4234
sVPYInitial
p4235
VXB
p4236
sVRemarkName
p4237
g52
sVIsOwner
p4238
I0
sVSex
p4239
I0
sVStarFriend
p4240
I0
sVHideInputBarFlag
p4241
I0
sVChatRoomId
p4242
I0
sVEncryChatRoomId
p4243
g52
sVAttrStatus
p4244
I0
sVStatues
p4245
I0
stp4246
Rp4247
I1
bag34
(g3232
g39
(dp4248
VUserName
p4249
V@831032c5f8f4f7d1a4eecbd5e88365ab
p4250
sVCity
p4251
V\u9521\u6797\u90ed\u52d2
p4252
sVSnsFlag
p4253
I0
sVDisplayName
p4254
g52
sVUniFriend
p4255
I0
sVMemberCount
p4256
I0
sVOwnerUin
p4257
I0
sVMemberList
p4258
g50
sVAlias
p4259
g52
sVPYQuanPin
p4260
Vtelunsu
p4261
sVSignature
p4262
V 
p4263
sVRemarkPYInitial
p4264
g52
sVContactFlag
p4265
I1
sVUin
p4266
I0
sVNickName
p4267
V\u7279\u4ed1\u82cf
p4268
sVAppAccountFlag
p4269
I0
sVVerifyFlag
p4270
I24
sVRemarkPYQuanPin
p4271
g52
sVHeadImgUrl
p4272
V/cgi-bin/mmwebwx-bin/webwxgeticon?seq=656886097&username=@831032c5f8f4f7d1a4eecbd5e88365ab&skey=@crypt_6353e9d_c05b3ff3a1f7b536c85fc996d814cf64
p4273
sVKeyWord
p4274
Vgh_
p4275
sVProvince
p4276
V\u5185\u8499\u53e4
p4277
sVPYInitial
p4278
VTLS
p4279
sVRemarkName
p4280
g52
sVIsOwner
p4281
I0
sVSex
p4282
I0
sVStarFriend
p4283
I0
sVHideInputBarFlag
p4284
I0
sVChatRoomId
p4285
I0
sVEncryChatRoomId
p4286
g52
sVAttrStatus
p4287
I0
sVStatues
p4288
I0
stp4289
Rp4290
I1
bag34
(g3232
g39
(dp4291
VUserName
p4292
V@f6fac4853b670e8383e8b56098adabe8
p4293
sVCity
p4294
V\u897f\u57ce
p4295
sVSnsFlag
p4296
I0
sVDisplayName
p4297
g52
sVUniFriend
p4298
I0
sVMemberCount
p4299
I0
sVOwnerUin
p4300
I0
sVMemberList
p4301
g50
sVAlias
p4302
g52
sVPYQuanPin
p4303
Vzhongguodianxinkefu
p4304
sVSignature
p4305
V\u4e2d\u56fd\u7535\u4fe1\u96c6\u56e2\u5b98\u65b9\u5ba2\u670d
p4306
sVRemarkPYInitial
p4307
g52
sVContactFlag
p4308
I3
sVUin
p4309
I0
sVNickName
p4310
V\u4e2d\u56fd\u7535\u4fe1\u5ba2\u670d
p4311
sVAppAccountFlag
p4312
I0
sVVerifyFlag
p4313
I24
sVRemarkPYQuanPin
p4314
g52
sVHeadImgUrl
p4315
V/cgi-bin/mmwebwx-bin/webwxgeticon?seq=656888046&username=@f6fac4853b670e8383e8b56098adabe8&skey=@crypt_6353e9d_c05b3ff3a1f7b536c85fc996d814cf64
p4316
sVKeyWord
p4317
Vgh_
p4318
sVProvince
p4319
V\u5317\u4eac
p4320
sVPYInitial
p4321
VZGDXKF
p4322
sVRemarkName
p4323
g52
sVIsOwner
p4324
I0
sVSex
p4325
I0
sVStarFriend
p4326
I0
sVHideInputBarFlag
p4327
I0
sVChatRoomId
p4328
I0
sVEncryChatRoomId
p4329
g52
sVAttrStatus
p4330
I0
sVStatues
p4331
I0
stp4332
Rp4333
I1
bag34
(g3232
g39
(dp4334
VUserName
p4335
V@c6a96e5e2c59681a3daf7ac4e0a9a9c4
p4336
sVCity
p4337
V\u5357\u4eac
p4338
sVSnsFlag
p4339
I0
sVDisplayName
p4340
g52
sVUniFriend
p4341
I0
sVMemberCount
p4342
I0
sVOwnerUin
p4343
I0
sVMemberList
p4344
g50
sVAlias
p4345
g52
sVPYQuanPin
p4346
Vhuarunsuguochaoshi
p4347
sVSignature
p4348
V\u534e\u6da6\u82cf\u679c\uff0c\u4ee5\u201c\u65b0\u9c9c\u3001\u4f18\u8d28\u3001\u4fbf\u5b9c\u3001\u8d34\u5fc3\u3001\u6ee1\u610f\u201d\u4e3a\u6838\u5fc3\u627f\u8bfa\uff0c\u7cbe\u6311\u7ec6\u9009\u4e30\u5bcc\u5546\u54c1\u3001\u4f18\u8d28\u65b0\u9c9c\u786e\u4fdd\u54c1\u8d28\u3001\u4fbf\u5b9c\u7701\u94b1\u8d85\u503c\u4f4e\u4ef7\u3002\u5728\u6ee1\u8db3\u60a8\u8d2d\u7269\u9700\u6c42\u7684\u540c\u65f6\uff0c\u81f4\u529b\u4e8e\u4e3a\u60a8\u5e26\u6765\u66f4\u65b0\u9c9c\u3001\u66f4\u65b9\u4fbf\u3001\u66f4\u8212\u9002\u7684\u5168\u65b9\u4f4d\u65b0\u4f53\u9a8c\u3002
p4349
sVRemarkPYInitial
p4350
g52
sVContactFlag
p4351
I3
sVUin
p4352
I0
sVNickName
p4353
V\u534e\u6da6\u82cf\u679c\u8d85\u5e02
p4354
sVAppAccountFlag
p4355
I0
sVVerifyFlag
p4356
I24
sVRemarkPYQuanPin
p4357
g52
sVHeadImgUrl
p4358
V/cgi-bin/mmwebwx-bin/webwxgeticon?seq=656889210&username=@c6a96e5e2c59681a3daf7ac4e0a9a9c4&skey=@crypt_6353e9d_c05b3ff3a1f7b536c85fc996d814cf64
p4359
sVKeyWord
p4360
Vgh_
p4361
sVProvince
p4362
V\u6c5f\u82cf
p4363
sVPYInitial
p4364
VHRSGCS
p4365
sVRemarkName
p4366
g52
sVIsOwner
p4367
I0
sVSex
p4368
I0
sVStarFriend
p4369
I0
sVHideInputBarFlag
p4370
I0
sVChatRoomId
p4371
I0
sVEncryChatRoomId
p4372
g52
sVAttrStatus
p4373
I0
sVStatues
p4374
I0
stp4375
Rp4376
I1
bag34
(g3232
g39
(dp4377
VUserName
p4378
V@c7135327d12120589ea78cdaa136915f
p4379
sVCity
p4380
V\u65e0\u9521
p4381
sVSnsFlag
p4382
I0
sVDisplayName
p4383
g52
sVUniFriend
p4384
I0
sVMemberCount
p4385
I0
sVOwnerUin
p4386
I0
sVMemberList
p4387
g50
sVAlias
p4388
g52
sVPYQuanPin
p4389
Vjiongjiongshe
p4390
sVSignature
p4391
V\u5185\u6db5\u754c\u7684\u8001\u53f8\u673a\uff0c\u6bb5\u5b50\u754c\u7684\u625b\u628a\u5b50\uff0c\u4e13\u4e1a\u62ef\u6551\u4e0d\u5f00\u68ee~
p4392
sVRemarkPYInitial
p4393
g52
sVContactFlag
p4394
I3
sVUin
p4395
I0
sVNickName
p4396
V\u56e7\u56e7\u793e
p4397
sVAppAccountFlag
p4398
I0
sVVerifyFlag
p4399
I8
sVRemarkPYQuanPin
p4400
g52
sVHeadImgUrl
p4401
V/cgi-bin/mmwebwx-bin/webwxgeticon?seq=668496114&username=@c7135327d12120589ea78cdaa136915f&skey=@crypt_6353e9d_c05b3ff3a1f7b536c85fc996d814cf64
p4402
sVKeyWord
p4403
Vgh_
p4404
sVProvince
p4405
V\u6c5f\u82cf
p4406
sVPYInitial
p4407
VJJS
p4408
sVRemarkName
p4409
g52
sVIsOwner
p4410
I0
sVSex
p4411
I0
sVStarFriend
p4412
I0
sVHideInputBarFlag
p4413
I0
sVChatRoomId
p4414
I0
sVEncryChatRoomId
p4415
g52
sVAttrStatus
p4416
I0
sVStatues
p4417
I0
stp4418
Rp4419
I1
bag34
(g3232
g39
(dp4420
VUserName
p4421
V@f58d5f52013f41856ac19379572c93a5
p4422
sVCity
p4423
V\u65e0\u9521
p4424
sVSnsFlag
p4425
I0
sVDisplayName
p4426
g52
sVUniFriend
p4427
I0
sVMemberCount
p4428
I0
sVOwnerUin
p4429
I0
sVMemberList
p4430
g50
sVAlias
p4431
g52
sVPYQuanPin
p4432
Vlieshouyingshi
p4433
sVSignature
p4434
g52
sVRemarkPYInitial
p4435
g52
sVContactFlag
p4436
I3
sVUin
p4437
I0
sVNickName
p4438
V\u730e\u624b\u5f71\u89c6
p4439
sVAppAccountFlag
p4440
I0
sVVerifyFlag
p4441
I24
sVRemarkPYQuanPin
p4442
g52
sVHeadImgUrl
p4443
V/cgi-bin/mmwebwx-bin/webwxgeticon?seq=668496120&username=@f58d5f52013f41856ac19379572c93a5&skey=@crypt_6353e9d_c05b3ff3a1f7b536c85fc996d814cf64
p4444
sVKeyWord
p4445
Vgh_
p4446
sVProvince
p4447
V\u6c5f\u82cf
p4448
sVPYInitial
p4449
VLSYS
p4450
sVRemarkName
p4451
g52
sVIsOwner
p4452
I0
sVSex
p4453
I0
sVStarFriend
p4454
I0
sVHideInputBarFlag
p4455
I0
sVChatRoomId
p4456
I0
sVEncryChatRoomId
p4457
g52
sVAttrStatus
p4458
I0
sVStatues
p4459
I0
stp4460
Rp4461
I1
bag34
(g3232
g39
(dp4462
VUserName
p4463
V@ffdc1631dbd57d7f3ef0485247700bef
p4464
sVCity
p4465
V\u5e7f\u5dde
p4466
sVSnsFlag
p4467
I0
sVDisplayName
p4468
g52
sVUniFriend
p4469
I0
sVMemberCount
p4470
I0
sVOwnerUin
p4471
I0
sVMemberList
p4472
g50
sVAlias
p4473
g52
sVPYQuanPin
p4474
Vbaishigaolianmeng
p4475
sVSignature
p4476
V\u67cf\u58eb\u9ad8\u8054\u76df\uff0c\u6709\u89c6\u89c9\u7684\u5546\u4e1a\u6a21\u5f0f\u65b0\u751f\u4ee3\u8d44\u8baf\u4ea4\u6d41\u5e73\u53f0
p4477
sVRemarkPYInitial
p4478
g52
sVContactFlag
p4479
I1
sVUin
p4480
I0
sVNickName
p4481
V\u67cf\u58eb\u9ad8\u8054\u76df
p4482
sVAppAccountFlag
p4483
I0
sVVerifyFlag
p4484
I24
sVRemarkPYQuanPin
p4485
g52
sVHeadImgUrl
p4486
V/cgi-bin/mmwebwx-bin/webwxgeticon?seq=668500119&username=@ffdc1631dbd57d7f3ef0485247700bef&skey=@crypt_6353e9d_c05b3ff3a1f7b536c85fc996d814cf64
p4487
sVKeyWord
p4488
Vgh_
p4489
sVProvince
p4490
V\u5e7f\u4e1c
p4491
sVPYInitial
p4492
VBSGLM
p4493
sVRemarkName
p4494
g52
sVIsOwner
p4495
I0
sVSex
p4496
I0
sVStarFriend
p4497
I0
sVHideInputBarFlag
p4498
I0
sVChatRoomId
p4499
I0
sVEncryChatRoomId
p4500
g52
sVAttrStatus
p4501
I0
sVStatues
p4502
I0
stp4503
Rp4504
I1
bag34
(g3232
g39
(dp4505
VUserName
p4506
V@702d491a97af9da32495437f81f5a533
p4507
sVCity
p4508
g52
sVSnsFlag
p4509
I0
sVDisplayName
p4510
g52
sVUniFriend
p4511
I0
sVMemberCount
p4512
I0
sVOwnerUin
p4513
I0
sVMemberList
p4514
g50
sVAlias
p4515
g52
sVPYQuanPin
p4516
Vnajingdiruanruanjian
p4517
sVSignature
p4518
V\u5357\u4eac\u8fea\u8f6f\u662f\u96c6\u8f6f\u786c\u4ef6\u7814\u53d1\u3001\u4ea7\u54c1\u5b9a\u5236\u3001\u7cfb\u7edf\u96c6\u6210\u3001\u9500\u552e\u670d\u52a1\u4e3a\u4e00\u4f53\u7684\u9ad8\u65b0\u6280\u672f\u516c\u53f8\u3002\u4e3a\u5ba2\u6237\u63d0\u4f9b\u9ad8\u7aef\u8f6f\u786c\u4ef6\u3001\u865a\u62df\u73b0\u5b9e\u3001\u5927\u6570\u636e\u7b49\u4e3b\u6d41\u65b9\u5411\u7684\u89e3\u51b3\u65b9\u6848\u3001\u4ea7\u54c1\u548c\u670d\u52a1\u3002\u63d0\u4f9b\u5404\u7c7b\u7f51\u7edc\u8bbe\u5907\u3001\u5b8c\u6574\u7684\u7cfb\u7edf\u96c6\u6210\u65b9\u6848\u53ca\u5168\u65b9\u4f4d\u7684\u6280\u672f\u652f\u6301\u3001\u6280\u672f\u54a8\u8be2\u53ca\u6280\u672f\u670d\u52a1\u3002
p4519
sVRemarkPYInitial
p4520
g52
sVContactFlag
p4521
I3
sVUin
p4522
I0
sVNickName
p4523
V\u5357\u4eac\u8fea\u8f6f\u8f6f\u4ef6
p4524
sVAppAccountFlag
p4525
I0
sVVerifyFlag
p4526
I8
sVRemarkPYQuanPin
p4527
g52
sVHeadImgUrl
p4528
V/cgi-bin/mmwebwx-bin/webwxgeticon?seq=668500142&username=@702d491a97af9da32495437f81f5a533&skey=@crypt_6353e9d_c05b3ff3a1f7b536c85fc996d814cf64
p4529
sVKeyWord
p4530
Vgh_
p4531
sVProvince
p4532
V\u6c5f\u82cf
p4533
sVPYInitial
p4534
VNJDRRJ
p4535
sVRemarkName
p4536
g52
sVIsOwner
p4537
I0
sVSex
p4538
I0
sVStarFriend
p4539
I0
sVHideInputBarFlag
p4540
I0
sVChatRoomId
p4541
I0
sVEncryChatRoomId
p4542
g52
sVAttrStatus
p4543
I0
sVStatues
p4544
I0
stp4545
Rp4546
I1
bag34
(g3232
g39
(dp4547
VUserName
p4548
V@57e7b1e844fcc5a58eee6d51d411de36
p4549
sVCity
p4550
V\u671d\u9633
p4551
sVSnsFlag
p4552
I0
sVDisplayName
p4553
g52
sVUniFriend
p4554
I0
sVMemberCount
p4555
I0
sVOwnerUin
p4556
I0
sVMemberList
p4557
g50
sVAlias
p4558
g52
sVPYQuanPin
p4559
VDeepTechshenkeji
p4560
sVSignature
p4561
V\u201cDeepTech\u6df1\u79d1\u6280\u201d\u662f\u4e0e\u9ebb\u7701\u7406\u5de5\u79d1\u6280\u8bc4\u8bba\u5b98\u65b9\u72ec\u5bb6\u5408\u4f5c\u7684\u4e00\u4e2a\u65b0\u79d1\u6280\u5185\u5bb9\u54c1\u724c\u3002\u6211\u4eec\u4e13\u6ce8\u4e8e\u5173\u6ce8\u4e09\u4e2a\u65b9\u9762\uff1a1\u3001\u57fa\u4e8e\u79d1\u5b66\u7684\u53d1\u73b0\uff1b2\u3001\u771f\u6b63\u7684\u79d1\u6280\u521b\u65b0\uff1b3\u3001\u6df1\u79d1\u6280\u5e94\u7528\u7684\u521b\u65b0\u3002
p4562
sVRemarkPYInitial
p4563
g52
sVContactFlag
p4564
I3
sVUin
p4565
I0
sVNickName
p4566
VDeepTech\u6df1\u79d1\u6280
p4567
sVAppAccountFlag
p4568
I0
sVVerifyFlag
p4569
I24
sVRemarkPYQuanPin
p4570
g52
sVHeadImgUrl
p4571
V/cgi-bin/mmwebwx-bin/webwxgeticon?seq=668502040&username=@57e7b1e844fcc5a58eee6d51d411de36&skey=@crypt_6353e9d_c05b3ff3a1f7b536c85fc996d814cf64
p4572
sVKeyWord
p4573
Vgh_
p4574
sVProvince
p4575
V\u5317\u4eac
p4576
sVPYInitial
p4577
VDEEPTECHSKJ
p4578
sVRemarkName
p4579
g52
sVIsOwner
p4580
I0
sVSex
p4581
I0
sVStarFriend
p4582
I0
sVHideInputBarFlag
p4583
I0
sVChatRoomId
p4584
I0
sVEncryChatRoomId
p4585
g52
sVAttrStatus
p4586
I0
sVStatues
p4587
I0
stp4588
Rp4589
I1
bag34
(g3232
g39
(dp4590
VUserName
p4591
V@71740b7206edd587d1419d31ec4f7bf6
p4592
sVCity
p4593
V\u666e\u9640
p4594
sVSnsFlag
p4595
I0
sVDisplayName
p4596
g52
sVUniFriend
p4597
I0
sVMemberCount
p4598
I0
sVOwnerUin
p4599
I0
sVMemberList
p4600
g50
sVAlias
p4601
g52
sVPYQuanPin
p4602
Vshenbizhuangbiren
p4603
sVSignature
p4604
V\u53d1\u653e\u6700\u65b0\u6700\u706b\u7684\u89c6\u9891\u798f\u5229
p4605
sVRemarkPYInitial
p4606
g52
sVContactFlag
p4607
I1
sVUin
p4608
I0
sVNickName
p4609
V\u795e\u79d8\u88c5\u903c\u4eba
p4610
sVAppAccountFlag
p4611
I0
sVVerifyFlag
p4612
I8
sVRemarkPYQuanPin
p4613
g52
sVHeadImgUrl
p4614
V/cgi-bin/mmwebwx-bin/webwxgeticon?seq=668510068&username=@71740b7206edd587d1419d31ec4f7bf6&skey=@crypt_6353e9d_c05b3ff3a1f7b536c85fc996d814cf64
p4615
sVKeyWord
p4616
Vgh_
p4617
sVProvince
p4618
V\u4e0a\u6d77
p4619
sVPYInitial
p4620
VSBZBR
p4621
sVRemarkName
p4622
g52
sVIsOwner
p4623
I0
sVSex
p4624
I0
sVStarFriend
p4625
I0
sVHideInputBarFlag
p4626
I0
sVChatRoomId
p4627
I0
sVEncryChatRoomId
p4628
g52
sVAttrStatus
p4629
I0
sVStatues
p4630
I0
stp4631
Rp4632
I1
bag34
(g3232
g39
(dp4633
VUserName
p4634
V@8645f59630fa48b8edb4f0fa25f59d50
p4635
sVCity
p4636
V\u671d\u9633
p4637
sVSnsFlag
p4638
I0
sVDisplayName
p4639
g52
sVUniFriend
p4640
I0
sVMemberCount
p4641
I0
sVOwnerUin
p4642
I0
sVMemberList
p4643
g50
sVAlias
p4644
g52
sVPYQuanPin
p4645
Vddxxionglaile
p4646
sVSignature
p4647
V\u65e0\u8bba\u662f\u5b66\u5386\u6559\u80b2\u3001IT\u57f9\u8bad\uff0c\u8fd8\u662f\u8bed\u8a00\u57f9\u8bad\u3001\u827a\u672f\u7c7b\u57f9\u8bad\u3001\u804c\u4e1a\u6280\u80fd\u57f9\u8bad\u3001\u6d77\u5916\u7559\u5b66\u9879\u76ee\uff0c\u8d37\u8d37\u718a\u59cb\u7ec8\u79c9\u627f\u201c\u4e3a\u68a6\u60f3\u8005\u70b9\u4eae\u672a\u6765\u201d\u7684\u5b97\u65e8\uff0c\u6839\u636e\u6559\u80b2\u57f9\u8bad\u673a\u6784\u7684\u7279\u70b9\uff0c\u7ed3\u5408\u5b66\u751f\u7684\u5177\u4f53\u9700\u6c42\uff0c\u91cf\u8eab\u5b9a\u505a\u4e0d\u540c\u7684\u89e3\u51b3\u65b9\u6848\uff0c\u4f7f\u5b66\u751f\u53ef\u4ee5\u8f7b\u677e\u901a\u8fc7\u5206\u671f\u4ed8\u6b3e\u6765\u5b8c\u6210\u5b66\u4e1a\u3002
p4648
sVRemarkPYInitial
p4649
g52
sVContactFlag
p4650
I3
sVUin
p4651
I0
sVNickName
p4652
Vddx\u718a\u6765\u4e86
p4653
sVAppAccountFlag
p4654
I0
sVVerifyFlag
p4655
I24
sVRemarkPYQuanPin
p4656
g52
sVHeadImgUrl
p4657
V/cgi-bin/mmwebwx-bin/webwxgeticon?seq=656870811&username=@8645f59630fa48b8edb4f0fa25f59d50&skey=@crypt_6353e9d_c05b3ff3a1f7b536c85fc996d814cf64
p4658
sVKeyWord
p4659
Vgh_
p4660
sVProvince
p4661
V\u5317\u4eac
p4662
sVPYInitial
p4663
VDDXXLL
p4664
sVRemarkName
p4665
g52
sVIsOwner
p4666
I0
sVSex
p4667
I0
sVStarFriend
p4668
I0
sVHideInputBarFlag
p4669
I0
sVChatRoomId
p4670
I0
sVEncryChatRoomId
p4671
g52
sVAttrStatus
p4672
I0
sVStatues
p4673
I0
stp4674
Rp4675
I1
bag34
(g3232
g39
(dp4676
VUserName
p4677
V@65f2ba1c491a480970deb20a6ad480cb
p4678
sVCity
p4679
V\u671d\u9633
p4680
sVSnsFlag
p4681
I0
sVDisplayName
p4682
g52
sVUniFriend
p4683
I0
sVMemberCount
p4684
I0
sVOwnerUin
p4685
I0
sVMemberList
p4686
g50
sVAlias
p4687
g52
sVPYQuanPin
p4688
Vyoubao
p4689
sVSignature
p4690
V\u53cb\u5b9dUbox\u662f\u5168\u7403\u552f\u4e00\u7684\u4e92\u52a8\u578b\u81ea\u52a9\u552e\u8d27\u673a\uff0c\u901a\u8fc7\u53cb\u5b9d\u624b\u673a\u5ba2\u6237\u7aef\u53ef\u5728\u552e\u8d27\u673a\u4e0a\u8d2d\u4e70\u996e\u6599\u3001\u96f6\u98df\u3001\u5feb\u9910\uff0c\u83b7\u5f97\u4f60\u7684\u4e13\u5c5e\u4fbf\u5229\u3001\u4e13\u5c5e\u7279\u6743\u3001\u4e13\u5c5e\u4f18\u60e0\u3002
p4691
sVRemarkPYInitial
p4692
g52
sVContactFlag
p4693
I3
sVUin
p4694
I0
sVNickName
p4695
V\u53cb\u5b9d
p4696
sVAppAccountFlag
p4697
I0
sVVerifyFlag
p4698
I24
sVRemarkPYQuanPin
p4699
g52
sVHeadImgUrl
p4700
V/cgi-bin/mmwebwx-bin/webwxgeticon?seq=654291338&username=@65f2ba1c491a480970deb20a6ad480cb&skey=@crypt_6353e9d_c05b3ff3a1f7b536c85fc996d814cf64
p4701
sVKeyWord
p4702
Vgh_
p4703
sVProvince
p4704
V\u5317\u4eac
p4705
sVPYInitial
p4706
VYB
p4707
sVRemarkName
p4708
g52
sVIsOwner
p4709
I0
sVSex
p4710
I0
sVStarFriend
p4711
I0
sVHideInputBarFlag
p4712
I0
sVChatRoomId
p4713
I0
sVEncryChatRoomId
p4714
g52
sVAttrStatus
p4715
I4
sVStatues
p4716
I0
stp4717
Rp4718
I1
bag34
(g3232
g39
(dp4719
VUserName
p4720
V@0677f0b21534d21c11d6c419679232a7
p4721
sVCity
p4722
g52
sVSnsFlag
p4723
I0
sVDisplayName
p4724
g52
sVUniFriend
p4725
I0
sVMemberCount
p4726
I0
sVOwnerUin
p4727
I0
sVMemberList
p4728
g50
sVAlias
p4729
g52
sVPYQuanPin
p4730
Vmeituanwaimai
p4731
sVSignature
p4732
V\u9001\u4e0a\u95e8\u7684\u7f8e\u597d\u751f\u6d3b\u3002
p4733
sVRemarkPYInitial
p4734
g52
sVContactFlag
p4735
I3
sVUin
p4736
I0
sVNickName
p4737
V\u7f8e\u56e2\u5916\u5356
p4738
sVAppAccountFlag
p4739
I0
sVVerifyFlag
p4740
I24
sVRemarkPYQuanPin
p4741
g52
sVHeadImgUrl
p4742
V/cgi-bin/mmwebwx-bin/webwxgeticon?seq=654290526&username=@0677f0b21534d21c11d6c419679232a7&skey=@crypt_6353e9d_c05b3ff3a1f7b536c85fc996d814cf64
p4743
sVKeyWord
p4744
Vgh_
p4745
sVProvince
p4746
V\u5317\u4eac
p4747
sVPYInitial
p4748
VMTWM
p4749
sVRemarkName
p4750
g52
sVIsOwner
p4751
I0
sVSex
p4752
I0
sVStarFriend
p4753
I0
sVHideInputBarFlag
p4754
I0
sVChatRoomId
p4755
I0
sVEncryChatRoomId
p4756
g52
sVAttrStatus
p4757
I0
sVStatues
p4758
I0
stp4759
Rp4760
I1
bag34
(g3232
g39
(dp4761
VUserName
p4762
V@16007d090c43be3df6f1ba304a5dca98
p4763
sVCity
p4764
V\u5357\u4eac
p4765
sVSnsFlag
p4766
I0
sVDisplayName
p4767
g52
sVUniFriend
p4768
I0
sVMemberCount
p4769
I0
sVOwnerUin
p4770
I0
sVMemberList
p4771
g50
sVAlias
p4772
g52
sVPYQuanPin
p4773
Vyunchuangdashuju
p4774
sVSignature
p4775
V\u4e91\u521b\u5927\u6570\u636e\uff08\u8bc1\u5238\u7b80\u79f0\uff1a\u4e91\u521b\u6570\u636e\uff0c\u80a1\u7968\u4ee3\u7801\uff1a835305\uff09\uff0c\u5927\u6570\u636e\u6280\u672f\u9886\u519b\u4f01\u4e1a\u3002\u63d0\u4f9b\u6027\u4ef7\u6bd4\u63d0\u5347\u5341\u500d\u7684\u8d85\u4f4e\u529f\u8017\u4e91\u5b58\u50a8\u7cfb\u7edf\u3001\u6570\u636e\u7acb\u65b9\u5927\u6570\u636e\u5e93\u3001\u8d85\u9ad8\u901f\u4e91\u4f20\u8f93\u7cfb\u7edf\u3001\u6574\u5408\u5404\u79cd\u76d1\u63a7\u7cfb\u7edf\u7684\u4e91\u89c6\u9891\u7cfb\u7edf\u3001PM2.5\u4e91\u76d1\u6d4b\u9884\u8b66\u5e73\u53f0\u7b49\u3002
p4776
sVRemarkPYInitial
p4777
g52
sVContactFlag
p4778
I3
sVUin
p4779
I0
sVNickName
p4780
V\u4e91\u521b\u5927\u6570\u636e
p4781
sVAppAccountFlag
p4782
I0
sVVerifyFlag
p4783
I24
sVRemarkPYQuanPin
p4784
g52
sVHeadImgUrl
p4785
V/cgi-bin/mmwebwx-bin/webwxgeticon?seq=668517604&username=@16007d090c43be3df6f1ba304a5dca98&skey=@crypt_6353e9d_c05b3ff3a1f7b536c85fc996d814cf64
p4786
sVKeyWord
p4787
Vgh_
p4788
sVProvince
p4789
V\u6c5f\u82cf
p4790
sVPYInitial
p4791
VYCDSJ
p4792
sVRemarkName
p4793
g52
sVIsOwner
p4794
I0
sVSex
p4795
I0
sVStarFriend
p4796
I0
sVHideInputBarFlag
p4797
I0
sVChatRoomId
p4798
I0
sVEncryChatRoomId
p4799
g52
sVAttrStatus
p4800
I0
sVStatues
p4801
I0
stp4802
Rp4803
I1
bag34
(g3232
g39
(dp4804
VUserName
p4805
V@6aefb38fc6e0819447c9ea3104edab83
p4806
sVCity
p4807
V\u5357\u4eac
p4808
sVSnsFlag
p4809
I0
sVDisplayName
p4810
g52
sVUniFriend
p4811
I0
sVMemberCount
p4812
I0
sVOwnerUin
p4813
I0
sVMemberList
p4814
g50
sVAlias
p4815
g52
sVPYQuanPin
p4816
Vzhongguodashuju
p4817
sVSignature
p4818
V\u4e2d\u56fd\u5927\u6570\u636e |  \u63d0\u4f9b\u5927\u6570\u636e\u6280\u672f\uff0c\u5927\u6570\u636e\u5e94\u7528\u6848\u4f8b\uff0c\u6c47\u805a\u5927\u6570\u636e\u8d44\u6599\uff0c\u8ba8\u8bba\u5927\u6570\u636e\u8bdd\u9898\u3002\u4e2d\u56fd\u5927\u6570\u636e\u662f\u56fd\u5185\u6700\u65e9\u7684\u516c\u76ca\u6027\u5927\u6570\u636e\u7f51\u7ad9\uff0c\u7531\u5218\u9e4f\u6559\u6388\u521b\u529e\u3002
p4819
sVRemarkPYInitial
p4820
g52
sVContactFlag
p4821
I3
sVUin
p4822
I0
sVNickName
p4823
V\u4e2d\u56fd\u5927\u6570\u636e
p4824
sVAppAccountFlag
p4825
I0
sVVerifyFlag
p4826
I8
sVRemarkPYQuanPin
p4827
g52
sVHeadImgUrl
p4828
V/cgi-bin/mmwebwx-bin/webwxgeticon?seq=668520041&username=@6aefb38fc6e0819447c9ea3104edab83&skey=@crypt_6353e9d_c05b3ff3a1f7b536c85fc996d814cf64
p4829
sVKeyWord
p4830
Vgh_
p4831
sVProvince
p4832
V\u6c5f\u82cf
p4833
sVPYInitial
p4834
VZGDSJ
p4835
sVRemarkName
p4836
g52
sVIsOwner
p4837
I0
sVSex
p4838
I0
sVStarFriend
p4839
I0
sVHideInputBarFlag
p4840
I0
sVChatRoomId
p4841
I0
sVEncryChatRoomId
p4842
g52
sVAttrStatus
p4843
I0
sVStatues
p4844
I0
stp4845
Rp4846
I1
bag34
(g3232
g39
(dp4847
VUserName
p4848
V@9e42c2236ab32f7f69abdc6f9b5330df
p4849
sVCity
p4850
V\u5e7f\u5dde
p4851
sVSnsFlag
p4852
I0
sVDisplayName
p4853
g52
sVUniFriend
p4854
I0
sVMemberCount
p4855
I0
sVOwnerUin
p4856
I0
sVMemberList
p4857
g50
sVAlias
p4858
g52
sVPYQuanPin
p4859
VqianliaoLive
p4860
sVSignature
p4861
V\u70b9\u51fb\u5e95\u90e8\u201c\u5173\u6ce8\u201d\uff0c\u624d\u53ef\u53ca\u65f6\u6536\u5230\u8001\u5e08\u5e03\u7f6e\u7684\u4f5c\u4e1a\u548c\u5f00\u8bfe\u901a\u77e5\uff1b\u5343\u804a\u8bfe\u7a0b\u8986\u76d6\u5973\u6027\u6210\u957f\u3001\u5a5a\u604b\u3001\u80b2\u513f\u3001\u745c\u4f3d\u5851\u5f62\u3001\u804c\u573a\u3001\u7ecf\u8425\u7ba1\u7406\u3001\u5fc3\u7406\u7b4940\u591a\u4e2a\u7c7b\u76ee\u3002\u8fdb\u5165\u5343\u804a\uff0c\u8ddf\u4e00\u5343\u4e07\u5b66\u5458\u4e00\u8d77\u5b66\u4e60\u4e00\u8d77\u804a\u3002
p4862
sVRemarkPYInitial
p4863
g52
sVContactFlag
p4864
I3
sVUin
p4865
I0
sVNickName
p4866
V\u5343\u804aLive
p4867
sVAppAccountFlag
p4868
I0
sVVerifyFlag
p4869
I24
sVRemarkPYQuanPin
p4870
g52
sVHeadImgUrl
p4871
V/cgi-bin/mmwebwx-bin/webwxgeticon?seq=668521606&username=@9e42c2236ab32f7f69abdc6f9b5330df&skey=@crypt_6353e9d_c05b3ff3a1f7b536c85fc996d814cf64
p4872
sVKeyWord
p4873
Vgh_
p4874
sVProvince
p4875
V\u5e7f\u4e1c
p4876
sVPYInitial
p4877
VQLLIVE
p4878
sVRemarkName
p4879
g52
sVIsOwner
p4880
I0
sVSex
p4881
I0
sVStarFriend
p4882
I0
sVHideInputBarFlag
p4883
I0
sVChatRoomId
p4884
I0
sVEncryChatRoomId
p4885
g52
sVAttrStatus
p4886
I0
sVStatues
p4887
I0
stp4888
Rp4889
I1
bag34
(g3232
g39
(dp4890
VUserName
p4891
V@5074677bfc9fcad65142c9a80da2ce58
p4892
sVCity
p4893
g52
sVSnsFlag
p4894
I0
sVDisplayName
p4895
g52
sVUniFriend
p4896
I0
sVMemberCount
p4897
I0
sVOwnerUin
p4898
I0
sVMemberList
p4899
g50
sVAlias
p4900
g52
sVPYQuanPin
p4901
Vmoshoushijie
p4902
sVSignature
p4903
V\u5173\u6ce8\u9b54\u517d\u4e16\u754c\u670d\u52a1\u53f7\uff0c\u4e3b\u52a8\u83b7\u53d6\u9b54\u517d\u4e16\u754c\u6700\u65b0\u7684\u5b98\u65b9\u8d44\u8baf\u4ee5\u53ca\u6d3b\u52a8\u4fe1\u606f\u3002
p4904
sVRemarkPYInitial
p4905
g52
sVContactFlag
p4906
I3
sVUin
p4907
I0
sVNickName
p4908
V\u9b54\u517d\u4e16\u754c
p4909
sVAppAccountFlag
p4910
I0
sVVerifyFlag
p4911
I24
sVRemarkPYQuanPin
p4912
g52
sVHeadImgUrl
p4913
V/cgi-bin/mmwebwx-bin/webwxgeticon?seq=621170370&username=@5074677bfc9fcad65142c9a80da2ce58&skey=@crypt_6353e9d_c05b3ff3a1f7b536c85fc996d814cf64
p4914
sVKeyWord
p4915
Vgh_
p4916
sVProvince
p4917
V\u4e0a\u6d77
p4918
sVPYInitial
p4919
VMSSJ
p4920
sVRemarkName
p4921
g52
sVIsOwner
p4922
I0
sVSex
p4923
I0
sVStarFriend
p4924
I0
sVHideInputBarFlag
p4925
I0
sVChatRoomId
p4926
I0
sVEncryChatRoomId
p4927
g52
sVAttrStatus
p4928
I0
sVStatues
p4929
I0
stp4930
Rp4931
I1
bag34
(g3232
g39
(dp4932
VUserName
p4933
V@ffd4e8f4f1180d7c986b00b0233a7f78
p4934
sVCity
p4935
V\u5357\u4eac
p4936
sVSnsFlag
p4937
I0
sVDisplayName
p4938
g52
sVUniFriend
p4939
I0
sVMemberCount
p4940
I0
sVOwnerUin
p4941
I0
sVMemberList
p4942
g50
sVAlias
p4943
g52
sVPYQuanPin
p4944
Vyinchengqianwanjian
p4945
sVSignature
p4946
V\u5357\u4eac\u9996\u5bb6\u8d44\u4ea7\u7ba1\u7406\uff0c\u957f\u79df\u5e73\u53f0\u3002\uff08\u6c38\u4e45\u514d\u4e2d\u4ecb\u8d39\uff09
p4947
sVRemarkPYInitial
p4948
g52
sVContactFlag
p4949
I3
sVUin
p4950
I0
sVNickName
p4951
V\u94f6\u57ce\u5343\u4e07\u95f4
p4952
sVAppAccountFlag
p4953
I0
sVVerifyFlag
p4954
I24
sVRemarkPYQuanPin
p4955
g52
sVHeadImgUrl
p4956
V/cgi-bin/mmwebwx-bin/webwxgeticon?seq=668529949&username=@ffd4e8f4f1180d7c986b00b0233a7f78&skey=@crypt_6353e9d_c05b3ff3a1f7b536c85fc996d814cf64
p4957
sVKeyWord
p4958
Vgh_
p4959
sVProvince
p4960
V\u6c5f\u82cf
p4961
sVPYInitial
p4962
VYCQWJ
p4963
sVRemarkName
p4964
g52
sVIsOwner
p4965
I0
sVSex
p4966
I0
sVStarFriend
p4967
I0
sVHideInputBarFlag
p4968
I0
sVChatRoomId
p4969
I0
sVEncryChatRoomId
p4970
g52
sVAttrStatus
p4971
I0
sVStatues
p4972
I0
stp4973
Rp4974
I1
bag34
(g3232
g39
(dp4975
VUserName
p4976
V@e7971a50de122948c0d262c03b8c4125
p4977
sVCity
p4978
V\u626c\u5dde
p4979
sVSnsFlag
p4980
I0
sVDisplayName
p4981
g52
sVUniFriend
p4982
I0
sVMemberCount
p4983
I0
sVOwnerUin
p4984
I0
sVMemberList
p4985
g50
sVAlias
p4986
g52
sVPYQuanPin
p4987
Vyinxiangmingchengfuwuhao
p4988
sVSignature
p4989
V\u901a\u8fc7\u5c0f\u7a0b\u5e8f\u4e8c\u7ef4\u7801\u628a\u4eba\u4e0e\u57ce\u5e02\u8fde\u63a5\u8d77\u6765\uff0c\u79fb\u52a8\u4e92\u8054\u7f51\u5c55\u73b0\u57ce\u5e02\u98ce\u8c8c\u3001\u4f53\u73b0\u57ce\u5e02\u6d3b\u529b\u3001\u5bfb\u89c5\u57ce\u5e02\u5386\u53f2\u3001\u6316\u6398\u57ce\u5e02\u7075\u9b42\u3001\u4e86\u89e3\u57ce\u5e02\u6027\u683c\u3001\u4f20\u64ad\u54c1\u724c\u5370\u8c61\u540d\u57ce\u3002\u597d\u5370\u8c61\u81ea\u6709\u5927\u5f71\u54cd\uff01
p4990
sVRemarkPYInitial
p4991
g52
sVContactFlag
p4992
I3
sVUin
p4993
I0
sVNickName
p4994
V\u5370\u8c61\u540d\u57ce\u670d\u52a1\u53f7
p4995
sVAppAccountFlag
p4996
I0
sVVerifyFlag
p4997
I24
sVRemarkPYQuanPin
p4998
g52
sVHeadImgUrl
p4999
V/cgi-bin/mmwebwx-bin/webwxgeticon?seq=668527510&username=@e7971a50de122948c0d262c03b8c4125&skey=@crypt_6353e9d_c05b3ff3a1f7b536c85fc996d814cf64
p5000
sVKeyWord
p5001
Vgh_
p5002
sVProvince
p5003
V\u6c5f\u82cf
p5004
sVPYInitial
p5005
VYXMCFWH
p5006
sVRemarkName
p5007
g52
sVIsOwner
p5008
I0
sVSex
p5009
I0
sVStarFriend
p5010
I0
sVHideInputBarFlag
p5011
I0
sVChatRoomId
p5012
I0
sVEncryChatRoomId
p5013
g52
sVAttrStatus
p5014
I0
sVStatues
p5015
I0
stp5016
Rp5017
I1
bag34
(g3232
g39
(dp5018
VUserName
p5019
V@cc4fd0f78f2842426b884db63c489b39
p5020
sVCity
p5021
V\u4fe1\u9633
p5022
sVSnsFlag
p5023
I0
sVDisplayName
p5024
g52
sVUniFriend
p5025
I0
sVMemberCount
p5026
I0
sVOwnerUin
p5027
I0
sVMemberList
p5028
g50
sVAlias
p5029
g52
sVPYQuanPin
p5030
Vgaoxiaogongzhu
p5031
sVSignature
p5032
V\u6bcf\u5929\uff0c\u90fd\u662f\u5feb\u4e50\u7684\u5f00\u59cb\uff01\u641e\u7b11\u516c\u4e3b\uff0c\u8ba9\u4f60\u6bcf\u5929\u7b11\u4e0d\u505c\uff01
p5033
sVRemarkPYInitial
p5034
g52
sVContactFlag
p5035
I3
sVUin
p5036
I0
sVNickName
p5037
V\u641e\u7b11\u516c\u4e3b
p5038
sVAppAccountFlag
p5039
I0
sVVerifyFlag
p5040
I8
sVRemarkPYQuanPin
p5041
g52
sVHeadImgUrl
p5042
V/cgi-bin/mmwebwx-bin/webwxgeticon?seq=668540952&username=@cc4fd0f78f2842426b884db63c489b39&skey=@crypt_6353e9d_c05b3ff3a1f7b536c85fc996d814cf64
p5043
sVKeyWord
p5044
Vgh_
p5045
sVProvince
p5046
V\u6cb3\u5357
p5047
sVPYInitial
p5048
VGXGZ
p5049
sVRemarkName
p5050
g52
sVIsOwner
p5051
I0
sVSex
p5052
I0
sVStarFriend
p5053
I0
sVHideInputBarFlag
p5054
I0
sVChatRoomId
p5055
I0
sVEncryChatRoomId
p5056
g52
sVAttrStatus
p5057
I0
sVStatues
p5058
I0
stp5059
Rp5060
I1
bag34
(g3232
g39
(dp5061
VUserName
p5062
V@7721aa1e1c09a035838ee65cb7f1d938
p5063
sVCity
p5064
V\u6d66\u4e1c\u65b0\u533a
p5065
sVSnsFlag
p5066
I0
sVDisplayName
p5067
g52
sVUniFriend
p5068
I0
sVMemberCount
p5069
I0
sVOwnerUin
p5070
I0
sVMemberList
p5071
g50
sVAlias
p5072
g52
sVPYQuanPin
p5073
Vjiangnacangshuguan
p5074
sVSignature
p5075
V\u6d77\u91cf\u56fe\u4e66 \u514d\u8d39\u9605\u8bfb
p5076
sVRemarkPYInitial
p5077
g52
sVContactFlag
p5078
I3
sVUin
p5079
I0
sVNickName
p5080
V\u6c5f\u5357\u85cf\u4e66\u9986
p5081
sVAppAccountFlag
p5082
I0
sVVerifyFlag
p5083
I24
sVRemarkPYQuanPin
p5084
g52
sVHeadImgUrl
p5085
V/cgi-bin/mmwebwx-bin/webwxgeticon?seq=668541044&username=@7721aa1e1c09a035838ee65cb7f1d938&skey=@crypt_6353e9d_c05b3ff3a1f7b536c85fc996d814cf64
p5086
sVKeyWord
p5087
Vgh_
p5088
sVProvince
p5089
V\u4e0a\u6d77
p5090
sVPYInitial
p5091
VJNCSG
p5092
sVRemarkName
p5093
g52
sVIsOwner
p5094
I0
sVSex
p5095
I0
sVStarFriend
p5096
I0
sVHideInputBarFlag
p5097
I0
sVChatRoomId
p5098
I0
sVEncryChatRoomId
p5099
g52
sVAttrStatus
p5100
I0
sVStatues
p5101
I0
stp5102
Rp5103
I1
bag34
(g3232
g39
(dp5104
VUserName
p5105
V@037397d4e3c66ca765a1b57db00303af
p5106
sVCity
p5107
V\u6df1\u5733
p5108
sVSnsFlag
p5109
I0
sVDisplayName
p5110
g52
sVUniFriend
p5111
I0
sVMemberCount
p5112
I0
sVOwnerUin
p5113
I0
sVMemberList
p5114
g50
sVAlias
p5115
g52
sVPYQuanPin
p5116
Vtengxunyingmeiju
p5117
sVSignature
p5118
V\u6700\u6f6e\u6d41\u7684\u82f1\u7f8e\u5267\u8ffd\u5267\u6307\u5357
p5119
sVRemarkPYInitial
p5120
g52
sVContactFlag
p5121
I1
sVUin
p5122
I0
sVNickName
p5123
V\u817e\u8baf\u82f1\u7f8e\u5267
p5124
sVAppAccountFlag
p5125
I0
sVVerifyFlag
p5126
I24
sVRemarkPYQuanPin
p5127
g52
sVHeadImgUrl
p5128
V/cgi-bin/mmwebwx-bin/webwxgeticon?seq=668542168&username=@037397d4e3c66ca765a1b57db00303af&skey=@crypt_6353e9d_c05b3ff3a1f7b536c85fc996d814cf64
p5129
sVKeyWord
p5130
Vgh_
p5131
sVProvince
p5132
V\u5e7f\u4e1c
p5133
sVPYInitial
p5134
VTXYMJ
p5135
sVRemarkName
p5136
g52
sVIsOwner
p5137
I0
sVSex
p5138
I0
sVStarFriend
p5139
I0
sVHideInputBarFlag
p5140
I0
sVChatRoomId
p5141
I0
sVEncryChatRoomId
p5142
g52
sVAttrStatus
p5143
I0
sVStatues
p5144
I0
stp5145
Rp5146
I1
batp5147
Rp5148
I1
bssS'loginInfo'
p5149
(dp5150
S'SyncKey'
p5151
(dp5152
VCount
p5153
I4
sVList
p5154
(lp5155
(dp5156
VVal
p5157
I668545394
sVKey
p5158
I1
sa(dp5159
VVal
p5160
I668545630
sVKey
p5161
I2
sa(dp5162
VVal
p5163
I668545393
sVKey
p5164
I3
sa(dp5165
VVal
p5166
I1501865557
sVKey
p5167
I1000
sassS'syncUrl'
p5168
S'https://webpush.wx.qq.com/cgi-bin/mmwebwx-bin'
p5169
sS'skey'
p5170
V@crypt_6353e9d_c05b3ff3a1f7b536c85fc996d814cf64
p5171
sS'wxuin'
p5172
V1610532702
p5173
sS'synckey'
p5174
S'1_668545394|2_668545630|3_668545393|1000_1501865557'
p5175
sS'url'
p5176
Vhttps://wx.qq.com/cgi-bin/mmwebwx-bin
p5177
sS'pass_ticket'
p5178
V0qY%2FC00lXwi6whdPccpZczJne4x2fI3QXeu6tq%2F8FvottD3spUtXz8ehFCo7InP6
p5179
sS'wxsid'
p5180
Vh1lDF1Vo5ka2HdO9
p5181
sS'BaseRequest'
p5182
(dp5183
g54
g5173
sS'Skey'
p5184
g5171
sS'DeviceID'
p5185
g5179
sS'Sid'
p5186
g5181
ssS'User'
p5187
g34
(g38
g39
(dp5188
g41
g31
sg42
g43
sg44
g43
sg45
I0
sg47
g50
sg51
g52
sg53
g52
sg78
I1
sg55
I0
sg56
I0
sg57
g43
sg58
g43
sg59
g52
sg60
g52
sg61
I0
sg62
I0
sg63
I1
sg64
g43
sg65
I0
sg68
I0
sg66
I17
sg67
I0
sg46
I0
sg69
g43
sg70
g71
sg72
I0
sg73
g74
sg75
g52
sg76
g77
sg54
I1610532702
sg79
I0
sg80
I0
stp5189
Rp5190
I1
bsS'fileUrl'
p5191
S'https://file.wx.qq.com/cgi-bin/mmwebwx-bin'
p5192
sS'InviteStartCount'
p5193
I40
sS'deviceid'
p5194
S'e631491493354833'
p5195
ss.