(dp0
S'cookies'
p1
(dp2
S'wxloadtime'
p3
S'1502107019'
p4
sS'webwx_data_ticket'
p5
S'gSdjiB7ilxTnCRNipHdk6NkN'
p6
sS'wxuin'
p7
S'1610532702'
p8
sS'login_frequency'
p9
S'2'
p10
sS'MM_WX_NOTIFY_STATE'
p11
S'1'
p12
sS'MM_WX_SOUND_STATE'
p13
g12
sS'webwx_auth_ticket'
p14
S'CIsBENGPkJkNGoABlzWaaFuiGa9EpmtSYZi7kgJoPYLb3Y0hZZ7eVWGN1+fCVnR6mJVUw95gL2avC98Tvqkc/x0tMqvL2gr7R0l+AAMV1hwrZ5Mf6p1cEC97VGCLu9aWrTSrwbkW5qbs0r6uTJXMAaZUsMi6RPvdHdZFMsC0enk8ne3xR9wfsTlaxlw='
p15
sS'last_wxuin'
p16
S'1610532702'
p17
sS'webwxuvid'
p18
S'86997a1464e6532aca1336b3009712aaf2275ac7e9b26112f78c05420e6baa28a25c34b9fc09257e68930a26e7f20337'
p19
sS'wxpluginkey'
p20
S'1502094656'
p21
sS'wxsid'
p22
S'UhEONWz9WVGzA1Ff'
p23
sS'mm_lang'
p24
S'zh_CN'
p25
ssS'version'
p26
S'1.3.9'
p27
sS'storage'
p28
(dp29
S'userName'
p30
V@644290b403fe6c7b431bd66b57120f0c796c59dbcd35eb0a9bd08e56be52fac2
p31
sS'lastInputUserName'
p32
NsS'memberList'
p33
ccopy_reg
_reconstructor
p34
(citchat.storage.templates
ContactList
p35
c__builtin__
list
p36
(lp37
g34
(citchat.storage.templates
User
p38
c__builtin__
dict
p39
(dp40
S'UserName'
p41
g31
sS'City'
p42
S''
p43
sS'DisplayName'
p44
g43
sS'UniFriend'
p45
I0
sS'OwnerUin'
p46
I0
sS'MemberList'
p47
g34
(g35
g36
(lp48
tp49
Rp50
I1
bsS'PYQuanPin'
p51
V
p52
sS'RemarkPYInitial'
p53
g52
sS'Uin'
p54
I1610532702
sS'AppAccountFlag'
p55
I0
sS'VerifyFlag'
p56
I0
sS'Province'
p57
g43
sS'KeyWord'
p58
g43
sS'RemarkName'
p59
g52
sS'PYInitial'
p60
g52
sS'ChatRoomId'
p61
I0
sS'HideInputBarFlag'
p62
I0
sVHeadImgFlag
p63
I1
sS'EncryChatRoomId'
p64
g43
sS'AttrStatus'
p65
I0
sS'SnsFlag'
p66
I17
sS'MemberCount'
p67
I0
sVWebWxPluginSwitch
p68
I0
sS'Alias'
p69
g43
sS'Signature'
p70
V\u989d\u989d\uff1f
p71
sS'ContactFlag'
p72
I0
sS'NickName'
p73
V\u5218\u9756
p74
sS'RemarkPYQuanPin'
p75
g52
sS'HeadImgUrl'
p76
V/cgi-bin/mmwebwx-bin/webwxgeticon?seq=971962558&username=@644290b403fe6c7b431bd66b57120f0c796c59dbcd35eb0a9bd08e56be52fac2&skey=@crypt_6353e9d_ed7032495f5dca64485fdcf3d0e02a2f
p77
sS'Sex'
p78
I1
sS'StarFriend'
p79
I0
sS'Statues'
p80
I0
stp81
Rp82
I1
bag34
(g38
g39
(dp83
VUserName
p84
V@85ce2711508cfedb7657f935cc060230
p85
sVCity
p86
V\u5357\u4eac
p87
sVSnsFlag
p88
I49
sVDisplayName
p89
g52
sVUniFriend
p90
I0
sVMemberCount
p91
I0
sVOwnerUin
p92
I0
sVMemberList
p93
g50
sVAlias
p94
g52
sVPYQuanPin
p95
Vshuiwangyunchuan
p96
sVSignature
p97
V\u51b3\u5b9a\u4f60\u4eba\u751f\u9ad8\u5ea6\u7684\uff0c\u4e0d\u662f\u4f60\u7684\u624d\u80fd\uff0c\u800c\u662f\u4f60\u7684\u6001\u5ea6\uff01
p98
sVRemarkPYInitial
p99
g52
sVContactFlag
p100
I3
sVUin
p101
I0
sVNickName
p102
V\u6c34\u671b\u4e91\u7a7f
p103
sVAppAccountFlag
p104
I0
sVVerifyFlag
p105
I0
sVRemarkPYQuanPin
p106
g52
sVHeadImgUrl
p107
V/cgi-bin/mmwebwx-bin/webwxgeticon?seq=656870815&username=@85ce2711508cfedb7657f935cc060230&skey=@crypt_6353e9d_ed7032495f5dca64485fdcf3d0e02a2f
p108
sVKeyWord
p109
VATY
p110
sVProvince
p111
V\u6c5f\u82cf
p112
sVPYInitial
p113
VSWYC
p114
sVRemarkName
p115
g52
sVIsOwner
p116
I0
sVSex
p117
I2
sVStarFriend
p118
I0
sVHideInputBarFlag
p119
I0
sVChatRoomId
p120
I0
sVEncryChatRoomId
p121
g52
sVAttrStatus
p122
I233407
sVStatues
p123
I0
stp124
Rp125
I1
bag34
(g38
g39
(dp126
VUserName
p127
V@cb695ff02dc582f7fa1bf7db7c68cdc62cbfe129de6bf5b201c9c8c87d5d173b
p128
sVCity
p129
V\u65e0\u9521
p130
sVSnsFlag
p131
I49
sVDisplayName
p132
g52
sVUniFriend
p133
I0
sVMemberCount
p134
I0
sVOwnerUin
p135
I0
sVMemberList
p136
g50
sVAlias
p137
g52
sVPYQuanPin
p138
Vkangyanyangshengmeirongweilaoshi18362334829
p139
sVSignature
p140
g52
sVRemarkPYInitial
p141
g52
sVContactFlag
p142
I65537
sVUin
p143
I0
sVNickName
p144
V\u5eb7\u598d\u517b\u751f\u7f8e\u5bb9\u3001\u9b4f\u8001\u5e0818362334829
p145
sVAppAccountFlag
p146
I0
sVVerifyFlag
p147
I0
sVRemarkPYQuanPin
p148
g52
sVHeadImgUrl
p149
V/cgi-bin/mmwebwx-bin/webwxgeticon?seq=656873449&username=@cb695ff02dc582f7fa1bf7db7c68cdc62cbfe129de6bf5b201c9c8c87d5d173b&skey=@crypt_6353e9d_ed7032495f5dca64485fdcf3d0e02a2f
p150
sVKeyWord
p151
g52
sVProvince
p152
V\u6c5f\u82cf
p153
sVPYInitial
p154
VKYYSMRWLS18362334829
p155
sVRemarkName
p156
g52
sVIsOwner
p157
I0
sVSex
p158
I2
sVStarFriend
p159
I0
sVHideInputBarFlag
p160
I0
sVChatRoomId
p161
I0
sVEncryChatRoomId
p162
g52
sVAttrStatus
p163
I98341
sVStatues
p164
I0
stp165
Rp166
I1
bag34
(g38
g39
(dp167
VUserName
p168
V@65c3342eac65ec0b38c616952e623450f324fd466d172cfa37ecdb087f1f73b4
p169
sVCity
p170
V\u676d\u5dde
p171
sVSnsFlag
p172
I1
sVDisplayName
p173
g52
sVUniFriend
p174
I0
sVMemberCount
p175
I0
sVOwnerUin
p176
I0
sVMemberList
p177
g50
sVAlias
p178
g52
sVPYQuanPin
p179
VWinnieniu
p180
sVSignature
p181
g52
sVRemarkPYInitial
p182
g52
sVContactFlag
p183
I3
sVUin
p184
I0
sVNickName
p185
VWinnie\u599e
p186
sVAppAccountFlag
p187
I0
sVVerifyFlag
p188
I0
sVRemarkPYQuanPin
p189
g52
sVHeadImgUrl
p190
V/cgi-bin/mmwebwx-bin/webwxgeticon?seq=656880568&username=@65c3342eac65ec0b38c616952e623450f324fd466d172cfa37ecdb087f1f73b4&skey=@crypt_6353e9d_ed7032495f5dca64485fdcf3d0e02a2f
p191
sVKeyWord
p192
g52
sVProvince
p193
V\u6d59\u6c5f
p194
sVPYInitial
p195
VWINNIEN
p196
sVRemarkName
p197
g52
sVIsOwner
p198
I0
sVSex
p199
I2
sVStarFriend
p200
I0
sVHideInputBarFlag
p201
I0
sVChatRoomId
p202
I0
sVEncryChatRoomId
p203
g52
sVAttrStatus
p204
I102585
sVStatues
p205
I0
stp206
Rp207
I1
bag34
(g38
g39
(dp208
VUserName
p209
V@709f288eacc399a565202351a33153668560f2b084e2251c446bd20aa2c1bf1f
p210
sVCity
p211
V\u6dee\u5b89
p212
sVSnsFlag
p213
I1
sVDisplayName
p214
g52
sVUniFriend
p215
I0
sVMemberCount
p216
I0
sVOwnerUin
p217
I0
sVMemberList
p218
g50
sVAlias
p219
g52
sVPYQuanPin
p220
VMa
p221
sVSignature
p222
g52
sVRemarkPYInitial
p223
VLM
p224
sVContactFlag
p225
I3
sVUin
p226
I0
sVNickName
p227
VMa
p228
sVAppAccountFlag
p229
I0
sVVerifyFlag
p230
I0
sVRemarkPYQuanPin
p231
Vlaoma
p232
sVHeadImgUrl
p233
V/cgi-bin/mmwebwx-bin/webwxgeticon?seq=649411536&username=@709f288eacc399a565202351a33153668560f2b084e2251c446bd20aa2c1bf1f&skey=@crypt_6353e9d_ed7032495f5dca64485fdcf3d0e02a2f
p234
sVKeyWord
p235
g52
sVProvince
p236
V\u6c5f\u82cf
p237
sVPYInitial
p238
VMA
p239
sVRemarkName
p240
V\u8001\u5988
p241
sVIsOwner
p242
I0
sVSex
p243
I1
sVStarFriend
p244
I0
sVHideInputBarFlag
p245
I0
sVChatRoomId
p246
I0
sVEncryChatRoomId
p247
g52
sVAttrStatus
p248
I4133
sVStatues
p249
I0
stp250
Rp251
I1
bag34
(g38
g39
(dp252
VUserName
p253
V@31cebe7bfa39ab3ae7bee29f7f1baed605e44dbdc444c9a92c9e7da9e6decdcc
p254
sVCity
p255
V\u5e38\u5dde
p256
sVSnsFlag
p257
I1
sVDisplayName
p258
g52
sVUniFriend
p259
I0
sVMemberCount
p260
I0
sVOwnerUin
p261
I0
sVMemberList
p262
g50
sVAlias
p263
g52
sVPYQuanPin
p264
Vhefangyinxiaojuxuxing
p265
sVSignature
p266
g52
sVRemarkPYInitial
p267
VCHX
p268
sVContactFlag
p269
I3
sVUin
p270
I0
sVNickName
p271
V\u4f55\u59a8\u541f\u5578\u4e14\u5f90\u884c
p272
sVAppAccountFlag
p273
I0
sVVerifyFlag
p274
I0
sVRemarkPYQuanPin
p275
Vchihuixiang
p276
sVHeadImgUrl
p277
V/cgi-bin/mmwebwx-bin/webwxgeticon?seq=656886300&username=@31cebe7bfa39ab3ae7bee29f7f1baed605e44dbdc444c9a92c9e7da9e6decdcc&skey=@crypt_6353e9d_ed7032495f5dca64485fdcf3d0e02a2f
p278
sVKeyWord
p279
g52
sVProvince
p280
V\u6c5f\u82cf
p281
sVPYInitial
p282
VHFYXJXX
p283
sVRemarkName
p284
V\u5403\u6167\u7fd4
p285
sVIsOwner
p286
I0
sVSex
p287
I1
sVStarFriend
p288
I0
sVHideInputBarFlag
p289
I0
sVChatRoomId
p290
I0
sVEncryChatRoomId
p291
g52
sVAttrStatus
p292
I102501
sVStatues
p293
I0
stp294
Rp295
I1
bag34
(g38
g39
(dp296
VUserName
p297
V@816d1a2d10410cd5c50ae45806658349fd406da43d41f66700150f62f61d1195
p298
sVCity
p299
V\u5357\u5cb8
p300
sVSnsFlag
p301
I1
sVDisplayName
p302
g52
sVUniFriend
p303
I0
sVMemberCount
p304
I0
sVOwnerUin
p305
I0
sVMemberList
p306
g50
sVAlias
p307
g52
sVPYQuanPin
p308
Vchuotong
p309
sVSignature
p310
V\u52aa\u529b\u5de5\u4f5c\uff0c\u505a\u4e00\u4e2a\u81ea\u4fe1\u7684get\u70b9
p311
sVRemarkPYInitial
p312
g52
sVContactFlag
p313
I3
sVUin
p314
I0
sVNickName
p315
V\u5a7c\u5f64
p316
sVAppAccountFlag
p317
I0
sVVerifyFlag
p318
I0
sVRemarkPYQuanPin
p319
g52
sVHeadImgUrl
p320
V/cgi-bin/mmwebwx-bin/webwxgeticon?seq=656874974&username=@816d1a2d10410cd5c50ae45806658349fd406da43d41f66700150f62f61d1195&skey=@crypt_6353e9d_ed7032495f5dca64485fdcf3d0e02a2f
p321
sVKeyWord
p322
g52
sVProvince
p323
V\u91cd\u5e86
p324
sVPYInitial
p325
VCT
p326
sVRemarkName
p327
g52
sVIsOwner
p328
I0
sVSex
p329
I2
sVStarFriend
p330
I0
sVHideInputBarFlag
p331
I0
sVChatRoomId
p332
I0
sVEncryChatRoomId
p333
g52
sVAttrStatus
p334
I102433
sVStatues
p335
I0
stp336
Rp337
I1
bag34
(g38
g39
(dp338
VUserName
p339
V@aca4f507c9ea2f16f586bfd5ccc5cd93645b833be4bc1904da115b0f7a02313b
p340
sVCity
p341
V\u5357\u4eac
p342
sVSnsFlag
p343
I1
sVDisplayName
p344
g52
sVUniFriend
p345
I0
sVMemberCount
p346
I0
sVOwnerUin
p347
I0
sVMemberList
p348
g50
sVAlias
p349
g52
sVPYQuanPin
p350
VAngle
p351
sVSignature
p352
V\u672a\u6765\u4e0d\u8fce\uff0c\u8fc7\u5f80\u4e0d\u604b\uff0c\u6d3b\u597d\u5f53\u4e0b\uff01
p353
sVRemarkPYInitial
p354
g52
sVContactFlag
p355
I3
sVUin
p356
I0
sVNickName
p357
VAngle~
p358
sVAppAccountFlag
p359
I0
sVVerifyFlag
p360
I0
sVRemarkPYQuanPin
p361
g52
sVHeadImgUrl
p362
V/cgi-bin/mmwebwx-bin/webwxgeticon?seq=656886397&username=@aca4f507c9ea2f16f586bfd5ccc5cd93645b833be4bc1904da115b0f7a02313b&skey=@crypt_6353e9d_ed7032495f5dca64485fdcf3d0e02a2f
p363
sVKeyWord
p364
g52
sVProvince
p365
V\u6c5f\u82cf
p366
sVPYInitial
p367
VANGLE
p368
sVRemarkName
p369
g52
sVIsOwner
p370
I0
sVSex
p371
I2
sVStarFriend
p372
I0
sVHideInputBarFlag
p373
I0
sVChatRoomId
p374
I0
sVEncryChatRoomId
p375
g52
sVAttrStatus
p376
I102437
sVStatues
p377
I0
stp378
Rp379
I1
bag34
(g38
g39
(dp380
VUserName
p381
V@873a2184c48244b8f1590c04db7383e0dfb1be556283065fa79e12832b18ba36
p382
sVCity
p383
V\u5e7f\u5dde
p384
sVSnsFlag
p385
I1
sVDisplayName
p386
g52
sVUniFriend
p387
I0
sVMemberCount
p388
I0
sVOwnerUin
p389
I0
sVMemberList
p390
g50
sVAlias
p391
g52
sVPYQuanPin
p392
Vwo
p393
sVSignature
p394
V\u7ed9
p395
sVRemarkPYInitial
p396
g52
sVContactFlag
p397
I3
sVUin
p398
I0
sVNickName
p399
V\u6211
p400
sVAppAccountFlag
p401
I0
sVVerifyFlag
p402
I0
sVRemarkPYQuanPin
p403
g52
sVHeadImgUrl
p404
V/cgi-bin/mmwebwx-bin/webwxgeticon?seq=656874692&username=@873a2184c48244b8f1590c04db7383e0dfb1be556283065fa79e12832b18ba36&skey=@crypt_6353e9d_ed7032495f5dca64485fdcf3d0e02a2f
p405
sVKeyWord
p406
g52
sVProvince
p407
V\u5e7f\u4e1c
p408
sVPYInitial
p409
VW
p410
sVRemarkName
p411
g52
sVIsOwner
p412
I0
sVSex
p413
I2
sVStarFriend
p414
I0
sVHideInputBarFlag
p415
I0
sVChatRoomId
p416
I0
sVEncryChatRoomId
p417
g52
sVAttrStatus
p418
I4133
sVStatues
p419
I0
stp420
Rp421
I1
bag34
(g38
g39
(dp422
VUserName
p423
V@88d26b8100b58b94f1dc0ffaa277ce590e2c11767118e0b4754cf65f6ee0368a
p424
sVCity
p425
V\u5b9d\u5c71
p426
sVSnsFlag
p427
I17
sVDisplayName
p428
g52
sVUniFriend
p429
I0
sVMemberCount
p430
I0
sVOwnerUin
p431
I0
sVMemberList
p432
g50
sVAlias
p433
g52
sVPYQuanPin
p434
Vyongheng
p435
sVSignature
p436
g52
sVRemarkPYInitial
p437
g52
sVContactFlag
p438
I3
sVUin
p439
I0
sVNickName
p440
V\u6c38\u6052
p441
sVAppAccountFlag
p442
I0
sVVerifyFlag
p443
I0
sVRemarkPYQuanPin
p444
g52
sVHeadImgUrl
p445
V/cgi-bin/mmwebwx-bin/webwxgeticon?seq=656890678&username=@88d26b8100b58b94f1dc0ffaa277ce590e2c11767118e0b4754cf65f6ee0368a&skey=@crypt_6353e9d_ed7032495f5dca64485fdcf3d0e02a2f
p446
sVKeyWord
p447
g52
sVProvince
p448
V\u4e0a\u6d77
p449
sVPYInitial
p450
VYH
p451
sVRemarkName
p452
g52
sVIsOwner
p453
I0
sVSex
p454
I1
sVStarFriend
p455
I0
sVHideInputBarFlag
p456
I0
sVChatRoomId
p457
I0
sVEncryChatRoomId
p458
g52
sVAttrStatus
p459
I112741
sVStatues
p460
I0
stp461
Rp462
I1
bag34
(g38
g39
(dp463
VUserName
p464
V@d139db76f75083bce2946f3626776e59
p465
sVCity
p466
V\u5357\u4eac
p467
sVSnsFlag
p468
I49
sVDisplayName
p469
g52
sVUniFriend
p470
I0
sVMemberCount
p471
I0
sVOwnerUin
p472
I0
sVMemberList
p473
g50
sVAlias
p474
g52
sVPYQuanPin
p475
Vhualidebuxuyaoxieshi
p476
sVSignature
p477
V\u770b\u900f\u4eba\u60c5\u5374\u4e0d\u4e16\u6545\uff0c\u892a\u53bb\u7a1a\u5ae9\u4ecd\u65e7\u5355\u7eaf\u3002\u3002\u3002
p478
sVRemarkPYInitial
p479
VZQ
p480
sVContactFlag
p481
I65539
sVUin
p482
I0
sVNickName
p483
V\u534e\u4e3d\u5f97\u4e0d\u9700\u8981\u89e3\u91ca
p484
sVAppAccountFlag
p485
I0
sVVerifyFlag
p486
I0
sVRemarkPYQuanPin
p487
Vzhengquan
p488
sVHeadImgUrl
p489
V/cgi-bin/mmwebwx-bin/webwxgeticon?seq=667330370&username=@d139db76f75083bce2946f3626776e59&skey=@crypt_6353e9d_ed7032495f5dca64485fdcf3d0e02a2f
p490
sVKeyWord
p491
Vlis
p492
sVProvince
p493
V\u6c5f\u82cf
p494
sVPYInitial
p495
VHLDBXYXS
p496
sVRemarkName
p497
V\u8bc1\u5238
p498
sVIsOwner
p499
I0
sVSex
p500
I1
sVStarFriend
p501
I0
sVHideInputBarFlag
p502
I0
sVChatRoomId
p503
I0
sVEncryChatRoomId
p504
g52
sVAttrStatus
p505
I102439
sVStatues
p506
I0
stp507
Rp508
I1
bag34
(g38
g39
(dp509
VUserName
p510
V@44ff5d63050555a9e9c876c81e576207e01fe0892f8dc26d8b5341f1a2c28238
p511
sVCity
p512
V\u626c\u5dde
p513
sVSnsFlag
p514
I1
sVDisplayName
p515
g52
sVUniFriend
p516
I0
sVMemberCount
p517
I0
sVOwnerUin
p518
I0
sVMemberList
p519
g50
sVAlias
p520
g52
sVPYQuanPin
p521
Vwencheng
p522
sVSignature
p523
Vno pain,no gain.
p524
sVRemarkPYInitial
p525
VXWC
p526
sVContactFlag
p527
I3
sVUin
p528
I0
sVNickName
p529
V\u554f\u627f
p530
sVAppAccountFlag
p531
I0
sVVerifyFlag
p532
I0
sVRemarkPYQuanPin
p533
Vxuwencheng
p534
sVHeadImgUrl
p535
V/cgi-bin/mmwebwx-bin/webwxgeticon?seq=651750698&username=@44ff5d63050555a9e9c876c81e576207e01fe0892f8dc26d8b5341f1a2c28238&skey=@crypt_6353e9d_ed7032495f5dca64485fdcf3d0e02a2f
p536
sVKeyWord
p537
g52
sVProvince
p538
V\u6c5f\u82cf
p539
sVPYInitial
p540
VWC
p541
sVRemarkName
p542
V\u5f90\u6587\u6210
p543
sVIsOwner
p544
I0
sVSex
p545
I1
sVStarFriend
p546
I0
sVHideInputBarFlag
p547
I0
sVChatRoomId
p548
I0
sVEncryChatRoomId
p549
g52
sVAttrStatus
p550
I135269
sVStatues
p551
I0
stp552
Rp553
I1
bag34
(g38
g39
(dp554
VUserName
p555
V@b18be065fdc64992d6fd36408be978ed891417941d624d695d932d4c9cd309f9
p556
sVCity
p557
V\u6dee\u5b89
p558
sVSnsFlag
p559
I17
sVDisplayName
p560
g52
sVUniFriend
p561
I0
sVMemberCount
p562
I0
sVOwnerUin
p563
I0
sVMemberList
p564
g50
sVAlias
p565
g52
sVPYQuanPin
p566
Vlaowu
p567
sVSignature
p568
g52
sVRemarkPYInitial
p569
g52
sVContactFlag
p570
I3
sVUin
p571
I0
sVNickName
p572
V\u8001\u4e94
p573
sVAppAccountFlag
p574
I0
sVVerifyFlag
p575
I0
sVRemarkPYQuanPin
p576
g52
sVHeadImgUrl
p577
V/cgi-bin/mmwebwx-bin/webwxgeticon?seq=668497684&username=@b18be065fdc64992d6fd36408be978ed891417941d624d695d932d4c9cd309f9&skey=@crypt_6353e9d_ed7032495f5dca64485fdcf3d0e02a2f
p578
sVKeyWord
p579
g52
sVProvince
p580
V\u6c5f\u82cf
p581
sVPYInitial
p582
VLW
p583
sVRemarkName
p584
g52
sVIsOwner
p585
I0
sVSex
p586
I1
sVStarFriend
p587
I0
sVHideInputBarFlag
p588
I0
sVChatRoomId
p589
I0
sVEncryChatRoomId
p590
g52
sVAttrStatus
p591
I4157
sVStatues
p592
I0
stp593
Rp594
I1
bag34
(g38
g39
(dp595
VUserName
p596
V@c0c4d95c5145a8be0c7c9a00a1e50a5b7c669b5de21952802c348db1c27fb864
p597
sVCity
p598
V\u76d8\u9526
p599
sVSnsFlag
p600
I1
sVDisplayName
p601
g52
sVUniFriend
p602
I0
sVMemberCount
p603
I0
sVOwnerUin
p604
I0
sVMemberList
p605
g50
sVAlias
p606
g52
sVPYQuanPin
p607
Vpanjinanqiernvxing
p608
sVSignature
p609
V\u6211\u6ca1\u6709\u8d2a\u5a6a\uff0c\u4f46\u6211\u7fa1\u6155\u6d77\u67af\u77f3\u70c2
p610
sVRemarkPYInitial
p611
g52
sVContactFlag
p612
I65539
sVUin
p613
I0
sVNickName
p614
V\u76d8\u9526\u5b89\u742a\u513f\u5973\u6027
p615
sVAppAccountFlag
p616
I0
sVVerifyFlag
p617
I0
sVRemarkPYQuanPin
p618
g52
sVHeadImgUrl
p619
V/cgi-bin/mmwebwx-bin/webwxgeticon?seq=656891306&username=@c0c4d95c5145a8be0c7c9a00a1e50a5b7c669b5de21952802c348db1c27fb864&skey=@crypt_6353e9d_ed7032495f5dca64485fdcf3d0e02a2f
p620
sVKeyWord
p621
g52
sVProvince
p622
V\u8fbd\u5b81
p623
sVPYInitial
p624
VPJAQENX
p625
sVRemarkName
p626
g52
sVIsOwner
p627
I0
sVSex
p628
I2
sVStarFriend
p629
I0
sVHideInputBarFlag
p630
I0
sVChatRoomId
p631
I0
sVEncryChatRoomId
p632
g52
sVAttrStatus
p633
I236221
sVStatues
p634
I0
stp635
Rp636
I1
bag34
(g38
g39
(dp637
VUserName
p638
V@8c8e4c8826265514c5c86cfae87bc79e18656172ec5fc127f60f6408bab5a347
p639
sVCity
p640
V\u76ca\u9633
p641
sVSnsFlag
p642
I17
sVDisplayName
p643
g52
sVUniFriend
p644
I0
sVMemberCount
p645
I0
sVOwnerUin
p646
I0
sVMemberList
p647
g50
sVAlias
p648
g52
sVPYQuanPin
p649
Vyandeqiang
p650
sVSignature
p651
g52
sVRemarkPYInitial
p652
VXQ
p653
sVContactFlag
p654
I3
sVUin
p655
I0
sVNickName
p656
V\u4e25\u5fb7\u5f3a
p657
sVAppAccountFlag
p658
I0
sVVerifyFlag
p659
I0
sVRemarkPYQuanPin
p660
Vxiaoqiang
p661
sVHeadImgUrl
p662
V/cgi-bin/mmwebwx-bin/webwxgeticon?seq=668508756&username=@8c8e4c8826265514c5c86cfae87bc79e18656172ec5fc127f60f6408bab5a347&skey=@crypt_6353e9d_ed7032495f5dca64485fdcf3d0e02a2f
p663
sVKeyWord
p664
g52
sVProvince
p665
V\u6e56\u5357
p666
sVPYInitial
p667
VYDQ
p668
sVRemarkName
p669
V\u5c0f\u5f3a
p670
sVIsOwner
p671
I0
sVSex
p672
I1
sVStarFriend
p673
I0
sVHideInputBarFlag
p674
I0
sVChatRoomId
p675
I0
sVEncryChatRoomId
p676
g52
sVAttrStatus
p677
I33656871
sVStatues
p678
I0
stp679
Rp680
I1
bag34
(g38
g39
(dp681
VUserName
p682
V@5be37ca23e112b914b692f04f20b0f0288fc731ed1633e17444380f6473d4b67
p683
sVCity
p684
g52
sVSnsFlag
p685
I0
sVDisplayName
p686
g52
sVUniFriend
p687
I0
sVMemberCount
p688
I0
sVOwnerUin
p689
I0
sVMemberList
p690
g50
sVAlias
p691
g52
sVPYQuanPin
p692
Vhuanxiangrensheng
p693
sVSignature
p694
V\u68a6
p695
sVRemarkPYInitial
p696
g52
sVContactFlag
p697
I3
sVUin
p698
I0
sVNickName
p699
V\u5e7b\u60f3\u4eba\u751f
p700
sVAppAccountFlag
p701
I0
sVVerifyFlag
p702
I0
sVRemarkPYQuanPin
p703
g52
sVHeadImgUrl
p704
V/cgi-bin/mmwebwx-bin/webwxgeticon?seq=656875396&username=@5be37ca23e112b914b692f04f20b0f0288fc731ed1633e17444380f6473d4b67&skey=@crypt_6353e9d_ed7032495f5dca64485fdcf3d0e02a2f
p705
sVKeyWord
p706
g52
sVProvince
p707
V\u6c5f\u82cf
p708
sVPYInitial
p709
VHXRS
p710
sVRemarkName
p711
g52
sVIsOwner
p712
I0
sVSex
p713
I1
sVStarFriend
p714
I0
sVHideInputBarFlag
p715
I0
sVChatRoomId
p716
I0
sVEncryChatRoomId
p717
g52
sVAttrStatus
p718
I4133
sVStatues
p719
I0
stp720
Rp721
I1
bag34
(g38
g39
(dp722
VUserName
p723
V@0328ba978d474484e512cc653c04144f
p724
sVCity
p725
V\u5357\u901a
p726
sVSnsFlag
p727
I49
sVDisplayName
p728
g52
sVUniFriend
p729
I0
sVMemberCount
p730
I0
sVOwnerUin
p731
I0
sVMemberList
p732
g50
sVAlias
p733
g52
sVPYQuanPin
p734
Vlemonlyp
p735
sVSignature
p736
g52
sVRemarkPYInitial
p737
VLYP
p738
sVContactFlag
p739
I3
sVUin
p740
I0
sVNickName
p741
Vlemonlyp
p742
sVAppAccountFlag
p743
I0
sVVerifyFlag
p744
I0
sVRemarkPYQuanPin
p745
Vlinyunpeng
p746
sVHeadImgUrl
p747
V/cgi-bin/mmwebwx-bin/webwxgeticon?seq=668513872&username=@0328ba978d474484e512cc653c04144f&skey=@crypt_6353e9d_ed7032495f5dca64485fdcf3d0e02a2f
p748
sVKeyWord
p749
Vlin
p750
sVProvince
p751
V\u6c5f\u82cf
p752
sVPYInitial
p753
VLEMONLYP
p754
sVRemarkName
p755
V\u6797\u4e91\u9e4f
p756
sVIsOwner
p757
I0
sVSex
p758
I1
sVStarFriend
p759
I0
sVHideInputBarFlag
p760
I0
sVChatRoomId
p761
I0
sVEncryChatRoomId
p762
g52
sVAttrStatus
p763
I104615
sVStatues
p764
I0
stp765
Rp766
I1
bag34
(g38
g39
(dp767
VUserName
p768
V@0d911f8bc39e9d1edfccbba2d3088cd58a7735898b7788e15595781fdd8a2a17
p769
sVCity
p770
V\u5357\u4eac
p771
sVSnsFlag
p772
I17
sVDisplayName
p773
g52
sVUniFriend
p774
I0
sVMemberCount
p775
I0
sVOwnerUin
p776
I0
sVMemberList
p777
g50
sVAlias
p778
g52
sVPYQuanPin
p779
Vjieaobuxun
p780
sVSignature
p781
V\u7231\u4f60\uff0c\u4e0d\u9700\u8981\u7406\u7531\uff01\uff01
p782
sVRemarkPYInitial
p783
g52
sVContactFlag
p784
I3
sVUin
p785
I0
sVNickName
p786
V\u201c\u5091\u201d\u9a9c\u4e0d\u9a6f
p787
sVAppAccountFlag
p788
I0
sVVerifyFlag
p789
I0
sVRemarkPYQuanPin
p790
g52
sVHeadImgUrl
p791
V/cgi-bin/mmwebwx-bin/webwxgeticon?seq=656887939&username=@0d911f8bc39e9d1edfccbba2d3088cd58a7735898b7788e15595781fdd8a2a17&skey=@crypt_6353e9d_ed7032495f5dca64485fdcf3d0e02a2f
p792
sVKeyWord
p793
g52
sVProvince
p794
V\u6c5f\u82cf
p795
sVPYInitial
p796
VJABX
p797
sVRemarkName
p798
g52
sVIsOwner
p799
I0
sVSex
p800
I1
sVStarFriend
p801
I0
sVHideInputBarFlag
p802
I0
sVChatRoomId
p803
I0
sVEncryChatRoomId
p804
g52
sVAttrStatus
p805
I102439
sVStatues
p806
I0
stp807
Rp808
I1
bag34
(g38
g39
(dp809
VUserName
p810
V@e94094f59676e491ff9b982f2b59c8124fd62c00710768b3ae5d571af87cc799
p811
sVCity
p812
g52
sVSnsFlag
p813
I1
sVDisplayName
p814
g52
sVUniFriend
p815
I0
sVMemberCount
p816
I0
sVOwnerUin
p817
I0
sVMemberList
p818
g50
sVAlias
p819
g52
sVPYQuanPin
p820
Vsanshengyouyeming
p821
sVSignature
p822
g52
sVRemarkPYInitial
p823
g52
sVContactFlag
p824
I3
sVUin
p825
I0
sVNickName
p826
V\u4e09\u751f\u6709\u7237\u540d
p827
sVAppAccountFlag
p828
I0
sVVerifyFlag
p829
I0
sVRemarkPYQuanPin
p830
g52
sVHeadImgUrl
p831
V/cgi-bin/mmwebwx-bin/webwxgeticon?seq=656887729&username=@e94094f59676e491ff9b982f2b59c8124fd62c00710768b3ae5d571af87cc799&skey=@crypt_6353e9d_ed7032495f5dca64485fdcf3d0e02a2f
p832
sVKeyWord
p833
g52
sVProvince
p834
g52
sVPYInitial
p835
VSSYYM
p836
sVRemarkName
p837
g52
sVIsOwner
p838
I0
sVSex
p839
I0
sVStarFriend
p840
I0
sVHideInputBarFlag
p841
I0
sVChatRoomId
p842
I0
sVEncryChatRoomId
p843
g52
sVAttrStatus
p844
I136037
sVStatues
p845
I0
stp846
Rp847
I1
bag34
(g38
g39
(dp848
VUserName
p849
V@e65f9ac9d24cb4c3d69b73a44ba941752c0185e1fd9a30b60d9bd0af32d40cda
p850
sVCity
p851
V\u5357\u4eac
p852
sVSnsFlag
p853
I49
sVDisplayName
p854
g52
sVUniFriend
p855
I0
sVMemberCount
p856
I0
sVOwnerUin
p857
I0
sVMemberList
p858
g50
sVAlias
p859
g52
sVPYQuanPin
p860
Vxiaoxiaoyong
p861
sVSignature
p862
V\u4f9d\u9760\u7684\u5f00\u59cb
p863
sVRemarkPYInitial
p864
VZXY
p865
sVContactFlag
p866
I3
sVUin
p867
I0
sVNickName
p868
V\u5c0f\u5c0f\u52c7
p869
sVAppAccountFlag
p870
I0
sVVerifyFlag
p871
I0
sVRemarkPYQuanPin
p872
Vzhangxiaoyong
p873
sVHeadImgUrl
p874
V/cgi-bin/mmwebwx-bin/webwxgeticon?seq=668081091&username=@e65f9ac9d24cb4c3d69b73a44ba941752c0185e1fd9a30b60d9bd0af32d40cda&skey=@crypt_6353e9d_ed7032495f5dca64485fdcf3d0e02a2f
p875
sVKeyWord
p876
g52
sVProvince
p877
V\u6c5f\u82cf
p878
sVPYInitial
p879
VXXY
p880
sVRemarkName
p881
V\u5f20\u5c0f\u52c7
p882
sVIsOwner
p883
I0
sVSex
p884
I1
sVStarFriend
p885
I0
sVHideInputBarFlag
p886
I0
sVChatRoomId
p887
I0
sVEncryChatRoomId
p888
g52
sVAttrStatus
p889
I102589
sVStatues
p890
I0
stp891
Rp892
I1
bag34
(g38
g39
(dp893
VUserName
p894
V@a7c53c207ab5812dfcb5b7ff5ece3b2c
p895
sVCity
p896
V\u5357\u4eac
p897
sVSnsFlag
p898
I17
sVDisplayName
p899
g52
sVUniFriend
p900
I0
sVMemberCount
p901
I0
sVOwnerUin
p902
I0
sVMemberList
p903
g50
sVAlias
p904
g52
sVPYQuanPin
p905
Vwoxingyu
p906
sVSignature
p907
g52
sVRemarkPYInitial
p908
g52
sVContactFlag
p909
I3
sVUin
p910
I0
sVNickName
p911
V\u6211\u59d3\u55bb
p912
sVAppAccountFlag
p913
I0
sVVerifyFlag
p914
I0
sVRemarkPYQuanPin
p915
g52
sVHeadImgUrl
p916
V/cgi-bin/mmwebwx-bin/webwxgeticon?seq=668517206&username=@a7c53c207ab5812dfcb5b7ff5ece3b2c&skey=@crypt_6353e9d_ed7032495f5dca64485fdcf3d0e02a2f
p917
sVKeyWord
p918
Vwox
p919
sVProvince
p920
V\u6c5f\u82cf
p921
sVPYInitial
p922
VWXY
p923
sVRemarkName
p924
g52
sVIsOwner
p925
I0
sVSex
p926
I1
sVStarFriend
p927
I0
sVHideInputBarFlag
p928
I0
sVChatRoomId
p929
I0
sVEncryChatRoomId
p930
g52
sVAttrStatus
p931
I103
sVStatues
p932
I0
stp933
Rp934
I1
bag34
(g38
g39
(dp935
VUserName
p936
V@213f73e928267b2a61ce9599c3714b69c8cd83e7fcfd5ef0d9ffea50a4f6cde3
p937
sVCity
p938
g52
sVSnsFlag
p939
I1
sVDisplayName
p940
g52
sVUniFriend
p941
I0
sVMemberCount
p942
I0
sVOwnerUin
p943
I0
sVMemberList
p944
g50
sVAlias
p945
g52
sVPYQuanPin
p946
VVictoria
p947
sVSignature
p948
g52
sVRemarkPYInitial
p949
VLHDC
p950
sVContactFlag
p951
I3
sVUin
p952
I0
sVNickName
p953
VVictoria
p954
sVAppAccountFlag
p955
I0
sVVerifyFlag
p956
I0
sVRemarkPYQuanPin
p957
Vlianghaidechan
p958
sVHeadImgUrl
p959
V/cgi-bin/mmwebwx-bin/webwxgeticon?seq=668520015&username=@213f73e928267b2a61ce9599c3714b69c8cd83e7fcfd5ef0d9ffea50a4f6cde3&skey=@crypt_6353e9d_ed7032495f5dca64485fdcf3d0e02a2f
p960
sVKeyWord
p961
g52
sVProvince
p962
V\u5409\u6797
p963
sVPYInitial
p964
VVICTORIA
p965
sVRemarkName
p966
V\u6881\u6d77\u5730\u4ea7
p967
sVIsOwner
p968
I0
sVSex
p969
I2
sVStarFriend
p970
I0
sVHideInputBarFlag
p971
I0
sVChatRoomId
p972
I0
sVEncryChatRoomId
p973
g52
sVAttrStatus
p974
I233829
sVStatues
p975
I0
stp976
Rp977
I1
bag34
(g38
g39
(dp978
VUserName
p979
V@1379affa4a4b350bb08e70b9f42d7d536d07f9e34894a612e6debbfc6ef8212f
p980
sVCity
p981
V\u798f\u5dde
p982
sVSnsFlag
p983
I17
sVDisplayName
p984
g52
sVUniFriend
p985
I0
sVMemberCount
p986
I0
sVOwnerUin
p987
I0
sVMemberList
p988
g50
sVAlias
p989
g52
sVPYQuanPin
p990
Vzixi
p991
sVSignature
p992
V\u4e0d\u5fd8\u521d\u5fc3
p993
sVRemarkPYInitial
p994
g52
sVContactFlag
p995
I3
sVUin
p996
I0
sVNickName
p997
V\u6893\u5915
p998
sVAppAccountFlag
p999
I0
sVVerifyFlag
p1000
I0
sVRemarkPYQuanPin
p1001
g52
sVHeadImgUrl
p1002
V/cgi-bin/mmwebwx-bin/webwxgeticon?seq=668519329&username=@1379affa4a4b350bb08e70b9f42d7d536d07f9e34894a612e6debbfc6ef8212f&skey=@crypt_6353e9d_ed7032495f5dca64485fdcf3d0e02a2f
p1003
sVKeyWord
p1004
g52
sVProvince
p1005
V\u798f\u5efa
p1006
sVPYInitial
p1007
VZX
p1008
sVRemarkName
p1009
g52
sVIsOwner
p1010
I0
sVSex
p1011
I2
sVStarFriend
p1012
I0
sVHideInputBarFlag
p1013
I0
sVChatRoomId
p1014
I0
sVEncryChatRoomId
p1015
g52
sVAttrStatus
p1016
I4605
sVStatues
p1017
I0
stp1018
Rp1019
I1
bag34
(g38
g39
(dp1020
VUserName
p1021
V@96aba69428be1b103f0a49aa59b92549f22512b1d6e117b6826a1ef75e377bc5
p1022
sVCity
p1023
V\u5e38\u5dde
p1024
sVSnsFlag
p1025
I17
sVDisplayName
p1026
g52
sVUniFriend
p1027
I0
sVMemberCount
p1028
I0
sVOwnerUin
p1029
I0
sVMemberList
p1030
g50
sVAlias
p1031
g52
sVPYQuanPin
p1032
Vxulingdan
p1033
sVSignature
p1034
g52
sVRemarkPYInitial
p1035
g52
sVContactFlag
p1036
I3
sVUin
p1037
I0
sVNickName
p1038
V\u5f90\u73b2\u4e39
p1039
sVAppAccountFlag
p1040
I0
sVVerifyFlag
p1041
I0
sVRemarkPYQuanPin
p1042
g52
sVHeadImgUrl
p1043
V/cgi-bin/mmwebwx-bin/webwxgeticon?seq=668521853&username=@96aba69428be1b103f0a49aa59b92549f22512b1d6e117b6826a1ef75e377bc5&skey=@crypt_6353e9d_ed7032495f5dca64485fdcf3d0e02a2f
p1044
sVKeyWord
p1045
g52
sVProvince
p1046
V\u6c5f\u82cf
p1047
sVPYInitial
p1048
VXLD
p1049
sVRemarkName
p1050
g52
sVIsOwner
p1051
I0
sVSex
p1052
I2
sVStarFriend
p1053
I0
sVHideInputBarFlag
p1054
I0
sVChatRoomId
p1055
I0
sVEncryChatRoomId
p1056
g52
sVAttrStatus
p1057
I4197
sVStatues
p1058
I0
stp1059
Rp1060
I1
bag34
(g38
g39
(dp1061
VUserName
p1062
V@b7c51bc4951d100ca8b0b48eaf0e2bcf7584211728ffa8b50c7ab0ea32a91b59
p1063
sVCity
p1064
g52
sVSnsFlag
p1065
I17
sVDisplayName
p1066
g52
sVUniFriend
p1067
I0
sVMemberCount
p1068
I0
sVOwnerUin
p1069
I0
sVMemberList
p1070
g50
sVAlias
p1071
g52
sVPYQuanPin
p1072
Vlalalalalala
p1073
sVSignature
p1074
VEscape,\u9003\u3052
p1075
sVRemarkPYInitial
p1076
g52
sVContactFlag
p1077
I3
sVUin
p1078
I0
sVNickName
p1079
V\u5566\u5566\u5566\u5566\u5566\u5566
p1080
sVAppAccountFlag
p1081
I0
sVVerifyFlag
p1082
I0
sVRemarkPYQuanPin
p1083
g52
sVHeadImgUrl
p1084
V/cgi-bin/mmwebwx-bin/webwxgeticon?seq=668513884&username=@b7c51bc4951d100ca8b0b48eaf0e2bcf7584211728ffa8b50c7ab0ea32a91b59&skey=@crypt_6353e9d_ed7032495f5dca64485fdcf3d0e02a2f
p1085
sVKeyWord
p1086
g52
sVProvince
p1087
VKanagawa
p1088
sVPYInitial
p1089
VLLLLLL
p1090
sVRemarkName
p1091
g52
sVIsOwner
p1092
I0
sVSex
p1093
I2
sVStarFriend
p1094
I0
sVHideInputBarFlag
p1095
I0
sVChatRoomId
p1096
I0
sVEncryChatRoomId
p1097
g52
sVAttrStatus
p1098
I102501
sVStatues
p1099
I0
stp1100
Rp1101
I1
bag34
(g38
g39
(dp1102
VUserName
p1103
V@251f467169d538e3f0a111d786a81fd8cbb7531962d1669d08933e42ccc5c429
p1104
sVCity
p1105
g52
sVSnsFlag
p1106
I17
sVDisplayName
p1107
g52
sVUniFriend
p1108
I0
sVMemberCount
p1109
I0
sVOwnerUin
p1110
I0
sVMemberList
p1111
g50
sVAlias
p1112
g52
sVPYQuanPin
p1113
Vbumingzeyi
p1114
sVSignature
p1115
g52
sVRemarkPYInitial
p1116
VCXM
p1117
sVContactFlag
p1118
I3
sVUin
p1119
I0
sVNickName
p1120
V\u4e0d\u9e23\u5219\u5df2
p1121
sVAppAccountFlag
p1122
I0
sVVerifyFlag
p1123
I0
sVRemarkPYQuanPin
p1124
Vchenxiaoming
p1125
sVHeadImgUrl
p1126
V/cgi-bin/mmwebwx-bin/webwxgeticon?seq=668523709&username=@251f467169d538e3f0a111d786a81fd8cbb7531962d1669d08933e42ccc5c429&skey=@crypt_6353e9d_ed7032495f5dca64485fdcf3d0e02a2f
p1127
sVKeyWord
p1128
g52
sVProvince
p1129
V\u6c5f\u82cf
p1130
sVPYInitial
p1131
VBMZY
p1132
sVRemarkName
p1133
V\u9648\u6653\u9e23
p1134
sVIsOwner
p1135
I0
sVSex
p1136
I2
sVStarFriend
p1137
I0
sVHideInputBarFlag
p1138
I0
sVChatRoomId
p1139
I0
sVEncryChatRoomId
p1140
g52
sVAttrStatus
p1141
I110629
sVStatues
p1142
I0
stp1143
Rp1144
I1
bag34
(g38
g39
(dp1145
VUserName
p1146
V@5667a242a7694dcc0cca8dcdb948966f7021643274b5f42d8372c0e7d949702a
p1147
sVCity
p1148
g52
sVSnsFlag
p1149
I1
sVDisplayName
p1150
g52
sVUniFriend
p1151
I0
sVMemberCount
p1152
I0
sVOwnerUin
p1153
I0
sVMemberList
p1154
g50
sVAlias
p1155
g52
sVPYQuanPin
p1156
Vzuimeidehenji
p1157
sVSignature
p1158
g52
sVRemarkPYInitial
p1159
VLYY
p1160
sVContactFlag
p1161
I3
sVUin
p1162
I0
sVNickName
p1163
V\u6700\u7f8e\u7684\u75d5\u8ff9
p1164
sVAppAccountFlag
p1165
I0
sVVerifyFlag
p1166
I0
sVRemarkPYQuanPin
p1167
Vliuyaoying
p1168
sVHeadImgUrl
p1169
V/cgi-bin/mmwebwx-bin/webwxgeticon?seq=668524921&username=@5667a242a7694dcc0cca8dcdb948966f7021643274b5f42d8372c0e7d949702a&skey=@crypt_6353e9d_ed7032495f5dca64485fdcf3d0e02a2f
p1170
sVKeyWord
p1171
g52
sVProvince
p1172
g52
sVPYInitial
p1173
VZMDHJ
p1174
sVRemarkName
p1175
V\u5218\u7476\u83b9
p1176
sVIsOwner
p1177
I0
sVSex
p1178
I0
sVStarFriend
p1179
I0
sVHideInputBarFlag
p1180
I0
sVChatRoomId
p1181
I0
sVEncryChatRoomId
p1182
g52
sVAttrStatus
p1183
I4133
sVStatues
p1184
I0
stp1185
Rp1186
I1
bag34
(g38
g39
(dp1187
VUserName
p1188
V@d56ead91f771d6af9dfe00613b4af17a
p1189
sVCity
p1190
V\u5357\u4eac
p1191
sVSnsFlag
p1192
I49
sVDisplayName
p1193
g52
sVUniFriend
p1194
I0
sVMemberCount
p1195
I0
sVOwnerUin
p1196
I0
sVMemberList
p1197
g50
sVAlias
p1198
g52
sVPYQuanPin
p1199
Vwyz
p1200
sVSignature
p1201
g52
sVRemarkPYInitial
p1202
g52
sVContactFlag
p1203
I3
sVUin
p1204
I0
sVNickName
p1205
Vwyz
p1206
sVAppAccountFlag
p1207
I0
sVVerifyFlag
p1208
I0
sVRemarkPYQuanPin
p1209
g52
sVHeadImgUrl
p1210
V/cgi-bin/mmwebwx-bin/webwxgeticon?seq=668518861&username=@d56ead91f771d6af9dfe00613b4af17a&skey=@crypt_6353e9d_ed7032495f5dca64485fdcf3d0e02a2f
p1211
sVKeyWord
p1212
Vwuy
p1213
sVProvince
p1214
V\u6c5f\u82cf
p1215
sVPYInitial
p1216
VWYZ
p1217
sVRemarkName
p1218
g52
sVIsOwner
p1219
I0
sVSex
p1220
I1
sVStarFriend
p1221
I0
sVHideInputBarFlag
p1222
I0
sVChatRoomId
p1223
I0
sVEncryChatRoomId
p1224
g52
sVAttrStatus
p1225
I235559
sVStatues
p1226
I0
stp1227
Rp1228
I1
bag34
(g38
g39
(dp1229
VUserName
p1230
V@c154e6252aace38d93a80ec5882c823ae18daa274f4aefa786cdb8ce27e39221
p1231
sVCity
p1232
V\u6cf0\u5dde
p1233
sVSnsFlag
p1234
I17
sVDisplayName
p1235
g52
sVUniFriend
p1236
I0
sVMemberCount
p1237
I0
sVOwnerUin
p1238
I0
sVMemberList
p1239
g50
sVAlias
p1240
g52
sVPYQuanPin
p1241
Vlikelike
p1242
sVSignature
p1243
V\u542b\u6cea\u64ad\u79cd\u7684\u4eba\u4e00\u5b9a\u4f1a\u542b\u7b11\u800c\u83b7!
p1244
sVRemarkPYInitial
p1245
g52
sVContactFlag
p1246
I3
sVUin
p1247
I0
sVNickName
p1248
Vlike\u68a8\u53ef
p1249
sVAppAccountFlag
p1250
I0
sVVerifyFlag
p1251
I0
sVRemarkPYQuanPin
p1252
g52
sVHeadImgUrl
p1253
V/cgi-bin/mmwebwx-bin/webwxgeticon?seq=668514243&username=@c154e6252aace38d93a80ec5882c823ae18daa274f4aefa786cdb8ce27e39221&skey=@crypt_6353e9d_ed7032495f5dca64485fdcf3d0e02a2f
p1254
sVKeyWord
p1255
g52
sVProvince
p1256
V\u6c5f\u82cf
p1257
sVPYInitial
p1258
VLIKELK
p1259
sVRemarkName
p1260
g52
sVIsOwner
p1261
I0
sVSex
p1262
I2
sVStarFriend
p1263
I0
sVHideInputBarFlag
p1264
I0
sVChatRoomId
p1265
I0
sVEncryChatRoomId
p1266
g52
sVAttrStatus
p1267
I110695
sVStatues
p1268
I0
stp1269
Rp1270
I1
bag34
(g38
g39
(dp1271
VUserName
p1272
V@cb97a093a956286919031abe2ed9cc440ae41e0f2452c807a2378f638fbb50d9
p1273
sVCity
p1274
V\u5357\u4eac
p1275
sVSnsFlag
p1276
I49
sVDisplayName
p1277
g52
sVUniFriend
p1278
I0
sVMemberCount
p1279
I0
sVOwnerUin
p1280
I0
sVMemberList
p1281
g50
sVAlias
p1282
g52
sVPYQuanPin
p1283
Vdoudou
p1284
sVSignature
p1285
g52
sVRemarkPYInitial
p1286
g52
sVContactFlag
p1287
I3
sVUin
p1288
I0
sVNickName
p1289
V\u8c46\u8c46
p1290
sVAppAccountFlag
p1291
I0
sVVerifyFlag
p1292
I0
sVRemarkPYQuanPin
p1293
g52
sVHeadImgUrl
p1294
V/cgi-bin/mmwebwx-bin/webwxgeticon?seq=668523536&username=@cb97a093a956286919031abe2ed9cc440ae41e0f2452c807a2378f638fbb50d9&skey=@crypt_6353e9d_ed7032495f5dca64485fdcf3d0e02a2f
p1295
sVKeyWord
p1296
Vzhe
p1297
sVProvince
p1298
V\u6c5f\u82cf
p1299
sVPYInitial
p1300
VDD
p1301
sVRemarkName
p1302
g52
sVIsOwner
p1303
I0
sVSex
p1304
I1
sVStarFriend
p1305
I0
sVHideInputBarFlag
p1306
I0
sVChatRoomId
p1307
I0
sVEncryChatRoomId
p1308
g52
sVAttrStatus
p1309
I235007
sVStatues
p1310
I0
stp1311
Rp1312
I1
bag34
(g38
g39
(dp1313
VUserName
p1314
V@ea09620712280d39c1af3d621fc7664b
p1315
sVCity
p1316
V\u9ec4\u5188
p1317
sVSnsFlag
p1318
I17
sVDisplayName
p1319
g52
sVUniFriend
p1320
I0
sVMemberCount
p1321
I0
sVOwnerUin
p1322
I0
sVMemberList
p1323
g50
sVAlias
p1324
g52
sVPYQuanPin
p1325
Vxiongqitao
p1326
sVSignature
p1327
V\u51a5\u51a5\u4e4b\u4e2d\uff0c\u7531\u4e0d\u5f97\u4f60\u3002
p1328
sVRemarkPYInitial
p1329
g52
sVContactFlag
p1330
I3
sVUin
p1331
I0
sVNickName
p1332
V\u718a\u8572\u6d9b
p1333
sVAppAccountFlag
p1334
I0
sVVerifyFlag
p1335
I0
sVRemarkPYQuanPin
p1336
g52
sVHeadImgUrl
p1337
V/cgi-bin/mmwebwx-bin/webwxgeticon?seq=656884667&username=@ea09620712280d39c1af3d621fc7664b&skey=@crypt_6353e9d_ed7032495f5dca64485fdcf3d0e02a2f
p1338
sVKeyWord
p1339
Vxqt
p1340
sVProvince
p1341
V\u6e56\u5317
p1342
sVPYInitial
p1343
VXQT
p1344
sVRemarkName
p1345
g52
sVIsOwner
p1346
I0
sVSex
p1347
I1
sVStarFriend
p1348
I0
sVHideInputBarFlag
p1349
I0
sVChatRoomId
p1350
I0
sVEncryChatRoomId
p1351
g52
sVAttrStatus
p1352
I233575
sVStatues
p1353
I0
stp1354
Rp1355
I1
bag34
(g38
g39
(dp1356
VUserName
p1357
V@c145301d30acb4ce8bb3aaafe582c2eb
p1358
sVCity
p1359
V\u5357\u4eac
p1360
sVSnsFlag
p1361
I49
sVDisplayName
p1362
g52
sVUniFriend
p1363
I0
sVMemberCount
p1364
I0
sVOwnerUin
p1365
I0
sVMemberList
p1366
g50
sVAlias
p1367
g52
sVPYQuanPin
p1368
VAction
p1369
sVSignature
p1370
V\u751f\u547d\u5728\u4e8e\u594b\u6597\uff01
p1371
sVRemarkPYInitial
p1372
VZW
p1373
sVContactFlag
p1374
I3
sVUin
p1375
I0
sVNickName
p1376
VAction
p1377
sVAppAccountFlag
p1378
I0
sVVerifyFlag
p1379
I0
sVRemarkPYQuanPin
p1380
Vzhaowei
p1381
sVHeadImgUrl
p1382
V/cgi-bin/mmwebwx-bin/webwxgeticon?seq=668530464&username=@c145301d30acb4ce8bb3aaafe582c2eb&skey=@crypt_6353e9d_ed7032495f5dca64485fdcf3d0e02a2f
p1383
sVKeyWord
p1384
Vgou
p1385
sVProvince
p1386
V\u6c5f\u82cf
p1387
sVPYInitial
p1388
VACTION
p1389
sVRemarkName
p1390
V\u8d75\u4f1f
p1391
sVIsOwner
p1392
I0
sVSex
p1393
I1
sVStarFriend
p1394
I0
sVHideInputBarFlag
p1395
I0
sVChatRoomId
p1396
I0
sVEncryChatRoomId
p1397
g52
sVAttrStatus
p1398
I100927
sVStatues
p1399
I0
stp1400
Rp1401
I1
bag34
(g38
g39
(dp1402
VUserName
p1403
V@4760405c1d785c630feac4a4d0501ae839cb9ad2762e641d46f03142d42697c1
p1404
sVCity
p1405
g52
sVSnsFlag
p1406
I17
sVDisplayName
p1407
g52
sVUniFriend
p1408
I0
sVMemberCount
p1409
I0
sVOwnerUin
p1410
I0
sVMemberList
p1411
g50
sVAlias
p1412
g52
sVPYQuanPin
p1413
Vjsmspanclassemojiemoji1f41aspanxiaomi
p1414
sVSignature
p1415
V\u989d\u989d\u989d
p1416
sVRemarkPYInitial
p1417
g52
sVContactFlag
p1418
I3
sVUin
p1419
I0
sVNickName
p1420
Vjsm\U0001f41a\u5c0f\u7c73
p1421
sVAppAccountFlag
p1422
I0
sVVerifyFlag
p1423
I0
sVRemarkPYQuanPin
p1424
g52
sVHeadImgUrl
p1425
V/cgi-bin/mmwebwx-bin/webwxgeticon?seq=668531987&username=@4760405c1d785c630feac4a4d0501ae839cb9ad2762e641d46f03142d42697c1&skey=@crypt_6353e9d_ed7032495f5dca64485fdcf3d0e02a2f
p1426
sVKeyWord
p1427
g52
sVProvince
p1428
g52
sVPYInitial
p1429
VJSMSPANCLASSEMOJIEMOJI1F41ASPANXM
p1430
sVRemarkName
p1431
g52
sVIsOwner
p1432
I0
sVSex
p1433
I2
sVStarFriend
p1434
I0
sVHideInputBarFlag
p1435
I0
sVChatRoomId
p1436
I0
sVEncryChatRoomId
p1437
g52
sVAttrStatus
p1438
I102501
sVStatues
p1439
I0
stp1440
Rp1441
I1
bag34
(g38
g39
(dp1442
VUserName
p1443
V@ca64995d3efb23be24028ec338244b0ffdee774efc1e65b45bf33b919536a649
p1444
sVCity
p1445
V\u626c\u5dde
p1446
sVSnsFlag
p1447
I17
sVDisplayName
p1448
g52
sVUniFriend
p1449
I0
sVMemberCount
p1450
I0
sVOwnerUin
p1451
I0
sVMemberList
p1452
g50
sVAlias
p1453
g52
sVPYQuanPin
p1454
Vzhaolou
p1455
sVSignature
p1456
g52
sVRemarkPYInitial
p1457
VZL
p1458
sVContactFlag
p1459
I3
sVUin
p1460
I0
sVNickName
p1461
V\u8d75\u9732
p1462
sVAppAccountFlag
p1463
I0
sVVerifyFlag
p1464
I0
sVRemarkPYQuanPin
p1465
Vzhaolou
p1466
sVHeadImgUrl
p1467
V/cgi-bin/mmwebwx-bin/webwxgeticon?seq=668532384&username=@ca64995d3efb23be24028ec338244b0ffdee774efc1e65b45bf33b919536a649&skey=@crypt_6353e9d_ed7032495f5dca64485fdcf3d0e02a2f
p1468
sVKeyWord
p1469
g52
sVProvince
p1470
V\u6c5f\u82cf
p1471
sVPYInitial
p1472
VZL
p1473
sVRemarkName
p1474
V\u8d75\u9732
p1475
sVIsOwner
p1476
I0
sVSex
p1477
I1
sVStarFriend
p1478
I0
sVHideInputBarFlag
p1479
I0
sVChatRoomId
p1480
I0
sVEncryChatRoomId
p1481
g52
sVAttrStatus
p1482
L2147586085L
sVStatues
p1483
I0
stp1484
Rp1485
I1
bag34
(g38
g39
(dp1486
VUserName
p1487
V@3bb281a08f76ba1c7080756bbf381ef593b2f307d64996158d7c8f40516d38ab
p1488
sVCity
p1489
g52
sVSnsFlag
p1490
I1
sVDisplayName
p1491
g52
sVUniFriend
p1492
I0
sVMemberCount
p1493
I0
sVOwnerUin
p1494
I0
sVMemberList
p1495
g50
sVAlias
p1496
g52
sVPYQuanPin
p1497
Vtingyu
p1498
sVSignature
p1499
g52
sVRemarkPYInitial
p1500
g52
sVContactFlag
p1501
I32771
sVUin
p1502
I0
sVNickName
p1503
V\u542c\u96e8
p1504
sVAppAccountFlag
p1505
I0
sVVerifyFlag
p1506
I0
sVRemarkPYQuanPin
p1507
g52
sVHeadImgUrl
p1508
V/cgi-bin/mmwebwx-bin/webwxgeticon?seq=668534522&username=@3bb281a08f76ba1c7080756bbf381ef593b2f307d64996158d7c8f40516d38ab&skey=@crypt_6353e9d_ed7032495f5dca64485fdcf3d0e02a2f
p1509
sVKeyWord
p1510
g52
sVProvince
p1511
g52
sVPYInitial
p1512
VTY
p1513
sVRemarkName
p1514
g52
sVIsOwner
p1515
I0
sVSex
p1516
I0
sVStarFriend
p1517
I0
sVHideInputBarFlag
p1518
I0
sVChatRoomId
p1519
I0
sVEncryChatRoomId
p1520
g52
sVAttrStatus
p1521
I135205
sVStatues
p1522
I0
stp1523
Rp1524
I1
bag34
(g38
g39
(dp1525
VUserName
p1526
V@eebcae526c4fbb011583a8473b448dd56cdf195a730cf2ceda017dd070f83c8e
p1527
sVCity
p1528
g52
sVSnsFlag
p1529
I1
sVDisplayName
p1530
g52
sVUniFriend
p1531
I0
sVMemberCount
p1532
I0
sVOwnerUin
p1533
I0
sVMemberList
p1534
g50
sVAlias
p1535
g52
sVPYQuanPin
p1536
VDreamspanclassemojiemoji1f33bspan
p1537
sVSignature
p1538
V\u4f60\u82e5\u76db\u5f00 \u8774\u8776\u81ea\u6765
p1539
sVRemarkPYInitial
p1540
g52
sVContactFlag
p1541
I3
sVUin
p1542
I0
sVNickName
p1543
VDream\U0001f33b
p1544
sVAppAccountFlag
p1545
I0
sVVerifyFlag
p1546
I0
sVRemarkPYQuanPin
p1547
g52
sVHeadImgUrl
p1548
V/cgi-bin/mmwebwx-bin/webwxgeticon?seq=668499072&username=@eebcae526c4fbb011583a8473b448dd56cdf195a730cf2ceda017dd070f83c8e&skey=@crypt_6353e9d_ed7032495f5dca64485fdcf3d0e02a2f
p1549
sVKeyWord
p1550
g52
sVProvince
p1551
VDubayy
p1552
sVPYInitial
p1553
VDREAMSPANCLASSEMOJIEMOJI1F33BSPAN
p1554
sVRemarkName
p1555
g52
sVIsOwner
p1556
I0
sVSex
p1557
I2
sVStarFriend
p1558
I0
sVHideInputBarFlag
p1559
I0
sVChatRoomId
p1560
I0
sVEncryChatRoomId
p1561
g52
sVAttrStatus
p1562
I104633
sVStatues
p1563
I0
stp1564
Rp1565
I1
bag34
(g38
g39
(dp1566
VUserName
p1567
V@9b12cfdece970f636ca7074309dd6eda57a2e9f7c30360dcf62dabf564aa50b4
p1568
sVCity
p1569
V\u5357\u4eac
p1570
sVSnsFlag
p1571
I49
sVDisplayName
p1572
g52
sVUniFriend
p1573
I0
sVMemberCount
p1574
I0
sVOwnerUin
p1575
I0
sVMemberList
p1576
g50
sVAlias
p1577
g52
sVPYQuanPin
p1578
VAlexzhonglili???
p1579
sVSignature
p1580
V\u6709\u89d2\u7684\u7ef5\u7f8a
p1581
sVRemarkPYInitial
p1582
VZLL
p1583
sVContactFlag
p1584
I3
sVUin
p1585
I0
sVNickName
p1586
VAlex\u949f\u7b20\u7b20 \uc885\ub9bd\ub9bd
p1587
sVAppAccountFlag
p1588
I0
sVVerifyFlag
p1589
I0
sVRemarkPYQuanPin
p1590
Vzhonglili
p1591
sVHeadImgUrl
p1592
V/cgi-bin/mmwebwx-bin/webwxgeticon?seq=668537438&username=@9b12cfdece970f636ca7074309dd6eda57a2e9f7c30360dcf62dabf564aa50b4&skey=@crypt_6353e9d_ed7032495f5dca64485fdcf3d0e02a2f
p1593
sVKeyWord
p1594
g52
sVProvince
p1595
V\u6c5f\u82cf
p1596
sVPYInitial
p1597
VALEXZLL???
p1598
sVRemarkName
p1599
V\u949f\u7b20\u7b20
p1600
sVIsOwner
p1601
I0
sVSex
p1602
I1
sVStarFriend
p1603
I0
sVHideInputBarFlag
p1604
I0
sVChatRoomId
p1605
I0
sVEncryChatRoomId
p1606
g52
sVAttrStatus
p1607
I203197
sVStatues
p1608
I0
stp1609
Rp1610
I1
bag34
(g38
g39
(dp1611
VUserName
p1612
V@63895255e50f2696f65ac303626019f6b2b475fabed2d5a694813bde8a3ce8a5
p1613
sVCity
p1614
V\u4e30\u53f0
p1615
sVSnsFlag
p1616
I49
sVDisplayName
p1617
g52
sVUniFriend
p1618
I0
sVMemberCount
p1619
I0
sVOwnerUin
p1620
I0
sVMemberList
p1621
g50
sVAlias
p1622
g52
sVPYQuanPin
p1623
Vlianghaidechancaiwuzongbu
p1624
sVSignature
p1625
g52
sVRemarkPYInitial
p1626
VCWJLFYL
p1627
sVContactFlag
p1628
I3
sVUin
p1629
I0
sVNickName
p1630
V\u6881\u6d77\u5730\u4ea7\u8d22\u52a1\u603b\u90e8
p1631
sVAppAccountFlag
p1632
I0
sVVerifyFlag
p1633
I0
sVRemarkPYQuanPin
p1634
Vcaiwujinglifuyanling
p1635
sVHeadImgUrl
p1636
V/cgi-bin/mmwebwx-bin/webwxgeticon?seq=668538045&username=@63895255e50f2696f65ac303626019f6b2b475fabed2d5a694813bde8a3ce8a5&skey=@crypt_6353e9d_ed7032495f5dca64485fdcf3d0e02a2f
p1637
sVKeyWord
p1638
g52
sVProvince
p1639
V\u5317\u4eac
p1640
sVPYInitial
p1641
VLHDCCWZB
p1642
sVRemarkName
p1643
V\u8d22\u52a1\u7ecf\u7406\u4ed8\u8273\u73b2
p1644
sVIsOwner
p1645
I0
sVSex
p1646
I2
sVStarFriend
p1647
I0
sVHideInputBarFlag
p1648
I0
sVChatRoomId
p1649
I0
sVEncryChatRoomId
p1650
g52
sVAttrStatus
p1651
I98813
sVStatues
p1652
I0
stp1653
Rp1654
I1
bag34
(g38
g39
(dp1655
VUserName
p1656
V@2a9b2d7dcc8f56b0019778aa45908f75
p1657
sVCity
p1658
V\u6dee\u5b89
p1659
sVSnsFlag
p1660
I49
sVDisplayName
p1661
g52
sVUniFriend
p1662
I0
sVMemberCount
p1663
I0
sVOwnerUin
p1664
I0
sVMemberList
p1665
g50
sVAlias
p1666
g52
sVPYQuanPin
p1667
VA000zhishangyishupeixun
p1668
sVSignature
p1669
g52
sVRemarkPYInitial
p1670
VMJY
p1671
sVContactFlag
p1672
I65539
sVUin
p1673
I0
sVNickName
p1674
VA000\u5fd7\u5c1a\u827a\u672f\u57f9\u8bad
p1675
sVAppAccountFlag
p1676
I0
sVVerifyFlag
p1677
I0
sVRemarkPYQuanPin
p1678
Vmajiayue
p1679
sVHeadImgUrl
p1680
V/cgi-bin/mmwebwx-bin/webwxgeticon?seq=668537434&username=@2a9b2d7dcc8f56b0019778aa45908f75&skey=@crypt_6353e9d_ed7032495f5dca64485fdcf3d0e02a2f
p1681
sVKeyWord
p1682
Vmaj
p1683
sVProvince
p1684
V\u6c5f\u82cf
p1685
sVPYInitial
p1686
VA000ZSYSPX
p1687
sVRemarkName
p1688
V\u9a6c\u5bb6\u4e50
p1689
sVIsOwner
p1690
I0
sVSex
p1691
I1
sVStarFriend
p1692
I0
sVHideInputBarFlag
p1693
I0
sVChatRoomId
p1694
I0
sVEncryChatRoomId
p1695
g52
sVAttrStatus
p1696
I4298853
sVStatues
p1697
I0
stp1698
Rp1699
I1
bag34
(g38
g39
(dp1700
VUserName
p1701
V@5eb55df34795191342f1d44b8e37520c91659e5a4dfc0bc8eb5804bf2c50b4c9
p1702
sVCity
p1703
g52
sVSnsFlag
p1704
I1
sVDisplayName
p1705
g52
sVUniFriend
p1706
I0
sVMemberCount
p1707
I0
sVOwnerUin
p1708
I0
sVMemberList
p1709
g50
sVAlias
p1710
g52
sVPYQuanPin
p1711
Vlangxingtianxia18952093555
p1712
sVSignature
p1713
g52
sVRemarkPYInitial
p1714
g52
sVContactFlag
p1715
I65539
sVUin
p1716
I0
sVNickName
p1717
V\u72fc\u884c\u5929\u4e0b18952093555
p1718
sVAppAccountFlag
p1719
I0
sVVerifyFlag
p1720
I0
sVRemarkPYQuanPin
p1721
g52
sVHeadImgUrl
p1722
V/cgi-bin/mmwebwx-bin/webwxgeticon?seq=668493572&username=@5eb55df34795191342f1d44b8e37520c91659e5a4dfc0bc8eb5804bf2c50b4c9&skey=@crypt_6353e9d_ed7032495f5dca64485fdcf3d0e02a2f
p1723
sVKeyWord
p1724
g52
sVProvince
p1725
g52
sVPYInitial
p1726
VLXTX18952093555
p1727
sVRemarkName
p1728
g52
sVIsOwner
p1729
I0
sVSex
p1730
I0
sVStarFriend
p1731
I0
sVHideInputBarFlag
p1732
I0
sVChatRoomId
p1733
I0
sVEncryChatRoomId
p1734
g52
sVAttrStatus
p1735
I4133
sVStatues
p1736
I0
stp1737
Rp1738
I1
bag34
(g38
g39
(dp1739
VUserName
p1740
V@f97f6a0c2b3f7d8afb3114e8df2353b66d4ad135f6b2dd52bfea727a49bb3178
p1741
sVCity
p1742
V\u8346\u5dde
p1743
sVSnsFlag
p1744
I1
sVDisplayName
p1745
g52
sVUniFriend
p1746
I0
sVMemberCount
p1747
I0
sVOwnerUin
p1748
I0
sVMemberList
p1749
g50
sVAlias
p1750
g52
sVPYQuanPin
p1751
Vhuolongguo
p1752
sVSignature
p1753
V\u4e00\u5bf8\u5149\u9634\u4e00\u5bf8\u91d1\uff0c\u5bf8\u91d1\u96be\u4e70\u5bf8\u5149\u9634
p1754
sVRemarkPYInitial
p1755
VNH
p1756
sVContactFlag
p1757
I3
sVUin
p1758
I0
sVNickName
p1759
V\u706b\u9f99\u679c
p1760
sVAppAccountFlag
p1761
I0
sVVerifyFlag
p1762
I0
sVRemarkPYQuanPin
p1763
Vnihao
p1764
sVHeadImgUrl
p1765
V/cgi-bin/mmwebwx-bin/webwxgeticon?seq=668526067&username=@f97f6a0c2b3f7d8afb3114e8df2353b66d4ad135f6b2dd52bfea727a49bb3178&skey=@crypt_6353e9d_ed7032495f5dca64485fdcf3d0e02a2f
p1766
sVKeyWord
p1767
g52
sVProvince
p1768
V\u6e56\u5317
p1769
sVPYInitial
p1770
VHLG
p1771
sVRemarkName
p1772
V\u4f60\u597d
p1773
sVIsOwner
p1774
I0
sVSex
p1775
I0
sVStarFriend
p1776
I0
sVHideInputBarFlag
p1777
I0
sVChatRoomId
p1778
I0
sVEncryChatRoomId
p1779
g52
sVAttrStatus
p1780
I4197
sVStatues
p1781
I0
stp1782
Rp1783
I1
bag34
(g38
g39
(dp1784
VUserName
p1785
V@72bdeee067f45d671b2093a8de53e04d00ea922cdb446a58ca85e60a79b8f63e
p1786
sVCity
p1787
g52
sVSnsFlag
p1788
I1
sVDisplayName
p1789
g52
sVUniFriend
p1790
I0
sVMemberCount
p1791
I0
sVOwnerUin
p1792
I0
sVMemberList
p1793
g50
sVAlias
p1794
g52
sVPYQuanPin
p1795
VG
p1796
sVSignature
p1797
g52
sVRemarkPYInitial
p1798
VMK
p1799
sVContactFlag
p1800
I3
sVUin
p1801
I0
sVNickName
p1802
g1796
sVAppAccountFlag
p1803
I0
sVVerifyFlag
p1804
I0
sVRemarkPYQuanPin
p1805
Vmakai
p1806
sVHeadImgUrl
p1807
V/cgi-bin/mmwebwx-bin/webwxgeticon?seq=668539732&username=@72bdeee067f45d671b2093a8de53e04d00ea922cdb446a58ca85e60a79b8f63e&skey=@crypt_6353e9d_ed7032495f5dca64485fdcf3d0e02a2f
p1808
sVKeyWord
p1809
g52
sVProvince
p1810
V\u6c5f\u82cf
p1811
sVPYInitial
p1812
g1796
sVRemarkName
p1813
V\u9a6c\u51ef
p1814
sVIsOwner
p1815
I0
sVSex
p1816
I1
sVStarFriend
p1817
I0
sVHideInputBarFlag
p1818
I0
sVChatRoomId
p1819
I0
sVEncryChatRoomId
p1820
g52
sVAttrStatus
p1821
I102437
sVStatues
p1822
I0
stp1823
Rp1824
I1
bag34
(g38
g39
(dp1825
VUserName
p1826
V@7654cca1226452820dc758eb53d99ef4fc7647900dc9dbf007e72b02654f81d6
p1827
sVCity
p1828
V\u5357\u4eac
p1829
sVSnsFlag
p1830
I17
sVDisplayName
p1831
g52
sVUniFriend
p1832
I0
sVMemberCount
p1833
I0
sVOwnerUin
p1834
I0
sVMemberList
p1835
g50
sVAlias
p1836
g52
sVPYQuanPin
p1837
Vfanan
p1838
sVSignature
p1839
g52
sVRemarkPYInitial
p1840
VFA
p1841
sVContactFlag
p1842
I3
sVUin
p1843
I0
sVNickName
p1844
V\u8303\u5b89
p1845
sVAppAccountFlag
p1846
I0
sVVerifyFlag
p1847
I0
sVRemarkPYQuanPin
p1848
Vfanan
p1849
sVHeadImgUrl
p1850
V/cgi-bin/mmwebwx-bin/webwxgeticon?seq=668539743&username=@7654cca1226452820dc758eb53d99ef4fc7647900dc9dbf007e72b02654f81d6&skey=@crypt_6353e9d_ed7032495f5dca64485fdcf3d0e02a2f
p1851
sVKeyWord
p1852
g52
sVProvince
p1853
V\u6c5f\u82cf
p1854
sVPYInitial
p1855
VFA
p1856
sVRemarkName
p1857
V\u8303\u5b89
p1858
sVIsOwner
p1859
I0
sVSex
p1860
I1
sVStarFriend
p1861
I0
sVHideInputBarFlag
p1862
I0
sVChatRoomId
p1863
I0
sVEncryChatRoomId
p1864
g52
sVAttrStatus
p1865
I36965
sVStatues
p1866
I0
stp1867
Rp1868
I1
bag34
(g38
g39
(dp1869
VUserName
p1870
V@533053232a6a0dfcae07af476611212aa9b619e13cd5d0429a20a04d2f9e56db
p1871
sVCity
p1872
V\u5357\u4eac
p1873
sVSnsFlag
p1874
I1
sVDisplayName
p1875
g52
sVUniFriend
p1876
I0
sVMemberCount
p1877
I0
sVOwnerUin
p1878
I0
sVMemberList
p1879
g50
sVAlias
p1880
g52
sVPYQuanPin
p1881
VCampD
p1882
sVSignature
p1883
V\u5df1\u6240\u4e0d\u6b32\uff0c\u52ff\u65bd\u4e8e\u4eba\uff01
p1884
sVRemarkPYInitial
p1885
VNJDRKHCD
p1886
sVContactFlag
p1887
I3
sVUin
p1888
I0
sVNickName
p1889
VC&amp;D
p1890
sVAppAccountFlag
p1891
I0
sVVerifyFlag
p1892
I0
sVRemarkPYQuanPin
p1893
Vnajingdiruankehuchendong
p1894
sVHeadImgUrl
p1895
V/cgi-bin/mmwebwx-bin/webwxgeticon?seq=668538569&username=@533053232a6a0dfcae07af476611212aa9b619e13cd5d0429a20a04d2f9e56db&skey=@crypt_6353e9d_ed7032495f5dca64485fdcf3d0e02a2f
p1896
sVKeyWord
p1897
g52
sVProvince
p1898
V\u6c5f\u82cf
p1899
sVPYInitial
p1900
VCAMPD
p1901
sVRemarkName
p1902
V\u5357\u4eac\u8fea\u8f6f\u5ba2\u6237 \u9648\u680b
p1903
sVIsOwner
p1904
I0
sVSex
p1905
I1
sVStarFriend
p1906
I0
sVHideInputBarFlag
p1907
I0
sVChatRoomId
p1908
I0
sVEncryChatRoomId
p1909
g52
sVAttrStatus
p1910
I104485
sVStatues
p1911
I0
stp1912
Rp1913
I1
bag34
(g38
g39
(dp1914
VUserName
p1915
V@8438a0656227d8dd4b4e6fda52a80dfd1df76b7ab978d3ea3f560e27f501726f
p1916
sVCity
p1917
V\u6b66\u6c49
p1918
sVSnsFlag
p1919
I1
sVDisplayName
p1920
g52
sVUniFriend
p1921
I0
sVMemberCount
p1922
I0
sVOwnerUin
p1923
I0
sVMemberList
p1924
g50
sVAlias
p1925
g52
sVPYQuanPin
p1926
Vtongtong
p1927
sVSignature
p1928
V\u5f97\u4e4b\u5766\u7136\uff0c\u5931\u4e4b\u6de1\u7136\uff0c\u4e89\u53d6\u5fc5\u7136\uff0c\u987a\u5176\u81ea\u7136\u3002
p1929
sVRemarkPYInitial
p1930
g52
sVContactFlag
p1931
I3
sVUin
p1932
I0
sVNickName
p1933
V\u5f64\u5f64
p1934
sVAppAccountFlag
p1935
I0
sVVerifyFlag
p1936
I0
sVRemarkPYQuanPin
p1937
g52
sVHeadImgUrl
p1938
V/cgi-bin/mmwebwx-bin/webwxgeticon?seq=668538472&username=@8438a0656227d8dd4b4e6fda52a80dfd1df76b7ab978d3ea3f560e27f501726f&skey=@crypt_6353e9d_ed7032495f5dca64485fdcf3d0e02a2f
p1939
sVKeyWord
p1940
g52
sVProvince
p1941
V\u6e56\u5317
p1942
sVPYInitial
p1943
VTT
p1944
sVRemarkName
p1945
g52
sVIsOwner
p1946
I0
sVSex
p1947
I2
sVStarFriend
p1948
I0
sVHideInputBarFlag
p1949
I0
sVChatRoomId
p1950
I0
sVEncryChatRoomId
p1951
g52
sVAttrStatus
p1952
I234277
sVStatues
p1953
I0
stp1954
Rp1955
I1
bag34
(g38
g39
(dp1956
VUserName
p1957
V@5acc04bb7dce6175a3649d65f786382646de47dbed1123f55303f82fcd813499
p1958
sVCity
p1959
V\u9675\u6c34
p1960
sVSnsFlag
p1961
I1
sVDisplayName
p1962
g52
sVUniFriend
p1963
I0
sVMemberCount
p1964
I0
sVOwnerUin
p1965
I0
sVMemberList
p1966
g50
sVAlias
p1967
g52
sVPYQuanPin
p1968
VHemingway
p1969
sVSignature
p1970
V\u554a
p1971
sVRemarkPYInitial
p1972
VWHM
p1973
sVContactFlag
p1974
I3
sVUin
p1975
I0
sVNickName
p1976
VHemingway
p1977
sVAppAccountFlag
p1978
I0
sVVerifyFlag
p1979
I0
sVRemarkPYQuanPin
p1980
Vwuhaiming
p1981
sVHeadImgUrl
p1982
V/cgi-bin/mmwebwx-bin/webwxgeticon?seq=656881823&username=@5acc04bb7dce6175a3649d65f786382646de47dbed1123f55303f82fcd813499&skey=@crypt_6353e9d_ed7032495f5dca64485fdcf3d0e02a2f
p1983
sVKeyWord
p1984
g52
sVProvince
p1985
V\u6d77\u5357
p1986
sVPYInitial
p1987
VHEMINGWAY
p1988
sVRemarkName
p1989
V\u4e4c\u6d77\u9e23
p1990
sVIsOwner
p1991
I0
sVSex
p1992
I1
sVStarFriend
p1993
I0
sVHideInputBarFlag
p1994
I0
sVChatRoomId
p1995
I0
sVEncryChatRoomId
p1996
g52
sVAttrStatus
p1997
I102439
sVStatues
p1998
I0
stp1999
Rp2000
I1
bag34
(g38
g39
(dp2001
VUserName
p2002
V@7f5b91b33eee386b66ccd82b6e0fa458024c4a889a48a97223045204ff7dc9fe
p2003
sVCity
p2004
V\u6dee\u5b89
p2005
sVSnsFlag
p2006
I17
sVDisplayName
p2007
g52
sVUniFriend
p2008
I0
sVMemberCount
p2009
I0
sVOwnerUin
p2010
I0
sVMemberList
p2011
g50
sVAlias
p2012
g52
sVPYQuanPin
p2013
Vmaze
p2014
sVSignature
p2015
V\u4e3b\u4eba\u5f88\u61d2\uff0c\u5f85\u66f4\u65b0\u2026\u2026
p2016
sVRemarkPYInitial
p2017
g52
sVContactFlag
p2018
I3
sVUin
p2019
I0
sVNickName
p2020
V\u9a6c\u6cfd
p2021
sVAppAccountFlag
p2022
I0
sVVerifyFlag
p2023
I0
sVRemarkPYQuanPin
p2024
g52
sVHeadImgUrl
p2025
V/cgi-bin/mmwebwx-bin/webwxgeticon?seq=668531070&username=@7f5b91b33eee386b66ccd82b6e0fa458024c4a889a48a97223045204ff7dc9fe&skey=@crypt_6353e9d_ed7032495f5dca64485fdcf3d0e02a2f
p2026
sVKeyWord
p2027
g52
sVProvince
p2028
V\u6c5f\u82cf
p2029
sVPYInitial
p2030
VMZ
p2031
sVRemarkName
p2032
g52
sVIsOwner
p2033
I0
sVSex
p2034
I1
sVStarFriend
p2035
I0
sVHideInputBarFlag
p2036
I0
sVChatRoomId
p2037
I0
sVEncryChatRoomId
p2038
g52
sVAttrStatus
p2039
I168231
sVStatues
p2040
I0
stp2041
Rp2042
I1
bag34
(g38
g39
(dp2043
VUserName
p2044
V@80c97732d5ba956d2010712ddc6d4bc87b50d86c78573bc85be8d44dcc53c570
p2045
sVCity
p2046
V\u5357\u4eac
p2047
sVSnsFlag
p2048
I1
sVDisplayName
p2049
g52
sVUniFriend
p2050
I0
sVMemberCount
p2051
I0
sVOwnerUin
p2052
I0
sVMemberList
p2053
g50
sVAlias
p2054
g52
sVPYQuanPin
p2055
Vsu
p2056
sVSignature
p2057
V\u60df\u613f\uff1a\u73b0\u4e16\u5b89\u7a33\u3001\u5c81\u6708\u9759\u597d\uff01
p2058
sVRemarkPYInitial
p2059
VSY
p2060
sVContactFlag
p2061
I3
sVUin
p2062
I0
sVNickName
p2063
Vsu
p2064
sVAppAccountFlag
p2065
I0
sVVerifyFlag
p2066
I0
sVRemarkPYQuanPin
p2067
Vsuya
p2068
sVHeadImgUrl
p2069
V/cgi-bin/mmwebwx-bin/webwxgeticon?seq=668537173&username=@80c97732d5ba956d2010712ddc6d4bc87b50d86c78573bc85be8d44dcc53c570&skey=@crypt_6353e9d_ed7032495f5dca64485fdcf3d0e02a2f
p2070
sVKeyWord
p2071
g52
sVProvince
p2072
V\u6c5f\u82cf
p2073
sVPYInitial
p2074
VSU
p2075
sVRemarkName
p2076
V\u82cf\u96c5
p2077
sVIsOwner
p2078
I0
sVSex
p2079
I2
sVStarFriend
p2080
I0
sVHideInputBarFlag
p2081
I0
sVChatRoomId
p2082
I0
sVEncryChatRoomId
p2083
g52
sVAttrStatus
p2084
I6437
sVStatues
p2085
I0
stp2086
Rp2087
I1
bag34
(g38
g39
(dp2088
VUserName
p2089
V@cb86a0ce4114e2645152cc658b55424da304cacd60c170b539c80d0bd220c22f
p2090
sVCity
p2091
g52
sVSnsFlag
p2092
I0
sVDisplayName
p2093
g52
sVUniFriend
p2094
I0
sVMemberCount
p2095
I0
sVOwnerUin
p2096
I0
sVMemberList
p2097
g50
sVAlias
p2098
g52
sVPYQuanPin
p2099
Vxingkongshidaoguolaidehai
p2100
sVSignature
p2101
g52
sVRemarkPYInitial
p2102
VLWT
p2103
sVContactFlag
p2104
I3
sVUin
p2105
I0
sVNickName
p2106
V\u661f\u7a7a\u662f\u5012\u8fc7\u6765\u7684\u6d77
p2107
sVAppAccountFlag
p2108
I0
sVVerifyFlag
p2109
I0
sVRemarkPYQuanPin
p2110
Vliuwenting
p2111
sVHeadImgUrl
p2112
V/cgi-bin/mmwebwx-bin/webwxgeticon?seq=668541128&username=@cb86a0ce4114e2645152cc658b55424da304cacd60c170b539c80d0bd220c22f&skey=@crypt_6353e9d_ed7032495f5dca64485fdcf3d0e02a2f
p2113
sVKeyWord
p2114
g52
sVProvince
p2115
g52
sVPYInitial
p2116
VXKSDGLDH
p2117
sVRemarkName
p2118
V\u5218\u6587\u5a77
p2119
sVIsOwner
p2120
I0
sVSex
p2121
I2
sVStarFriend
p2122
I0
sVHideInputBarFlag
p2123
I0
sVChatRoomId
p2124
I0
sVEncryChatRoomId
p2125
g52
sVAttrStatus
p2126
I135269
sVStatues
p2127
I0
stp2128
Rp2129
I1
bag34
(g38
g39
(dp2130
VUserName
p2131
V@37993f76b89c652f31ff50023e191e62ce0e3808607a06eb4c2caed63b7ddcc8
p2132
sVCity
p2133
V\u6dee\u5b89
p2134
sVSnsFlag
p2135
I17
sVDisplayName
p2136
g52
sVUniFriend
p2137
I0
sVMemberCount
p2138
I0
sVOwnerUin
p2139
I0
sVMemberList
p2140
g50
sVAlias
p2141
g52
sVPYQuanPin
p2142
VAspanclassemojiemoji1f388spanxiangrikuideweixiao
p2143
sVSignature
p2144
g52
sVRemarkPYInitial
p2145
VHXH
p2146
sVContactFlag
p2147
I8195
sVUin
p2148
I0
sVNickName
p2149
VA\U0001f388\u5411\u65e5\u8475\u7684\u5fae\u7b11
p2150
sVAppAccountFlag
p2151
I0
sVVerifyFlag
p2152
I0
sVRemarkPYQuanPin
p2153
Vhanxianghui
p2154
sVHeadImgUrl
p2155
V/cgi-bin/mmwebwx-bin/webwxgeticon?seq=668541273&username=@37993f76b89c652f31ff50023e191e62ce0e3808607a06eb4c2caed63b7ddcc8&skey=@crypt_6353e9d_ed7032495f5dca64485fdcf3d0e02a2f
p2156
sVKeyWord
p2157
g52
sVProvince
p2158
V\u6c5f\u82cf
p2159
sVPYInitial
p2160
VASPANCLASSEMOJIEMOJI1F388SPANXRKDWX
p2161
sVRemarkName
p2162
V\u97e9\u7965\u6167
p2163
sVIsOwner
p2164
I0
sVSex
p2165
I2
sVStarFriend
p2166
I0
sVHideInputBarFlag
p2167
I0
sVChatRoomId
p2168
I0
sVEncryChatRoomId
p2169
g52
sVAttrStatus
p2170
L2147586533L
sVStatues
p2171
I0
stp2172
Rp2173
I1
bag34
(g38
g39
(dp2174
VUserName
p2175
V@f28df47ec156a0f613e7324c598f36b9563e2c361a46ff2ec41579d35a32eded
p2176
sVCity
p2177
V\u767d\u57ce
p2178
sVSnsFlag
p2179
I17
sVDisplayName
p2180
g52
sVUniFriend
p2181
I0
sVMemberCount
p2182
I0
sVOwnerUin
p2183
I0
sVMemberList
p2184
g50
sVAlias
p2185
g52
sVPYQuanPin
p2186
Vanjingxuexi
p2187
sVSignature
p2188
V\u6211\u6240\u575a\u4fe1\u7684\uff0c\u6211\u5c06\u575a\u6301\u5230\u5e95
p2189
sVRemarkPYInitial
p2190
g52
sVContactFlag
p2191
I3
sVUin
p2192
I0
sVNickName
p2193
V\u5b89\u9759\u5b66\u4e60
p2194
sVAppAccountFlag
p2195
I0
sVVerifyFlag
p2196
I0
sVRemarkPYQuanPin
p2197
g52
sVHeadImgUrl
p2198
V/cgi-bin/mmwebwx-bin/webwxgeticon?seq=668529144&username=@f28df47ec156a0f613e7324c598f36b9563e2c361a46ff2ec41579d35a32eded&skey=@crypt_6353e9d_ed7032495f5dca64485fdcf3d0e02a2f
p2199
sVKeyWord
p2200
g52
sVProvince
p2201
V\u5409\u6797
p2202
sVPYInitial
p2203
VAJXX
p2204
sVRemarkName
p2205
g52
sVIsOwner
p2206
I0
sVSex
p2207
I1
sVStarFriend
p2208
I0
sVHideInputBarFlag
p2209
I0
sVChatRoomId
p2210
I0
sVEncryChatRoomId
p2211
g52
sVAttrStatus
p2212
I4135
sVStatues
p2213
I0
stp2214
Rp2215
I1
bag34
(g38
g39
(dp2216
VUserName
p2217
V@a1afb46d7e1291efaaaa9e8b4eb6cb9fc28870d6b90e1df7cbae1df195deaecb
p2218
sVCity
p2219
V\u5357\u4eac
p2220
sVSnsFlag
p2221
I17
sVDisplayName
p2222
g52
sVUniFriend
p2223
I0
sVMemberCount
p2224
I0
sVOwnerUin
p2225
I0
sVMemberList
p2226
g50
sVAlias
p2227
g52
sVPYQuanPin
p2228
Vspanclassemojiemoji1f435span
p2229
sVSignature
p2230
g52
sVRemarkPYInitial
p2231
g52
sVContactFlag
p2232
I3
sVUin
p2233
I0
sVNickName
p2234
V\U0001f435
p2235
sVAppAccountFlag
p2236
I0
sVVerifyFlag
p2237
I0
sVRemarkPYQuanPin
p2238
g52
sVHeadImgUrl
p2239
V/cgi-bin/mmwebwx-bin/webwxgeticon?seq=656890541&username=@a1afb46d7e1291efaaaa9e8b4eb6cb9fc28870d6b90e1df7cbae1df195deaecb&skey=@crypt_6353e9d_ed7032495f5dca64485fdcf3d0e02a2f
p2240
sVKeyWord
p2241
g52
sVProvince
p2242
V\u6c5f\u82cf
p2243
sVPYInitial
p2244
VSPANCLASSEMOJIEMOJI1F435SPAN
p2245
sVRemarkName
p2246
g52
sVIsOwner
p2247
I0
sVSex
p2248
I1
sVStarFriend
p2249
I0
sVHideInputBarFlag
p2250
I0
sVChatRoomId
p2251
I0
sVEncryChatRoomId
p2252
g52
sVAttrStatus
p2253
I4133
sVStatues
p2254
I0
stp2255
Rp2256
I1
bag34
(g38
g39
(dp2257
VUserName
p2258
V@2c66a6220f9d0ec765e358657fba9290
p2259
sVCity
p2260
V\u676d\u5dde
p2261
sVSnsFlag
p2262
I49
sVDisplayName
p2263
g52
sVUniFriend
p2264
I0
sVMemberCount
p2265
I0
sVOwnerUin
p2266
I0
sVMemberList
p2267
g50
sVAlias
p2268
g52
sVPYQuanPin
p2269
Vmumu
p2270
sVSignature
p2271
V\u6d77\u5e95\u6708\u662f\u5929\u4e0a\u6708\uff0c\u773c\u524d\u4eba\u662f\u5fc3\u4e0a\u4eba\u3002
p2272
sVRemarkPYInitial
p2273
VLZ
p2274
sVContactFlag
p2275
I3
sVUin
p2276
I0
sVNickName
p2277
V\u6728\u6728
p2278
sVAppAccountFlag
p2279
I0
sVVerifyFlag
p2280
I0
sVRemarkPYQuanPin
p2281
Vlinzhi
p2282
sVHeadImgUrl
p2283
V/cgi-bin/mmwebwx-bin/webwxgeticon?seq=668507945&username=@2c66a6220f9d0ec765e358657fba9290&skey=@crypt_6353e9d_ed7032495f5dca64485fdcf3d0e02a2f
p2284
sVKeyWord
p2285
Vlin
p2286
sVProvince
p2287
V\u6d59\u6c5f
p2288
sVPYInitial
p2289
VMM
p2290
sVRemarkName
p2291
V\u6797\u77e5
p2292
sVIsOwner
p2293
I0
sVSex
p2294
I1
sVStarFriend
p2295
I0
sVHideInputBarFlag
p2296
I0
sVChatRoomId
p2297
I0
sVEncryChatRoomId
p2298
g52
sVAttrStatus
p2299
I105471
sVStatues
p2300
I0
stp2301
Rp2302
I1
bag34
(g38
g39
(dp2303
VUserName
p2304
V@e5ae116b54c2ff60c760f10ccacd12e140c456f14fc38351a1dd06ac192ecdf1
p2305
sVCity
p2306
V\u626c\u5dde
p2307
sVSnsFlag
p2308
I49
sVDisplayName
p2309
g52
sVUniFriend
p2310
I0
sVMemberCount
p2311
I0
sVOwnerUin
p2312
I0
sVMemberList
p2313
g50
sVAlias
p2314
g52
sVPYQuanPin
p2315
VElaborate
p2316
sVSignature
p2317
V\u56de\u4e0d\u53bb\u7684\u8fc7\u53bb\uff0c\u731c\u4e0d\u900f\u7684\u4eba\u5fc3......
p2318
sVRemarkPYInitial
p2319
g52
sVContactFlag
p2320
I3
sVUin
p2321
I0
sVNickName
p2322
VElaborate
p2323
sVAppAccountFlag
p2324
I0
sVVerifyFlag
p2325
I0
sVRemarkPYQuanPin
p2326
g52
sVHeadImgUrl
p2327
V/cgi-bin/mmwebwx-bin/webwxgeticon?seq=668528973&username=@e5ae116b54c2ff60c760f10ccacd12e140c456f14fc38351a1dd06ac192ecdf1&skey=@crypt_6353e9d_ed7032495f5dca64485fdcf3d0e02a2f
p2328
sVKeyWord
p2329
g52
sVProvince
p2330
V\u6c5f\u82cf
p2331
sVPYInitial
p2332
VELABORATE
p2333
sVRemarkName
p2334
g52
sVIsOwner
p2335
I0
sVSex
p2336
I2
sVStarFriend
p2337
I0
sVHideInputBarFlag
p2338
I0
sVChatRoomId
p2339
I0
sVEncryChatRoomId
p2340
g52
sVAttrStatus
p2341
I33659943
sVStatues
p2342
I0
stp2343
Rp2344
I1
bag34
(g38
g39
(dp2345
VUserName
p2346
V@892d317aa9a616db1661d1b5ac561fdeea8a97df97c6938586b85a773ae1dfd5
p2347
sVCity
p2348
V\u6cf0\u5dde
p2349
sVSnsFlag
p2350
I17
sVDisplayName
p2351
g52
sVUniFriend
p2352
I0
sVMemberCount
p2353
I0
sVOwnerUin
p2354
I0
sVMemberList
p2355
g50
sVAlias
p2356
g52
sVPYQuanPin
p2357
VHY
p2358
sVSignature
p2359
g52
sVRemarkPYInitial
p2360
g52
sVContactFlag
p2361
I3
sVUin
p2362
I0
sVNickName
p2363
VHY\u3002
p2364
sVAppAccountFlag
p2365
I0
sVVerifyFlag
p2366
I0
sVRemarkPYQuanPin
p2367
g52
sVHeadImgUrl
p2368
V/cgi-bin/mmwebwx-bin/webwxgeticon?seq=668542995&username=@892d317aa9a616db1661d1b5ac561fdeea8a97df97c6938586b85a773ae1dfd5&skey=@crypt_6353e9d_ed7032495f5dca64485fdcf3d0e02a2f
p2369
sVKeyWord
p2370
g52
sVProvince
p2371
V\u6c5f\u82cf
p2372
sVPYInitial
p2373
VHY
p2374
sVRemarkName
p2375
g52
sVIsOwner
p2376
I0
sVSex
p2377
I2
sVStarFriend
p2378
I0
sVHideInputBarFlag
p2379
I0
sVChatRoomId
p2380
I0
sVEncryChatRoomId
p2381
g52
sVAttrStatus
p2382
I103013
sVStatues
p2383
I0
stp2384
Rp2385
I1
bag34
(g38
g39
(dp2386
VUserName
p2387
V@add8fdb9f7cd12c2e92dc968b3078fd5
p2388
sVCity
p2389
V\u5927\u540c
p2390
sVSnsFlag
p2391
I17
sVDisplayName
p2392
g52
sVUniFriend
p2393
I0
sVMemberCount
p2394
I0
sVOwnerUin
p2395
I0
sVMemberList
p2396
g50
sVAlias
p2397
g52
sVPYQuanPin
p2398
Vcaowei
p2399
sVSignature
p2400
V\u4f60\u662f\u94e0\u7532\u4e5f\u662f\u8f6f\u808b
p2401
sVRemarkPYInitial
p2402
g52
sVContactFlag
p2403
I3
sVUin
p2404
I0
sVNickName
p2405
V\u66f9\u7eac
p2406
sVAppAccountFlag
p2407
I0
sVVerifyFlag
p2408
I0
sVRemarkPYQuanPin
p2409
g52
sVHeadImgUrl
p2410
V/cgi-bin/mmwebwx-bin/webwxgeticon?seq=668541249&username=@add8fdb9f7cd12c2e92dc968b3078fd5&skey=@crypt_6353e9d_ed7032495f5dca64485fdcf3d0e02a2f
p2411
sVKeyWord
p2412
Vwei
p2413
sVProvince
p2414
V\u5c71\u897f
p2415
sVPYInitial
p2416
VCW
p2417
sVRemarkName
p2418
g52
sVIsOwner
p2419
I0
sVSex
p2420
I1
sVStarFriend
p2421
I0
sVHideInputBarFlag
p2422
I0
sVChatRoomId
p2423
I0
sVEncryChatRoomId
p2424
g52
sVAttrStatus
p2425
I102847
sVStatues
p2426
I0
stp2427
Rp2428
I1
bag34
(g38
g39
(dp2429
VUserName
p2430
V@91645bf621425c475aa4bd0e89c2837a3911c8faf31fcae320512e737a74818a
p2431
sVCity
p2432
V\u5357\u4eac
p2433
sVSnsFlag
p2434
I49
sVDisplayName
p2435
g52
sVUniFriend
p2436
I0
sVMemberCount
p2437
I0
sVOwnerUin
p2438
I0
sVMemberList
p2439
g50
sVAlias
p2440
g52
sVPYQuanPin
p2441
Vjiayibingding
p2442
sVSignature
p2443
V\u4ece\u524d\u73b0\u5728\u8fc7\u53bb\u4e86\u518d\u4e0d\u6765
p2444
sVRemarkPYInitial
p2445
VJYBD
p2446
sVContactFlag
p2447
I3
sVUin
p2448
I0
sVNickName
p2449
V\u7532\u4e59\u4e19\u4e01
p2450
sVAppAccountFlag
p2451
I0
sVVerifyFlag
p2452
I0
sVRemarkPYQuanPin
p2453
Vjiayibingding
p2454
sVHeadImgUrl
p2455
V/cgi-bin/mmwebwx-bin/webwxgeticon?seq=668543036&username=@91645bf621425c475aa4bd0e89c2837a3911c8faf31fcae320512e737a74818a&skey=@crypt_6353e9d_ed7032495f5dca64485fdcf3d0e02a2f
p2456
sVKeyWord
p2457
g52
sVProvince
p2458
V\u6c5f\u82cf
p2459
sVPYInitial
p2460
VJYBD
p2461
sVRemarkName
p2462
V\u7532\u4e59\u4e19\u4e01
p2463
sVIsOwner
p2464
I0
sVSex
p2465
I2
sVStarFriend
p2466
I0
sVHideInputBarFlag
p2467
I0
sVChatRoomId
p2468
I0
sVEncryChatRoomId
p2469
g52
sVAttrStatus
p2470
I104549
sVStatues
p2471
I0
stp2472
Rp2473
I1
bag34
(g38
g39
(dp2474
VUserName
p2475
V@a8f566f714f92a6aa34b16ccbddefadcf7a8b8669deb71f34c3339f75f152922
p2476
sVCity
p2477
g52
sVSnsFlag
p2478
I1
sVDisplayName
p2479
g52
sVUniFriend
p2480
I0
sVMemberCount
p2481
I0
sVOwnerUin
p2482
I0
sVMemberList
p2483
g50
sVAlias
p2484
g52
sVPYQuanPin
p2485
VBetterman
p2486
sVSignature
p2487
V\u7231\u4e00\u4eba\u7ec8\u8001
p2488
sVRemarkPYInitial
p2489
VWL
p2490
sVContactFlag
p2491
I1
sVUin
p2492
I0
sVNickName
p2493
VBetter man
p2494
sVAppAccountFlag
p2495
I0
sVVerifyFlag
p2496
I0
sVRemarkPYQuanPin
p2497
Vwanglei
p2498
sVHeadImgUrl
p2499
V/cgi-bin/mmwebwx-bin/webwxgeticon?seq=668543313&username=@a8f566f714f92a6aa34b16ccbddefadcf7a8b8669deb71f34c3339f75f152922&skey=@crypt_6353e9d_ed7032495f5dca64485fdcf3d0e02a2f
p2500
sVKeyWord
p2501
g52
sVProvince
p2502
VDubayy
p2503
sVPYInitial
p2504
VBETTERMAN
p2505
sVRemarkName
p2506
V\u738b\u78ca
p2507
sVIsOwner
p2508
I0
sVSex
p2509
I1
sVStarFriend
p2510
I0
sVHideInputBarFlag
p2511
I0
sVChatRoomId
p2512
I0
sVEncryChatRoomId
p2513
g52
sVAttrStatus
p2514
I104485
sVStatues
p2515
I0
stp2516
Rp2517
I1
bag34
(g38
g39
(dp2518
VUserName
p2519
V@650962610bee10b4e1b807664d93b98c
p2520
sVCity
p2521
V\u5357\u4eac
p2522
sVSnsFlag
p2523
I49
sVDisplayName
p2524
g52
sVUniFriend
p2525
I0
sVMemberCount
p2526
I0
sVOwnerUin
p2527
I0
sVMemberList
p2528
g50
sVAlias
p2529
g52
sVPYQuanPin
p2530
Vedceezyyy
p2531
sVSignature
p2532
V      \u5b66\u4f1a\u8046\u542c
p2533
sVRemarkPYInitial
p2534
VGL
p2535
sVContactFlag
p2536
I3
sVUin
p2537
I0
sVNickName
p2538
Vedceezyyy.
p2539
sVAppAccountFlag
p2540
I0
sVVerifyFlag
p2541
I0
sVRemarkPYQuanPin
p2542
Vgaoli
p2543
sVHeadImgUrl
p2544
V/cgi-bin/mmwebwx-bin/webwxgeticon?seq=668527170&username=@650962610bee10b4e1b807664d93b98c&skey=@crypt_6353e9d_ed7032495f5dca64485fdcf3d0e02a2f
p2545
sVKeyWord
p2546
Vglx
p2547
sVProvince
p2548
V\u6c5f\u82cf
p2549
sVPYInitial
p2550
VEDCEEZYYY
p2551
sVRemarkName
p2552
V\u9ad8\u529b
p2553
sVIsOwner
p2554
I0
sVSex
p2555
I1
sVStarFriend
p2556
I0
sVHideInputBarFlag
p2557
I0
sVChatRoomId
p2558
I0
sVEncryChatRoomId
p2559
g52
sVAttrStatus
p2560
I100711
sVStatues
p2561
I0
stp2562
Rp2563
I1
bag34
(g38
g39
(dp2564
VUserName
p2565
V@18f5c75478bd70ce6e42087889d0dfcbe1e38a3cf97f4a27f43fb61f12c68a1e
p2566
sVCity
p2567
V\u5357\u4eac
p2568
sVSnsFlag
p2569
I17
sVDisplayName
p2570
g52
sVUniFriend
p2571
I0
sVMemberCount
p2572
I0
sVOwnerUin
p2573
I0
sVMemberList
p2574
g50
sVAlias
p2575
g52
sVPYQuanPin
p2576
Vzhuifengshaonianyourenai
p2577
sVSignature
p2578
g52
sVRemarkPYInitial
p2579
g52
sVContactFlag
p2580
I3
sVUin
p2581
I0
sVNickName
p2582
V\u8ffd\u98ce\u5c11\u5e74\u6709\u4eba\u7231
p2583
sVAppAccountFlag
p2584
I0
sVVerifyFlag
p2585
I0
sVRemarkPYQuanPin
p2586
g52
sVHeadImgUrl
p2587
V/cgi-bin/mmwebwx-bin/webwxgeticon?seq=668524978&username=@18f5c75478bd70ce6e42087889d0dfcbe1e38a3cf97f4a27f43fb61f12c68a1e&skey=@crypt_6353e9d_ed7032495f5dca64485fdcf3d0e02a2f
p2588
sVKeyWord
p2589
g52
sVProvince
p2590
V\u6c5f\u82cf
p2591
sVPYInitial
p2592
VZFSNYRA
p2593
sVRemarkName
p2594
g52
sVIsOwner
p2595
I0
sVSex
p2596
I1
sVStarFriend
p2597
I0
sVHideInputBarFlag
p2598
I0
sVChatRoomId
p2599
I0
sVEncryChatRoomId
p2600
g52
sVAttrStatus
p2601
I33558845
sVStatues
p2602
I0
stp2603
Rp2604
I1
bag34
(g38
g39
(dp2605
VUserName
p2606
V@4afa708031bdb8330480e72a12eb7f1784856aebc80f9b2a82f5561f5ac1de3d
p2607
sVCity
p2608
V\u626c\u5dde
p2609
sVSnsFlag
p2610
I49
sVDisplayName
p2611
g52
sVUniFriend
p2612
I0
sVMemberCount
p2613
I0
sVOwnerUin
p2614
I0
sVMemberList
p2615
g50
sVAlias
p2616
g52
sVPYQuanPin
p2617
Vspanclassemojiemoji1f451spanzhenyuya
p2618
sVSignature
p2619
V\u77e5\u4eba\u4e0d\u8bc4\u4eba
p2620
sVRemarkPYInitial
p2621
g52
sVContactFlag
p2622
I3
sVUin
p2623
I0
sVNickName
p2624
V\U0001f451\u632f\u5b87\u5440\uff01
p2625
sVAppAccountFlag
p2626
I0
sVVerifyFlag
p2627
I0
sVRemarkPYQuanPin
p2628
g52
sVHeadImgUrl
p2629
V/cgi-bin/mmwebwx-bin/webwxgeticon?seq=668543926&username=@4afa708031bdb8330480e72a12eb7f1784856aebc80f9b2a82f5561f5ac1de3d&skey=@crypt_6353e9d_ed7032495f5dca64485fdcf3d0e02a2f
p2630
sVKeyWord
p2631
g52
sVProvince
p2632
V\u6c5f\u82cf
p2633
sVPYInitial
p2634
VSPANCLASSEMOJIEMOJI1F451SPANZYY
p2635
sVRemarkName
p2636
g52
sVIsOwner
p2637
I0
sVSex
p2638
I2
sVStarFriend
p2639
I0
sVHideInputBarFlag
p2640
I0
sVChatRoomId
p2641
I0
sVEncryChatRoomId
p2642
g52
sVAttrStatus
p2643
I98341
sVStatues
p2644
I0
stp2645
Rp2646
I1
bag34
(g38
g39
(dp2647
VUserName
p2648
V@aa9d1bfd77d3af3375d951afa5accf60685479b21a4edebbe032cbd8b51c3bc5
p2649
sVCity
p2650
V\u626c\u5dde
p2651
sVSnsFlag
p2652
I17
sVDisplayName
p2653
g52
sVUniFriend
p2654
I0
sVMemberCount
p2655
I0
sVOwnerUin
p2656
I0
sVMemberList
p2657
g50
sVAlias
p2658
g52
sVPYQuanPin
p2659
Vqiongyuezhilingyin
p2660
sVSignature
p2661
V\u6709\u7f18\u5343\u91cc\u6765\u76f8\u4f1a\uff0c\u65e0\u7f18\u76f8\u89c1\u4e0d\u76f8\u8bc6
p2662
sVRemarkPYInitial
p2663
VJY
p2664
sVContactFlag
p2665
I3
sVUin
p2666
I0
sVNickName
p2667
V\u743c\u6708\u4e4b\u94c3\u97f3
p2668
sVAppAccountFlag
p2669
I0
sVVerifyFlag
p2670
I0
sVRemarkPYQuanPin
p2671
Vjiangyu
p2672
sVHeadImgUrl
p2673
V/cgi-bin/mmwebwx-bin/webwxgeticon?seq=668509252&username=@aa9d1bfd77d3af3375d951afa5accf60685479b21a4edebbe032cbd8b51c3bc5&skey=@crypt_6353e9d_ed7032495f5dca64485fdcf3d0e02a2f
p2674
sVKeyWord
p2675
g52
sVProvince
p2676
V\u6c5f\u82cf
p2677
sVPYInitial
p2678
VQYZLY
p2679
sVRemarkName
p2680
V\u59dc\u5b87
p2681
sVIsOwner
p2682
I0
sVSex
p2683
I1
sVStarFriend
p2684
I0
sVHideInputBarFlag
p2685
I0
sVChatRoomId
p2686
I0
sVEncryChatRoomId
p2687
g52
sVAttrStatus
p2688
I33789925
sVStatues
p2689
I0
stp2690
Rp2691
I1
bag34
(g38
g39
(dp2692
VUserName
p2693
V@6dbb8272712086b3171ccd3ce1207369ab5fd6d44d49168d9804186094fedf8c
p2694
sVCity
p2695
V\u6d66\u4e1c\u65b0\u533a
p2696
sVSnsFlag
p2697
I17
sVDisplayName
p2698
g52
sVUniFriend
p2699
I0
sVMemberCount
p2700
I0
sVOwnerUin
p2701
I0
sVMemberList
p2702
g50
sVAlias
p2703
g52
sVPYQuanPin
p2704
Vmizhixiaomonkey
p2705
sVSignature
p2706
V\u751f\u6d3b\u603b\u662f\u4e00\u5982\u65e2\u5f80\u7684\u5e73\u6de1
p2707
sVRemarkPYInitial
p2708
VLJJ
p2709
sVContactFlag
p2710
I8195
sVUin
p2711
I0
sVNickName
p2712
V\u8ff7\u4e4b\u5c0fmonkey\uff40
p2713
sVAppAccountFlag
p2714
I0
sVVerifyFlag
p2715
I0
sVRemarkPYQuanPin
p2716
Vluojingjing
p2717
sVHeadImgUrl
p2718
V/cgi-bin/mmwebwx-bin/webwxgeticon?seq=668541107&username=@6dbb8272712086b3171ccd3ce1207369ab5fd6d44d49168d9804186094fedf8c&skey=@crypt_6353e9d_ed7032495f5dca64485fdcf3d0e02a2f
p2719
sVKeyWord
p2720
Vrug
p2721
sVProvince
p2722
V\u4e0a\u6d77
p2723
sVPYInitial
p2724
VMZXMONKEY
p2725
sVRemarkName
p2726
V\u7f57\u9759\u9759
p2727
sVIsOwner
p2728
I0
sVSex
p2729
I2
sVStarFriend
p2730
I0
sVHideInputBarFlag
p2731
I0
sVChatRoomId
p2732
I0
sVEncryChatRoomId
p2733
g52
sVAttrStatus
p2734
I104487
sVStatues
p2735
I0
stp2736
Rp2737
I1
bag34
(g38
g39
(dp2738
VUserName
p2739
V@c4c31a58d19adc412973eb288a38d3faf37f0e8bf6587485e18f4d8d87fa1f0a
p2740
sVCity
p2741
g52
sVSnsFlag
p2742
I49
sVDisplayName
p2743
g52
sVUniFriend
p2744
I0
sVMemberCount
p2745
I0
sVOwnerUin
p2746
I0
sVMemberList
p2747
g50
sVAlias
p2748
g52
sVPYQuanPin
p2749
Vspanclassemojiemoji1f389spanyispanclassemojiemoji1f48bspanspanclassemojiemoji1f618span
p2750
sVSignature
p2751
V^-^
p2752
sVRemarkPYInitial
p2753
g52
sVContactFlag
p2754
I3
sVUin
p2755
I0
sVNickName
p2756
V\U0001f389\u794e\U0001f48b\U0001f618
p2757
sVAppAccountFlag
p2758
I0
sVVerifyFlag
p2759
I0
sVRemarkPYQuanPin
p2760
g52
sVHeadImgUrl
p2761
V/cgi-bin/mmwebwx-bin/webwxgeticon?seq=668544667&username=@c4c31a58d19adc412973eb288a38d3faf37f0e8bf6587485e18f4d8d87fa1f0a&skey=@crypt_6353e9d_ed7032495f5dca64485fdcf3d0e02a2f
p2762
sVKeyWord
p2763
g52
sVProvince
p2764
g52
sVPYInitial
p2765
VSPANCLASSEMOJIEMOJI1F389SPANYSPANCLASSEMOJIEMOJI1F48BSPANSPANCLASSEMOJIEMOJI1F618SPAN
p2766
sVRemarkName
p2767
g52
sVIsOwner
p2768
I0
sVSex
p2769
I2
sVStarFriend
p2770
I0
sVHideInputBarFlag
p2771
I0
sVChatRoomId
p2772
I0
sVEncryChatRoomId
p2773
g52
sVAttrStatus
p2774
I104893
sVStatues
p2775
I0
stp2776
Rp2777
I1
bag34
(g38
g39
(dp2778
VUserName
p2779
V@f443a026274f3f1059cc48a10ee5178ef393dd291703dff0c464aa2492c4f7eb
p2780
sVCity
p2781
V\u5b89\u5e86
p2782
sVSnsFlag
p2783
I17
sVDisplayName
p2784
g52
sVUniFriend
p2785
I0
sVMemberCount
p2786
I0
sVOwnerUin
p2787
I0
sVMemberList
p2788
g50
sVAlias
p2789
g52
sVPYQuanPin
p2790
Vzhamaodeciwei
p2791
sVSignature
p2792
V\u6211\u5f53\u65f6\u5c31\u660e\u767d\u4e86\uff0c\u4f60\u8fd8\u662f\u5f53\u521d\u7684\u4f60\uff0c\u6240\u4ee5\u6211\u8bf4\uff0c\u6709\u7f18\u518d\u89c1\u2026\u2026
p2793
sVRemarkPYInitial
p2794
VZMY
p2795
sVContactFlag
p2796
I3
sVUin
p2797
I0
sVNickName
p2798
V\u70b8\u6bdb\u7684\u523a\u732c
p2799
sVAppAccountFlag
p2800
I0
sVVerifyFlag
p2801
I0
sVRemarkPYQuanPin
p2802
Vzhangmeiyuan
p2803
sVHeadImgUrl
p2804
V/cgi-bin/mmwebwx-bin/webwxgeticon?seq=668508056&username=@f443a026274f3f1059cc48a10ee5178ef393dd291703dff0c464aa2492c4f7eb&skey=@crypt_6353e9d_ed7032495f5dca64485fdcf3d0e02a2f
p2805
sVKeyWord
p2806
g52
sVProvince
p2807
V\u5b89\u5fbd
p2808
sVPYInitial
p2809
VZMDCW
p2810
sVRemarkName
p2811
V\u5f20\u6885\u5a9b
p2812
sVIsOwner
p2813
I0
sVSex
p2814
I2
sVStarFriend
p2815
I0
sVHideInputBarFlag
p2816
I0
sVChatRoomId
p2817
I0
sVEncryChatRoomId
p2818
g52
sVAttrStatus
p2819
I105573
sVStatues
p2820
I0
stp2821
Rp2822
I1
bag34
(g38
g39
(dp2823
VUserName
p2824
V@f5e1333a4d472a2392fd9b945c0d451caa76b90ff3c1a25208f4967309abcb44
p2825
sVCity
p2826
g52
sVSnsFlag
p2827
I1
sVDisplayName
p2828
g52
sVUniFriend
p2829
I0
sVMemberCount
p2830
I0
sVOwnerUin
p2831
I0
sVMemberList
p2832
g50
sVAlias
p2833
g52
sVPYQuanPin
p2834
VApache
p2835
sVSignature
p2836
V\u4e00\u6b65\u4e00\u4e2a\u811a\u5370
p2837
sVRemarkPYInitial
p2838
VLC
p2839
sVContactFlag
p2840
I3
sVUin
p2841
I0
sVNickName
p2842
VApache
p2843
sVAppAccountFlag
p2844
I0
sVVerifyFlag
p2845
I0
sVRemarkPYQuanPin
p2846
Vleichao
p2847
sVHeadImgUrl
p2848
V/cgi-bin/mmwebwx-bin/webwxgeticon?seq=668532847&username=@f5e1333a4d472a2392fd9b945c0d451caa76b90ff3c1a25208f4967309abcb44&skey=@crypt_6353e9d_ed7032495f5dca64485fdcf3d0e02a2f
p2849
sVKeyWord
p2850
g52
sVProvince
p2851
g52
sVPYInitial
p2852
VAPACHE
p2853
sVRemarkName
p2854
V\u96f7\u8d85
p2855
sVIsOwner
p2856
I0
sVSex
p2857
I1
sVStarFriend
p2858
I0
sVHideInputBarFlag
p2859
I0
sVChatRoomId
p2860
I0
sVEncryChatRoomId
p2861
g52
sVAttrStatus
p2862
I4133
sVStatues
p2863
I0
stp2864
Rp2865
I1
bag34
(g38
g39
(dp2866
VUserName
p2867
V@60d0e918dc7a940cd4722b3b2dd5f37b52542ddc7e9d0d524f343c6e7a0b058b
p2868
sVCity
p2869
V\u9633\u6cc9
p2870
sVSnsFlag
p2871
I1
sVDisplayName
p2872
g52
sVUniFriend
p2873
I0
sVMemberCount
p2874
I0
sVOwnerUin
p2875
I0
sVMemberList
p2876
g50
sVAlias
p2877
g52
sVPYQuanPin
p2878
Vshanvzhi
p2879
sVSignature
p2880
V\u6709\u4e9b\u4e8b\u4e0d\u8bf4\u662f\u4e2a\u7ed3\uff0c\u8bf4\u4e86\u662f\u6761\u75a4
p2881
sVRemarkPYInitial
p2882
g52
sVContactFlag
p2883
I8195
sVUin
p2884
I0
sVNickName
p2885
V\u50bb\u5973\u7eb8
p2886
sVAppAccountFlag
p2887
I0
sVVerifyFlag
p2888
I0
sVRemarkPYQuanPin
p2889
g52
sVHeadImgUrl
p2890
V/cgi-bin/mmwebwx-bin/webwxgeticon?seq=668543515&username=@60d0e918dc7a940cd4722b3b2dd5f37b52542ddc7e9d0d524f343c6e7a0b058b&skey=@crypt_6353e9d_ed7032495f5dca64485fdcf3d0e02a2f
p2891
sVKeyWord
p2892
g52
sVProvince
p2893
V\u5c71\u897f
p2894
sVPYInitial
p2895
VSNZ
p2896
sVRemarkName
p2897
g52
sVIsOwner
p2898
I0
sVSex
p2899
I2
sVStarFriend
p2900
I0
sVHideInputBarFlag
p2901
I0
sVChatRoomId
p2902
I0
sVEncryChatRoomId
p2903
g52
sVAttrStatus
p2904
I233573
sVStatues
p2905
I0
stp2906
Rp2907
I1
bag34
(g38
g39
(dp2908
VUserName
p2909
V@a141a83ccdba7c8126c7a27e4653daf7a04fd26768d9db998a537aed2f33e70e
p2910
sVCity
p2911
V\u5f90\u5dde
p2912
sVSnsFlag
p2913
I17
sVDisplayName
p2914
g52
sVUniFriend
p2915
I0
sVMemberCount
p2916
I0
sVOwnerUin
p2917
I0
sVMemberList
p2918
g50
sVAlias
p2919
g52
sVPYQuanPin
p2920
Vsakan
p2921
sVSignature
p2922
V\u4eba\u751f\u4e0d\u6b62\u773c\u524d\u7684\u82df\u4e14\uff0c\u8fd8\u6709\u8bd7\u548c\u8fdc\u65b9
p2923
sVRemarkPYInitial
p2924
VZZK
p2925
sVContactFlag
p2926
I3
sVUin
p2927
I0
sVNickName
p2928
Vsakan
p2929
sVAppAccountFlag
p2930
I0
sVVerifyFlag
p2931
I0
sVRemarkPYQuanPin
p2932
Vzhuzekuan
p2933
sVHeadImgUrl
p2934
V/cgi-bin/mmwebwx-bin/webwxgeticon?seq=668545770&username=@a141a83ccdba7c8126c7a27e4653daf7a04fd26768d9db998a537aed2f33e70e&skey=@crypt_6353e9d_ed7032495f5dca64485fdcf3d0e02a2f
p2935
sVKeyWord
p2936
g52
sVProvince
p2937
V\u6c5f\u82cf
p2938
sVPYInitial
p2939
VSAKAN
p2940
sVRemarkName
p2941
V\u8bf8\u6cfd\u5bbd
p2942
sVIsOwner
p2943
I0
sVSex
p2944
I1
sVStarFriend
p2945
I0
sVHideInputBarFlag
p2946
I0
sVChatRoomId
p2947
I0
sVEncryChatRoomId
p2948
g52
sVAttrStatus
p2949
I16781605
sVStatues
p2950
I0
stp2951
Rp2952
I1
bag34
(g38
g39
(dp2953
VUserName
p2954
V@113e15ef72a96aa2870d75bf7f35a9254c6123d45ccd039d85f21d28c2c2eb97
p2955
sVCity
p2956
g52
sVSnsFlag
p2957
I49
sVDisplayName
p2958
g52
sVUniFriend
p2959
I0
sVMemberCount
p2960
I0
sVOwnerUin
p2961
I0
sVMemberList
p2962
g50
sVAlias
p2963
g52
sVPYQuanPin
p2964
Vfanfanzhibei
p2965
sVSignature
p2966
V\u4f1a\u3048\u3066\u3088\u304b\u3063\u305f
p2967
sVRemarkPYInitial
p2968
g52
sVContactFlag
p2969
I3
sVUin
p2970
I0
sVNickName
p2971
V\u6cdb\u6cdb\u4e4b\u8f88
p2972
sVAppAccountFlag
p2973
I0
sVVerifyFlag
p2974
I0
sVRemarkPYQuanPin
p2975
g52
sVHeadImgUrl
p2976
V/cgi-bin/mmwebwx-bin/webwxgeticon?seq=668545801&username=@113e15ef72a96aa2870d75bf7f35a9254c6123d45ccd039d85f21d28c2c2eb97&skey=@crypt_6353e9d_ed7032495f5dca64485fdcf3d0e02a2f
p2977
sVKeyWord
p2978
g52
sVProvince
p2979
VFatima
p2980
sVPYInitial
p2981
VFFZB
p2982
sVRemarkName
p2983
g52
sVIsOwner
p2984
I0
sVSex
p2985
I2
sVStarFriend
p2986
I0
sVHideInputBarFlag
p2987
I0
sVChatRoomId
p2988
I0
sVEncryChatRoomId
p2989
g52
sVAttrStatus
p2990
I201061
sVStatues
p2991
I0
stp2992
Rp2993
I1
bag34
(g38
g39
(dp2994
VUserName
p2995
V@7e5ef64c186845edf3a9e14c8684f19b
p2996
sVCity
p2997
g52
sVSnsFlag
p2998
I49
sVDisplayName
p2999
g52
sVUniFriend
p3000
I0
sVMemberCount
p3001
I0
sVOwnerUin
p3002
I0
sVMemberList
p3003
g50
sVAlias
p3004
g52
sVPYQuanPin
p3005
Vsheng
p3006
sVSignature
p3007
V\u4fdd\u6301\u89c9\u77e5
p3008
sVRemarkPYInitial
p3009
VCS
p3010
sVContactFlag
p3011
I3
sVUin
p3012
I0
sVNickName
p3013
Vsheng
p3014
sVAppAccountFlag
p3015
I0
sVVerifyFlag
p3016
I0
sVRemarkPYQuanPin
p3017
Vchengsheng
p3018
sVHeadImgUrl
p3019
V/cgi-bin/mmwebwx-bin/webwxgeticon?seq=668531668&username=@7e5ef64c186845edf3a9e14c8684f19b&skey=@crypt_6353e9d_ed7032495f5dca64485fdcf3d0e02a2f
p3020
sVKeyWord
p3021
Vcs7
p3022
sVProvince
p3023
V\u5317\u4eac
p3024
sVPYInitial
p3025
VSHENG
p3026
sVRemarkName
p3027
V\u6210\u5723
p3028
sVIsOwner
p3029
I0
sVSex
p3030
I1
sVStarFriend
p3031
I0
sVHideInputBarFlag
p3032
I0
sVChatRoomId
p3033
I0
sVEncryChatRoomId
p3034
g52
sVAttrStatus
p3035
I110695
sVStatues
p3036
I0
stp3037
Rp3038
I1
bag34
(g38
g39
(dp3039
VUserName
p3040
V@539c05256c85276c1d9de1f48a719aeb805292fab6b3574c7915adf63bc5deb5
p3041
sVCity
p3042
V\u9a6c\u978d\u5c71
p3043
sVSnsFlag
p3044
I17
sVDisplayName
p3045
g52
sVUniFriend
p3046
I0
sVMemberCount
p3047
I0
sVOwnerUin
p3048
I0
sVMemberList
p3049
g50
sVAlias
p3050
g52
sVPYQuanPin
p3051
Vcaicai
p3052
sVSignature
p3053
g52
sVRemarkPYInitial
p3054
g52
sVContactFlag
p3055
I3
sVUin
p3056
I0
sVNickName
p3057
V\u83dc\u83dc
p3058
sVAppAccountFlag
p3059
I0
sVVerifyFlag
p3060
I0
sVRemarkPYQuanPin
p3061
g52
sVHeadImgUrl
p3062
V/cgi-bin/mmwebwx-bin/webwxgeticon?seq=668540783&username=@539c05256c85276c1d9de1f48a719aeb805292fab6b3574c7915adf63bc5deb5&skey=@crypt_6353e9d_ed7032495f5dca64485fdcf3d0e02a2f
p3063
sVKeyWord
p3064
g52
sVProvince
p3065
V\u5b89\u5fbd
p3066
sVPYInitial
p3067
VCC
p3068
sVRemarkName
p3069
g52
sVIsOwner
p3070
I0
sVSex
p3071
I2
sVStarFriend
p3072
I0
sVHideInputBarFlag
p3073
I0
sVChatRoomId
p3074
I0
sVEncryChatRoomId
p3075
g52
sVAttrStatus
p3076
I232933
sVStatues
p3077
I0
stp3078
Rp3079
I1
batp3080
Rp3081
I1
bsS'chatroomList'
p3082
g34
(g35
g36
(lp3083
g34
(citchat.storage.templates
Chatroom
p3084
g39
(dp3085
VUserName
p3086
V@@2f195b4426051d0fb94be3b678dad9cfc001ee00a22f419e6f40aa213c3d3d6d
p3087
sVCity
p3088
g52
sVDisplayName
p3089
g52
sVUniFriend
p3090
I0
sS'Self'
p3091
g34
(g38
g39
(dp3092
g41
g31
sg42
g43
sg44
g43
sg45
I0
sg46
I0
sg47
g34
(g35
g36
(lp3093
tp3094
Rp3095
I1
bsg51
g52
sg53
g52
sg54
I1610532702
sg55
I0
sg56
I0
sg57
g43
sg58
g43
sg59
g52
sg60
g52
sg61
I0
sg62
I0
sg63
I1
sg64
g43
sg65
I0
sg66
I17
sg67
I0
sg68
I0
sg69
g43
sg70
g71
sg72
I0
sg73
g74
sg75
g52
sg76
g77
sg78
I1
sg79
I0
sg80
I0
stp3096
Rp3097
I1
bsVMemberList
p3098
g34
(g35
g36
(lp3099
tp3100
Rp3101
I1
bsVPYQuanPin
p3102
g52
sVRemarkPYInitial
p3103
g52
sVSex
p3104
I0
sVAppAccountFlag
p3105
I0
sVVerifyFlag
p3106
I0
sVProvince
p3107
g52
sVKeyWord
p3108
g52
sVRemarkName
p3109
g52
sVPYInitial
p3110
g52
sVIsOwner
p3111
I0
sVChatRoomId
p3112
I0
sVHideInputBarFlag
p3113
I0
sVEncryChatRoomId
p3114
g52
sVAttrStatus
p3115
I0
sVSnsFlag
p3116
I0
sVMemberCount
p3117
I11
sVOwnerUin
p3118
I0
sVAlias
p3119
g52
sS'IsAdmin'
p3120
NsVSignature
p3121
g52
sVContactFlag
p3122
I0
sVNickName
p3123
VSingle Dogs
p3124
sVRemarkPYQuanPin
p3125
g52
sVHeadImgUrl
p3126
V/cgi-bin/mmwebwx-bin/webwxgetheadimg?seq=0&username=@@2f195b4426051d0fb94be3b678dad9cfc001ee00a22f419e6f40aa213c3d3d6d&skey=@crypt_6353e9d_ed7032495f5dca64485fdcf3d0e02a2f
p3127
sVUin
p3128
I0
sVStarFriend
p3129
I0
sVStatues
p3130
I1
stp3131
Rp3132
I1
bag34
(g3084
g39
(dp3133
VUserName
p3134
V@@7f928e5e75032bc2d6a4fc76d1559bf1371a592695d46f23724fb4ad57280317
p3135
sVCity
p3136
g52
sVDisplayName
p3137
g52
sVUniFriend
p3138
I0
sg3091
g34
(g38
g39
(dp3139
g41
g31
sg42
g43
sg44
g43
sg45
I0
sg46
I0
sg47
g34
(g35
g36
(lp3140
tp3141
Rp3142
I1
bsg51
g52
sg53
g52
sg54
I1610532702
sg55
I0
sg56
I0
sg57
g43
sg58
g43
sg59
g52
sg60
g52
sg61
I0
sg62
I0
sg63
I1
sg64
g43
sg65
I0
sg66
I17
sg67
I0
sg68
I0
sg69
g43
sg70
g71
sg72
I0
sg73
g74
sg75
g52
sg76
g77
sg78
I1
sg79
I0
sg80
I0
stp3143
Rp3144
I1
bsVMemberList
p3145
g34
(g35
g36
(lp3146
tp3147
Rp3148
I1
bsVPYQuanPin
p3149
g52
sVRemarkPYInitial
p3150
g52
sVSex
p3151
I0
sVAppAccountFlag
p3152
I0
sVVerifyFlag
p3153
I0
sVProvince
p3154
g52
sVKeyWord
p3155
g52
sVRemarkName
p3156
g52
sVPYInitial
p3157
g52
sVIsOwner
p3158
I1
sVChatRoomId
p3159
I0
sVHideInputBarFlag
p3160
I0
sVEncryChatRoomId
p3161
g52
sVAttrStatus
p3162
I0
sVSnsFlag
p3163
I0
sVMemberCount
p3164
I3
sVOwnerUin
p3165
I0
sVAlias
p3166
g52
sg3120
NsVSignature
p3167
g52
sVContactFlag
p3168
I0
sVNickName
p3169
VGhana
p3170
sVRemarkPYQuanPin
p3171
g52
sVHeadImgUrl
p3172
V/cgi-bin/mmwebwx-bin/webwxgetheadimg?seq=0&username=@@7f928e5e75032bc2d6a4fc76d1559bf1371a592695d46f23724fb4ad57280317&skey=@crypt_6353e9d_ed7032495f5dca64485fdcf3d0e02a2f
p3173
sVUin
p3174
I0
sVStarFriend
p3175
I0
sVStatues
p3176
I1
stp3177
Rp3178
I1
bag34
(g3084
g39
(dp3179
VUserName
p3180
V@@7d8c3a5d97735747d4bc9972c0b56c61801df7a728558d54e38f79749590decb
p3181
sVCity
p3182
g52
sVDisplayName
p3183
g52
sVUniFriend
p3184
I0
sg3091
g34
(g38
g39
(dp3185
g41
g31
sg42
g43
sg44
g43
sg45
I0
sg46
I0
sg47
g34
(g35
g36
(lp3186
tp3187
Rp3188
I1
bsg51
g52
sg53
g52
sg54
I1610532702
sg55
I0
sg56
I0
sg57
g43
sg58
g43
sg59
g52
sg60
g52
sg61
I0
sg62
I0
sg63
I1
sg64
g43
sg65
I0
sg66
I17
sg67
I0
sg68
I0
sg69
g43
sg70
g71
sg72
I0
sg73
g74
sg75
g52
sg76
g77
sg78
I1
sg79
I0
sg80
I0
stp3189
Rp3190
I1
bsVMemberList
p3191
g34
(g35
g36
(lp3192
tp3193
Rp3194
I1
bsVPYQuanPin
p3195
g52
sVRemarkPYInitial
p3196
g52
sVSex
p3197
I0
sVAppAccountFlag
p3198
I0
sVVerifyFlag
p3199
I0
sVProvince
p3200
g52
sVKeyWord
p3201
g52
sVRemarkName
p3202
g52
sVPYInitial
p3203
g52
sVIsOwner
p3204
I0
sVChatRoomId
p3205
I0
sVHideInputBarFlag
p3206
I0
sVEncryChatRoomId
p3207
g52
sVAttrStatus
p3208
I0
sVSnsFlag
p3209
I0
sVMemberCount
p3210
I10
sVOwnerUin
p3211
I0
sVAlias
p3212
g52
sg3120
NsVSignature
p3213
g52
sVContactFlag
p3214
I0
sVNickName
p3215
V\u519c\u836f\u8054\u76df
p3216
sVRemarkPYQuanPin
p3217
g52
sVHeadImgUrl
p3218
V/cgi-bin/mmwebwx-bin/webwxgetheadimg?seq=0&username=@@7d8c3a5d97735747d4bc9972c0b56c61801df7a728558d54e38f79749590decb&skey=@crypt_6353e9d_ed7032495f5dca64485fdcf3d0e02a2f
p3219
sVUin
p3220
I0
sVStarFriend
p3221
I0
sVStatues
p3222
I1
stp3223
Rp3224
I1
bag34
(g3084
g39
(dp3225
VUserName
p3226
V@@5c6fdfd23b5bd73dc2831a1f1efca15c537b5194498f90b5274b4ad57bf0c14b
p3227
sVCity
p3228
g52
sVDisplayName
p3229
g52
sVUniFriend
p3230
I0
sg3091
g34
(g38
g39
(dp3231
g41
g31
sg42
g43
sg44
g43
sg45
I0
sg46
I0
sg47
g34
(g35
g36
(lp3232
tp3233
Rp3234
I1
bsg51
g52
sg53
g52
sg54
I1610532702
sg55
I0
sg56
I0
sg57
g43
sg58
g43
sg59
g52
sg60
g52
sg61
I0
sg62
I0
sg63
I1
sg64
g43
sg65
I0
sg66
I17
sg67
I0
sg68
I0
sg69
g43
sg70
g71
sg72
I0
sg73
g74
sg75
g52
sg76
g77
sg78
I1
sg79
I0
sg80
I0
stp3235
Rp3236
I1
bsVMemberList
p3237
g34
(g35
g36
(lp3238
tp3239
Rp3240
I1
bsVPYQuanPin
p3241
g52
sVRemarkPYInitial
p3242
g52
sVSex
p3243
I0
sVAppAccountFlag
p3244
I0
sVVerifyFlag
p3245
I0
sVProvince
p3246
g52
sVKeyWord
p3247
g52
sVRemarkName
p3248
g52
sVPYInitial
p3249
g52
sVIsOwner
p3250
I0
sVChatRoomId
p3251
I0
sVHideInputBarFlag
p3252
I0
sVEncryChatRoomId
p3253
g52
sVAttrStatus
p3254
I0
sVSnsFlag
p3255
I0
sVMemberCount
p3256
I32
sVOwnerUin
p3257
I0
sVAlias
p3258
g52
sg3120
NsVSignature
p3259
g52
sVContactFlag
p3260
I2
sVNickName
p3261
V\u8fea\u8f6f\u8f6f\u4ef6
p3262
sVRemarkPYQuanPin
p3263
g52
sVHeadImgUrl
p3264
V/cgi-bin/mmwebwx-bin/webwxgetheadimg?seq=668539858&username=@@5c6fdfd23b5bd73dc2831a1f1efca15c537b5194498f90b5274b4ad57bf0c14b&skey=@crypt_6353e9d_ed7032495f5dca64485fdcf3d0e02a2f
p3265
sVUin
p3266
I0
sVStarFriend
p3267
I0
sVStatues
p3268
I1
stp3269
Rp3270
I1
batp3271
Rp3272
I1
bsS'nickName'
p3273
g74
sS'mpList'
p3274
g34
(g35
g36
(lp3275
g34
(citchat.storage.templates
MassivePlatform
p3276
g39
(dp3277
VUserName
p3278
V@457a0242cb5ec876d370d884adc519b6
p3279
sVCity
p3280
V\u671d\u9633
p3281
sVSnsFlag
p3282
I0
sVDisplayName
p3283
g52
sVUniFriend
p3284
I0
sVMemberCount
p3285
I0
sVOwnerUin
p3286
I0
sVMemberList
p3287
g50
sVAlias
p3288
g52
sVPYQuanPin
p3289
Vjingdongshouhou
p3290
sVSignature
p3291
V\u8fd9\u91cc\u53d1\u5e03\u4eac\u4e1c\u5546\u57ce\u5b98\u65b9\u552e\u540e\u4fe1\u606f\uff0c\u63d0\u4f9b\u60a8\u771f\u5b9e\u6709\u6548\u7684\u552e\u540e\u653f\u7b56\uff0c\u4f20\u9012\u4eac\u4e1c\u552e\u540e\u5ba2\u6237\u4e3a\u5148\u7684\u670d\u52a1\u7406\u5ff5\u3002\u4eac\u4e1c\u552e\u540e\uff1a\u7b80\u5355\u4e13\u4e1a\u5feb\uff01
p3292
sVRemarkPYInitial
p3293
g52
sVContactFlag
p3294
I3
sVUin
p3295
I0
sVNickName
p3296
V\u4eac\u4e1c\u552e\u540e
p3297
sVAppAccountFlag
p3298
I0
sVVerifyFlag
p3299
I24
sVRemarkPYQuanPin
p3300
g52
sVHeadImgUrl
p3301
V/cgi-bin/mmwebwx-bin/webwxgeticon?seq=656876251&username=@457a0242cb5ec876d370d884adc519b6&skey=@crypt_6353e9d_ed7032495f5dca64485fdcf3d0e02a2f
p3302
sVKeyWord
p3303
Vgh_
p3304
sVProvince
p3305
V\u5317\u4eac
p3306
sVPYInitial
p3307
VJDSH
p3308
sVRemarkName
p3309
g52
sVIsOwner
p3310
I0
sVSex
p3311
I0
sVStarFriend
p3312
I0
sVHideInputBarFlag
p3313
I0
sVChatRoomId
p3314
I0
sVEncryChatRoomId
p3315
g52
sVAttrStatus
p3316
I0
sVStatues
p3317
I0
stp3318
Rp3319
I1
bag34
(g3276
g39
(dp3320
VUserName
p3321
V@01fa8d32fb3cda0e540c3e58a4bbd1d7
p3322
sVCity
p3323
V\u6d77\u6dc0
p3324
sVSnsFlag
p3325
I0
sVDisplayName
p3326
g52
sVUniFriend
p3327
I0
sVMemberCount
p3328
I0
sVOwnerUin
p3329
I0
sVMemberList
p3330
g50
sVAlias
p3331
g52
sVPYQuanPin
p3332
Vgelingshentong
p3333
sVSignature
p3334
V\u683c\u7075\u6df1\u77b3\u662f\u4e00\u5bb6\u5c06\u8ba1\u7b97\u673a\u89c6\u89c9\u548c\u6df1\u5ea6\u5b66\u4e60\u6280\u672f\u5e94\u7528\u4e8e\u5546\u4e1a\u9886\u57df\u7684\u79d1\u6280\u516c\u53f8\uff0c\u81ea\u4e3b\u7814\u53d1\u7684\u6df1\u77b3\u6280\u672f\u5728\u4eba\u548c\u8f66\u7684\u68c0\u6d4b\u3001\u8ddf\u8e2a\u4e0e\u8bc6\u522b\u65b9\u9762\u5c45\u4e8e\u4e16\u754c\u9886\u5148\u6c34\u5e73\u3002  \u5b98\u7f51\uff1awww.deepglint.com
p3335
sVRemarkPYInitial
p3336
g52
sVContactFlag
p3337
I3
sVUin
p3338
I0
sVNickName
p3339
V\u683c\u7075\u6df1\u77b3
p3340
sVAppAccountFlag
p3341
I0
sVVerifyFlag
p3342
I8
sVRemarkPYQuanPin
p3343
g52
sVHeadImgUrl
p3344
V/cgi-bin/mmwebwx-bin/webwxgeticon?seq=654291105&username=@01fa8d32fb3cda0e540c3e58a4bbd1d7&skey=@crypt_6353e9d_ed7032495f5dca64485fdcf3d0e02a2f
p3345
sVKeyWord
p3346
Vgh_
p3347
sVProvince
p3348
V\u5317\u4eac
p3349
sVPYInitial
p3350
VGLST
p3351
sVRemarkName
p3352
g52
sVIsOwner
p3353
I0
sVSex
p3354
I0
sVStarFriend
p3355
I0
sVHideInputBarFlag
p3356
I0
sVChatRoomId
p3357
I0
sVEncryChatRoomId
p3358
g52
sVAttrStatus
p3359
I0
sVStatues
p3360
I0
stp3361
Rp3362
I1
bag34
(g3276
g39
(dp3363
VUserName
p3364
V@04ee21467f0bb42f4adad185e5ddd3e7
p3365
sVCity
p3366
g52
sVSnsFlag
p3367
I0
sVDisplayName
p3368
g52
sVUniFriend
p3369
I0
sVMemberCount
p3370
I0
sVOwnerUin
p3371
I0
sVMemberList
p3372
g50
sVAlias
p3373
g52
sVPYQuanPin
p3374
Vtengxunchengshi
p3375
sVSignature
p3376
V\u817e\u8baf\u57ce\u5e02\u4e0e\u60a8\u4e00\u5171\u5173\u6ce8\u57ce\u5e02\u53d1\u5c55\uff0c\u89c1\u8bc1\u57ce\u5e02\u53d8\u8fc1\uff0c\u53d1\u73b0\u57ce\u5e02\u529b\u91cf\u3002
p3377
sVRemarkPYInitial
p3378
g52
sVContactFlag
p3379
I3
sVUin
p3380
I0
sVNickName
p3381
V\u817e\u8baf\u57ce\u5e02
p3382
sVAppAccountFlag
p3383
I0
sVVerifyFlag
p3384
I24
sVRemarkPYQuanPin
p3385
g52
sVHeadImgUrl
p3386
V/cgi-bin/mmwebwx-bin/webwxgeticon?seq=643840641&username=@04ee21467f0bb42f4adad185e5ddd3e7&skey=@crypt_6353e9d_ed7032495f5dca64485fdcf3d0e02a2f
p3387
sVKeyWord
p3388
Vgh_
p3389
sVProvince
p3390
g52
sVPYInitial
p3391
VTXCS
p3392
sVRemarkName
p3393
g52
sVIsOwner
p3394
I0
sVSex
p3395
I0
sVStarFriend
p3396
I0
sVHideInputBarFlag
p3397
I0
sVChatRoomId
p3398
I0
sVEncryChatRoomId
p3399
g52
sVAttrStatus
p3400
I0
sVStatues
p3401
I0
stp3402
Rp3403
I1
bag34
(g3276
g39
(dp3404
VUserName
p3405
V@37e700341ab91f5d894198e59fadae82
p3406
sVCity
p3407
V\u5357\u4eac
p3408
sVSnsFlag
p3409
I0
sVDisplayName
p3410
g52
sVUniFriend
p3411
I0
sVMemberCount
p3412
I0
sVOwnerUin
p3413
I0
sVMemberList
p3414
g50
sVAlias
p3415
g52
sVPYQuanPin
p3416
Vzhongguodashuju
p3417
sVSignature
p3418
V\u4e2d\u56fd\u5927\u6570\u636e |  \u63d0\u4f9b\u5927\u6570\u636e\u6280\u672f\uff0c\u5927\u6570\u636e\u5e94\u7528\u6848\u4f8b\uff0c\u6c47\u805a\u5927\u6570\u636e\u8d44\u6599\uff0c\u8ba8\u8bba\u5927\u6570\u636e\u8bdd\u9898\u3002\u4e2d\u56fd\u5927\u6570\u636e\u662f\u56fd\u5185\u6700\u65e9\u7684\u516c\u76ca\u6027\u5927\u6570\u636e\u7f51\u7ad9\uff0c\u7531\u5218\u9e4f\u6559\u6388\u521b\u529e\u3002
p3419
sVRemarkPYInitial
p3420
g52
sVContactFlag
p3421
I3
sVUin
p3422
I0
sVNickName
p3423
V\u4e2d\u56fd\u5927\u6570\u636e
p3424
sVAppAccountFlag
p3425
I0
sVVerifyFlag
p3426
I8
sVRemarkPYQuanPin
p3427
g52
sVHeadImgUrl
p3428
V/cgi-bin/mmwebwx-bin/webwxgeticon?seq=668520041&username=@37e700341ab91f5d894198e59fadae82&skey=@crypt_6353e9d_ed7032495f5dca64485fdcf3d0e02a2f
p3429
sVKeyWord
p3430
Vgh_
p3431
sVProvince
p3432
V\u6c5f\u82cf
p3433
sVPYInitial
p3434
VZGDSJ
p3435
sVRemarkName
p3436
g52
sVIsOwner
p3437
I0
sVSex
p3438
I0
sVStarFriend
p3439
I0
sVHideInputBarFlag
p3440
I0
sVChatRoomId
p3441
I0
sVEncryChatRoomId
p3442
g52
sVAttrStatus
p3443
I0
sVStatues
p3444
I0
stp3445
Rp3446
I1
bag34
(g3276
g39
(dp3447
VUserName
p3448
V@5f034c8bfaf505334e377e5d323e28e7
p3449
sVCity
p3450
g52
sVSnsFlag
p3451
I0
sVDisplayName
p3452
g52
sVUniFriend
p3453
I0
sVMemberCount
p3454
I0
sVOwnerUin
p3455
I0
sVMemberList
p3456
g50
sVAlias
p3457
g52
sVPYQuanPin
p3458
Vweixinzhifu
p3459
sVSignature
p3460
V\u5e2e\u52a9\u89e3\u51b3\u5fae\u4fe1\u652f\u4ed8\u4e2d\u9047\u5230\u7684\u56f0\u96be\uff0c\u6536\u96c6\u5173\u4e8e\u5fae\u4fe1\u652f\u4ed8\u7684\u5efa\u8bae\u53cd\u9988\u3002
p3461
sVRemarkPYInitial
p3462
g52
sVContactFlag
p3463
I1
sVUin
p3464
I0
sVNickName
p3465
V\u5fae\u4fe1\u652f\u4ed8
p3466
sVAppAccountFlag
p3467
I0
sVVerifyFlag
p3468
I24
sVRemarkPYQuanPin
p3469
g52
sVHeadImgUrl
p3470
V/cgi-bin/mmwebwx-bin/webwxgeticon?seq=620390182&username=@5f034c8bfaf505334e377e5d323e28e7&skey=@crypt_6353e9d_ed7032495f5dca64485fdcf3d0e02a2f
p3471
sVKeyWord
p3472
Vgh_
p3473
sVProvince
p3474
V\u5e7f\u4e1c
p3475
sVPYInitial
p3476
VWXZF
p3477
sVRemarkName
p3478
g52
sVIsOwner
p3479
I0
sVSex
p3480
I0
sVStarFriend
p3481
I0
sVHideInputBarFlag
p3482
I0
sVChatRoomId
p3483
I0
sVEncryChatRoomId
p3484
g52
sVAttrStatus
p3485
I0
sVStatues
p3486
I0
stp3487
Rp3488
I1
bag34
(g3276
g39
(dp3489
VUserName
p3490
V@dcaade4f213e68665a6e1a7aba6496c4
p3491
sVCity
p3492
V\u6df1\u5733
p3493
sVSnsFlag
p3494
I0
sVDisplayName
p3495
g52
sVUniFriend
p3496
I0
sVMemberCount
p3497
I0
sVOwnerUin
p3498
I0
sVMemberList
p3499
g50
sVAlias
p3500
g52
sVPYQuanPin
p3501
g52
sVSignature
p3502
V\u8fd9\u91cc\u8bb0\u5f55\u60a8\u4e0e\u597d\u53cb\u7cbe\u5f69\u77ac\u95f4\uff0c\u66f4\u6709\u5929\u4e0b\u70ed\u70b9\u52a8\u6001\u3001\u767e\u59d3\u751f\u6d3b\u65b0\u9c9c\u4e8b\u4e3a\u60a8\u5448\u73b0\u3002\u817e\u8baf\u5fae\u535a\u4e0e\u60a8\u5e76\u80a9\u770b\u4e16\u754c\u3002
p3503
sVRemarkPYInitial
p3504
g52
sVContactFlag
p3505
I1
sVUin
p3506
I0
sVNickName
p3507
g52
sVAppAccountFlag
p3508
I0
sVVerifyFlag
p3509
I24
sVRemarkPYQuanPin
p3510
g52
sVHeadImgUrl
p3511
V/cgi-bin/mmwebwx-bin/webwxgeticon?seq=621170242&username=@dcaade4f213e68665a6e1a7aba6496c4&skey=@crypt_6353e9d_ed7032495f5dca64485fdcf3d0e02a2f
p3512
sVKeyWord
p3513
Vgh_
p3514
sVProvince
p3515
V\u5e7f\u4e1c
p3516
sVPYInitial
p3517
g52
sVRemarkName
p3518
g52
sVIsOwner
p3519
I0
sVSex
p3520
I0
sVStarFriend
p3521
I0
sVHideInputBarFlag
p3522
I0
sVChatRoomId
p3523
I0
sVEncryChatRoomId
p3524
g52
sVAttrStatus
p3525
I0
sVStatues
p3526
I0
stp3527
Rp3528
I1
bag34
(g3276
g39
(dp3529
VUserName
p3530
V@4cacf84a5073b1016201d48354eef053
p3531
sVCity
p3532
V\u626c\u5dde
p3533
sVSnsFlag
p3534
I0
sVDisplayName
p3535
g52
sVUniFriend
p3536
I0
sVMemberCount
p3537
I0
sVOwnerUin
p3538
I0
sVMemberList
p3539
g50
sVAlias
p3540
g52
sVPYQuanPin
p3541
Vwubutongmeishi
p3542
sVSignature
p3543
V\u5434\u4e0d\u540c\u7f8e\u98df\u63a8\u5e7f
p3544
sVRemarkPYInitial
p3545
g52
sVContactFlag
p3546
I3
sVUin
p3547
I0
sVNickName
p3548
V\u5434\u4e0d\u540c\u7f8e\u98df
p3549
sVAppAccountFlag
p3550
I0
sVVerifyFlag
p3551
I8
sVRemarkPYQuanPin
p3552
g52
sVHeadImgUrl
p3553
V/cgi-bin/mmwebwx-bin/webwxgeticon?seq=639440358&username=@4cacf84a5073b1016201d48354eef053&skey=@crypt_6353e9d_ed7032495f5dca64485fdcf3d0e02a2f
p3554
sVKeyWord
p3555
Vgh_
p3556
sVProvince
p3557
V\u6c5f\u82cf
p3558
sVPYInitial
p3559
VWBTMS
p3560
sVRemarkName
p3561
g52
sVIsOwner
p3562
I0
sVSex
p3563
I0
sVStarFriend
p3564
I0
sVHideInputBarFlag
p3565
I0
sVChatRoomId
p3566
I0
sVEncryChatRoomId
p3567
g52
sVAttrStatus
p3568
I0
sVStatues
p3569
I0
stp3570
Rp3571
I1
bag34
(g3276
g39
(dp3572
VUserName
p3573
V@2d9bbc2d7c0630235f1bfb5a511d2c7e
p3574
sVCity
p3575
V\u5357\u4eac
p3576
sVSnsFlag
p3577
I0
sVDisplayName
p3578
g52
sVUniFriend
p3579
I0
sVMemberCount
p3580
I0
sVOwnerUin
p3581
I0
sVMemberList
p3582
g50
sVAlias
p3583
g52
sVPYQuanPin
p3584
g52
sVSignature
p3585
V\u65b0\u9c9c\u8003\u7814\u8d44\u8baf\uff0c\u771f\u9898\u8d44\u6599\u5e72\u8d27\uff0c\u5c3d\u5728\u901a\u9014\u6559\u80b2\uff01
p3586
sVRemarkPYInitial
p3587
g52
sVContactFlag
p3588
I3
sVUin
p3589
I0
sVNickName
p3590
g52
sVAppAccountFlag
p3591
I0
sVVerifyFlag
p3592
I8
sVRemarkPYQuanPin
p3593
g52
sVHeadImgUrl
p3594
V/cgi-bin/mmwebwx-bin/webwxgeticon?seq=639440444&username=@2d9bbc2d7c0630235f1bfb5a511d2c7e&skey=@crypt_6353e9d_ed7032495f5dca64485fdcf3d0e02a2f
p3595
sVKeyWord
p3596
Vgh_
p3597
sVProvince
p3598
V\u6c5f\u82cf
p3599
sVPYInitial
p3600
g52
sVRemarkName
p3601
g52
sVIsOwner
p3602
I0
sVSex
p3603
I0
sVStarFriend
p3604
I0
sVHideInputBarFlag
p3605
I0
sVChatRoomId
p3606
I0
sVEncryChatRoomId
p3607
g52
sVAttrStatus
p3608
I0
sVStatues
p3609
I0
stp3610
Rp3611
I1
bag34
(g3276
g39
(dp3612
VUserName
p3613
V@8468dec3b098d33b72dd50efda56ee24
p3614
sVCity
p3615
g52
sVSnsFlag
p3616
I0
sVDisplayName
p3617
g52
sVUniFriend
p3618
I0
sVMemberCount
p3619
I0
sVOwnerUin
p3620
I0
sVMemberList
p3621
g50
sVAlias
p3622
g52
sVPYQuanPin
p3623
Vduolunduohaixianzizhucanting
p3624
sVSignature
p3625
V\u591a\u4f26\u591a\u6d77\u9c9c\u81ea\u52a9\u662f\u661f\u8bed\u96c5\u96c6\u9910\u996e\u7ba1\u7406\u6709\u9650\u516c\u53f8\u4e3b\u6253\u54c1\u724c \u662f\u56fd\u5185\u6d77\u9c9c\u81ea\u52a9\u9910\u9886\u57df\u89c4\u6a21\u8f83\u5927 \u53d1\u5c55\u8f83\u5feb \u5177\u6709\u5f71\u54cd\u529b\u4e14\u7f8e\u8a89\u5ea6\u8f83\u597d\u7684\u81ea\u52a9\u9910\u54c1\u724c \u76ee\u524d\u5728\u6c5f\u6d59\u6caa\u7696\u5730\u533a\u8fd150\u5bb6\u8fde\u9501\u76f4\u8425\u95e8\u5e97 \u8ba1\u52122017\u5e74\u7a81\u7834100\u5bb6
p3626
sVRemarkPYInitial
p3627
g52
sVContactFlag
p3628
I3
sVUin
p3629
I0
sVNickName
p3630
V\u591a\u4f26\u591a\u6d77\u9c9c\u81ea\u52a9\u9910\u5385
p3631
sVAppAccountFlag
p3632
I0
sVVerifyFlag
p3633
I24
sVRemarkPYQuanPin
p3634
g52
sVHeadImgUrl
p3635
V/cgi-bin/mmwebwx-bin/webwxgeticon?seq=639440497&username=@8468dec3b098d33b72dd50efda56ee24&skey=@crypt_6353e9d_ed7032495f5dca64485fdcf3d0e02a2f
p3636
sVKeyWord
p3637
Vgh_
p3638
sVProvince
p3639
V\u6c5f\u82cf
p3640
sVPYInitial
p3641
VDLDHXZZCT
p3642
sVRemarkName
p3643
g52
sVIsOwner
p3644
I0
sVSex
p3645
I0
sVStarFriend
p3646
I0
sVHideInputBarFlag
p3647
I0
sVChatRoomId
p3648
I0
sVEncryChatRoomId
p3649
g52
sVAttrStatus
p3650
I0
sVStatues
p3651
I0
stp3652
Rp3653
I1
bag34
(g3276
g39
(dp3654
VUserName
p3655
V@fbf23faa5226795ed8ea7c3c99187858
p3656
sVCity
p3657
V\u6df1\u5733
p3658
sVSnsFlag
p3659
I0
sVDisplayName
p3660
g52
sVUniFriend
p3661
I0
sVMemberCount
p3662
I0
sVOwnerUin
p3663
I0
sVMemberList
p3664
g50
sVAlias
p3665
g52
sVPYQuanPin
p3666
g52
sVSignature
p3667
V\u672c\u671f\u6d3b\u52a8\uff0c\u624b\u8868\u4e3a\u516c\u53f8\u8054\u5408\u7b2c\u4e09\u65b9\u5b9e\u529b\u5382\u5bb6\u5b9a\u5236\u751f\u4ea7\uff0c\u8d28\u91cf\u6709\u4fdd\u969c\u3002\u4e09\u8272\u53ef\u9009\uff0c\u7537\u5973\u901a\u7528\uff0c\u975e\u5e38\u65f6\u5c1a\u53c8\u5927\u6c14\uff0c\u4f11\u95f2/\u5546\u52a1\u90fd\u662f\u4e0d\u9519\u7684\u9009\u62e9\uff0c\u672c\u6d3b\u52a8\u9ed8\u8ba4\u3010\u5706\u901a\u5feb\u9012\u3011
p3668
sVRemarkPYInitial
p3669
g52
sVContactFlag
p3670
I3
sVUin
p3671
I0
sVNickName
p3672
g52
sVAppAccountFlag
p3673
I0
sVVerifyFlag
p3674
I24
sVRemarkPYQuanPin
p3675
g52
sVHeadImgUrl
p3676
V/cgi-bin/mmwebwx-bin/webwxgeticon?seq=646580357&username=@fbf23faa5226795ed8ea7c3c99187858&skey=@crypt_6353e9d_ed7032495f5dca64485fdcf3d0e02a2f
p3677
sVKeyWord
p3678
Vgh_
p3679
sVProvince
p3680
V\u5e7f\u4e1c
p3681
sVPYInitial
p3682
g52
sVRemarkName
p3683
g52
sVIsOwner
p3684
I0
sVSex
p3685
I0
sVStarFriend
p3686
I0
sVHideInputBarFlag
p3687
I0
sVChatRoomId
p3688
I0
sVEncryChatRoomId
p3689
g52
sVAttrStatus
p3690
I0
sVStatues
p3691
I0
stp3692
Rp3693
I1
bag34
(g3276
g39
(dp3694
VUserName
p3695
V@e1308c2e267c8306d2d6137abd87a9c4
p3696
sVCity
p3697
V\u5357\u4eac
p3698
sVSnsFlag
p3699
I0
sVDisplayName
p3700
g52
sVUniFriend
p3701
I0
sVMemberCount
p3702
I0
sVOwnerUin
p3703
I0
sVMemberList
p3704
g50
sVAlias
p3705
g52
sVPYQuanPin
p3706
Vzhongguodianxinjiangsukefu
p3707
sVSignature
p3708
V\u6c5f\u82cf\u7535\u4fe110000\u53f7\u5b98\u65b9\u5ba2\u670d\uff0c\u65e0\u201c\u5fae\u201d\u4e0d\u81f3\u3001\u4f53\u8d34\u5165\u201c\u5fae\u201d\u3002\u7528\u5fc3\u4e3a\u60a8\u63d0\u4f9b\u8bdd\u8d39\u67e5\u8be2\u3001\u4e1a\u52a1\u529e\u7406\u3001\u5bbd\u5e26\u62a5\u4fee\u7b49\u670d\u52a1\uff0c\u8fd8\u6709\u5404\u79cd\u4f18\u60e0\u6d3b\u52a8\u4e0d\u5b9a\u671f\u63a8\u51fa\u54e6\uff01\u7528\u6237\u59cb\u7ec8\u81f3\u4e0a\uff0c\u670d\u52a1\u89e6\u624b\u53ef\u53ca\uff01
p3709
sVRemarkPYInitial
p3710
g52
sVContactFlag
p3711
I3
sVUin
p3712
I0
sVNickName
p3713
V\u4e2d\u56fd\u7535\u4fe1\u6c5f\u82cf\u5ba2\u670d
p3714
sVAppAccountFlag
p3715
I0
sVVerifyFlag
p3716
I24
sVRemarkPYQuanPin
p3717
g52
sVHeadImgUrl
p3718
V/cgi-bin/mmwebwx-bin/webwxgeticon?seq=646580687&username=@e1308c2e267c8306d2d6137abd87a9c4&skey=@crypt_6353e9d_ed7032495f5dca64485fdcf3d0e02a2f
p3719
sVKeyWord
p3720
Vgh_
p3721
sVProvince
p3722
V\u6c5f\u82cf
p3723
sVPYInitial
p3724
VZGDXJSKF
p3725
sVRemarkName
p3726
g52
sVIsOwner
p3727
I0
sVSex
p3728
I0
sVStarFriend
p3729
I0
sVHideInputBarFlag
p3730
I0
sVChatRoomId
p3731
I0
sVEncryChatRoomId
p3732
g52
sVAttrStatus
p3733
I0
sVStatues
p3734
I0
stp3735
Rp3736
I1
bag34
(g3276
g39
(dp3737
VUserName
p3738
V@3fa8c840454a476ec9135600aa5d94e6
p3739
sVCity
p3740
V\u5357\u4eac
p3741
sVSnsFlag
p3742
I0
sVDisplayName
p3743
g52
sVUniFriend
p3744
I0
sVMemberCount
p3745
I0
sVOwnerUin
p3746
I0
sVMemberList
p3747
g50
sVAlias
p3748
g52
sVPYQuanPin
p3749
Vrenzeshangyuan
p3750
sVSignature
p3751
V\u5e2e\u52a9\u60a8\u4e86\u89e3\u4ec1\u6cfd\u5546\u5b66\u9662\u7ec4\u7ec7\u3001\u7b56\u5212\u7684\u5404\u7c7b\u7f51\u7edc\u4e8b\u4e1a\u90e8\u6d3b\u52a8\u53ca\u5927\u8d5b\u3002\u53ca\u65f6\u6536\u53d6\u4ec1\u6cfd\u5546\u5b66\u9662\u7684\u6700\u65b0\u4fe1\u606f\u3002
p3752
sVRemarkPYInitial
p3753
g52
sVContactFlag
p3754
I3
sVUin
p3755
I0
sVNickName
p3756
V\u4ec1\u6cfd\u5546\u9662
p3757
sVAppAccountFlag
p3758
I0
sVVerifyFlag
p3759
I8
sVRemarkPYQuanPin
p3760
g52
sVHeadImgUrl
p3761
V/cgi-bin/mmwebwx-bin/webwxgeticon?seq=649410482&username=@3fa8c840454a476ec9135600aa5d94e6&skey=@crypt_6353e9d_ed7032495f5dca64485fdcf3d0e02a2f
p3762
sVKeyWord
p3763
Vgh_
p3764
sVProvince
p3765
V\u6c5f\u82cf
p3766
sVPYInitial
p3767
VRZSY
p3768
sVRemarkName
p3769
g52
sVIsOwner
p3770
I0
sVSex
p3771
I0
sVStarFriend
p3772
I0
sVHideInputBarFlag
p3773
I0
sVChatRoomId
p3774
I0
sVEncryChatRoomId
p3775
g52
sVAttrStatus
p3776
I0
sVStatues
p3777
I0
stp3778
Rp3779
I1
bag34
(g3276
g39
(dp3780
VUserName
p3781
V@e2751348bcde9606f373c203e3b12bab
p3782
sVCity
p3783
V\u5e7f\u5dde
p3784
sVSnsFlag
p3785
I0
sVDisplayName
p3786
g52
sVUniFriend
p3787
I0
sVMemberCount
p3788
I0
sVOwnerUin
p3789
I0
sVMemberList
p3790
g50
sVAlias
p3791
g52
sVPYQuanPin
p3792
Vtianyiliuliang800
p3793
sVSignature
p3794
V\u5929\u7ffc\u6d41\u91cf800\u662f\u4e2d\u56fd\u7535\u4fe1\u63a8\u51fa\u7684\u201c\u7528\u6237\u514d\u8d39\u4f7f\u7528\u6d41\u91cf\uff0c\u4f01\u4e1a\u4e3a\u7528\u6237\u4e70\u5355\u201c\u7684\u5168\u65b0\u670d\u52a1\uff0c\u4e2d\u56fd\u7535\u4fe1\u901a\u8fc7\u8be5\u5fae\u4fe1\u516c\u4f17\u53f7\u5411\u7528\u6237\u957f\u671f\u53d1\u5e03\u7535\u4fe1\u514d\u8d39\u6d41\u91cf\u6d3b\u52a8\u3002\u5173\u6ce8\u201c\u5929\u7ffc\u6d41\u91cf800\u201d\uff0c\u514d\u8d39\u6d41\u91cf\u6e90\u6e90\u4e0d\u65ad\uff0c\u5408\u4f5c\u6d3b\u52a8\u7cbe\u5f69\u7eb7\u5448\uff0c\u8bf7\u60a8\u4e0d\u8981\u79bb\u5f00\u3002
p3795
sVRemarkPYInitial
p3796
g52
sVContactFlag
p3797
I3
sVUin
p3798
I0
sVNickName
p3799
V\u5929\u7ffc\u6d41\u91cf800
p3800
sVAppAccountFlag
p3801
I0
sVVerifyFlag
p3802
I24
sVRemarkPYQuanPin
p3803
g52
sVHeadImgUrl
p3804
V/cgi-bin/mmwebwx-bin/webwxgeticon?seq=633860440&username=@e2751348bcde9606f373c203e3b12bab&skey=@crypt_6353e9d_ed7032495f5dca64485fdcf3d0e02a2f
p3805
sVKeyWord
p3806
Vgh_
p3807
sVProvince
p3808
V\u5e7f\u4e1c
p3809
sVPYInitial
p3810
VTYLL800
p3811
sVRemarkName
p3812
g52
sVIsOwner
p3813
I0
sVSex
p3814
I0
sVStarFriend
p3815
I0
sVHideInputBarFlag
p3816
I0
sVChatRoomId
p3817
I0
sVEncryChatRoomId
p3818
g52
sVAttrStatus
p3819
I0
sVStatues
p3820
I0
stp3821
Rp3822
I1
bag34
(g3276
g39
(dp3823
VUserName
p3824
V@b954cf63912667b14f133cdb25d3b73b
p3825
sVCity
p3826
g52
sVSnsFlag
p3827
I0
sVDisplayName
p3828
g52
sVUniFriend
p3829
I0
sVMemberCount
p3830
I0
sVOwnerUin
p3831
I0
sVMemberList
p3832
g50
sVAlias
p3833
g52
sVPYQuanPin
p3834
Vgaizhanghaoyizhuxiao
p3835
sVSignature
p3836
g52
sVRemarkPYInitial
p3837
g52
sVContactFlag
p3838
I3
sVUin
p3839
I0
sVNickName
p3840
V\u8be5\u5e10\u53f7\u5df2\u6ce8\u9500
p3841
sVAppAccountFlag
p3842
I0
sVVerifyFlag
p3843
I24
sVRemarkPYQuanPin
p3844
g52
sVHeadImgUrl
p3845
V/cgi-bin/mmwebwx-bin/webwxgeticon?seq=649411792&username=@b954cf63912667b14f133cdb25d3b73b&skey=@crypt_6353e9d_ed7032495f5dca64485fdcf3d0e02a2f
p3846
sVKeyWord
p3847
Vgh_
p3848
sVProvince
p3849
g52
sVPYInitial
p3850
VGZHYZX
p3851
sVRemarkName
p3852
g52
sVIsOwner
p3853
I0
sVSex
p3854
I0
sVStarFriend
p3855
I0
sVHideInputBarFlag
p3856
I0
sVChatRoomId
p3857
I0
sVEncryChatRoomId
p3858
g52
sVAttrStatus
p3859
I0
sVStatues
p3860
I0
stp3861
Rp3862
I1
bag34
(g3276
g39
(dp3863
VUserName
p3864
V@13c0eddc479c6bcc4363b82d4487359e
p3865
sVCity
p3866
V\u5357\u4eac
p3867
sVSnsFlag
p3868
I0
sVDisplayName
p3869
g52
sVUniFriend
p3870
I0
sVMemberCount
p3871
I0
sVOwnerUin
p3872
I0
sVMemberList
p3873
g50
sVAlias
p3874
g52
sVPYQuanPin
p3875
Vnajinggonggongzixingche
p3876
sVSignature
p3877
V\u4f4e\u78b3\u51fa\u884c\uff0c\u7eff\u8272\u751f\u6d3b\uff0c\u4fbf\u5229\u4e8e\u6c11\u3002\u53ef\u67e5\u8be2\u5357\u4eac\u516c\u5171\u81ea\u884c\u8f66\u76f8\u5173\u4fe1\u606f\u3002
p3878
sVRemarkPYInitial
p3879
g52
sVContactFlag
p3880
I3
sVUin
p3881
I0
sVNickName
p3882
V\u5357\u4eac\u516c\u5171\u81ea\u884c\u8f66
p3883
sVAppAccountFlag
p3884
I0
sVVerifyFlag
p3885
I24
sVRemarkPYQuanPin
p3886
g52
sVHeadImgUrl
p3887
V/cgi-bin/mmwebwx-bin/webwxgeticon?seq=649411939&username=@13c0eddc479c6bcc4363b82d4487359e&skey=@crypt_6353e9d_ed7032495f5dca64485fdcf3d0e02a2f
p3888
sVKeyWord
p3889
Vgh_
p3890
sVProvince
p3891
V\u6c5f\u82cf
p3892
sVPYInitial
p3893
VNJGGZXC
p3894
sVRemarkName
p3895
g52
sVIsOwner
p3896
I0
sVSex
p3897
I0
sVStarFriend
p3898
I0
sVHideInputBarFlag
p3899
I0
sVChatRoomId
p3900
I0
sVEncryChatRoomId
p3901
g52
sVAttrStatus
p3902
I0
sVStatues
p3903
I0
stp3904
Rp3905
I1
bag34
(g3276
g39
(dp3906
VUserName
p3907
V@e40d75ae86a3e4769b7fe0ad9e5df03d
p3908
sVCity
p3909
V\u5f90\u6c47
p3910
sVSnsFlag
p3911
I0
sVDisplayName
p3912
g52
sVUniFriend
p3913
I0
sVMemberCount
p3914
I0
sVOwnerUin
p3915
I0
sVMemberList
p3916
g50
sVAlias
p3917
g52
sVPYQuanPin
p3918
Vyouyiku
p3919
sVSignature
p3920
V\u4f18\u8863\u5e93\u54c1\u724c\u5b98\u65b9\u5fae\u4fe1
p3921
sVRemarkPYInitial
p3922
g52
sVContactFlag
p3923
I3
sVUin
p3924
I0
sVNickName
p3925
V\u4f18\u8863\u5e93
p3926
sVAppAccountFlag
p3927
I0
sVVerifyFlag
p3928
I28
sVRemarkPYQuanPin
p3929
g52
sVHeadImgUrl
p3930
V/cgi-bin/mmwebwx-bin/webwxgeticon?seq=651750650&username=@e40d75ae86a3e4769b7fe0ad9e5df03d&skey=@crypt_6353e9d_ed7032495f5dca64485fdcf3d0e02a2f
p3931
sVKeyWord
p3932
Vyou
p3933
sVProvince
p3934
V\u4e0a\u6d77
p3935
sVPYInitial
p3936
VYYK
p3937
sVRemarkName
p3938
g52
sVIsOwner
p3939
I0
sVSex
p3940
I0
sVStarFriend
p3941
I0
sVHideInputBarFlag
p3942
I0
sVChatRoomId
p3943
I0
sVEncryChatRoomId
p3944
g52
sVAttrStatus
p3945
I3
sVStatues
p3946
I0
stp3947
Rp3948
I1
bag34
(g3276
g39
(dp3949
VUserName
p3950
V@4805f1f015be3c866ff647461582cf6e
p3951
sVCity
p3952
V\u5357\u4eac
p3953
sVSnsFlag
p3954
I0
sVDisplayName
p3955
g52
sVUniFriend
p3956
I0
sVMemberCount
p3957
I0
sVOwnerUin
p3958
I0
sVMemberList
p3959
g50
sVAlias
p3960
g52
sVPYQuanPin
p3961
Vjiangsudianxin
p3962
sVSignature
p3963
V\u4e2d\u56fd\u7535\u4fe1\u6c5f\u82cf\u516c\u53f8\u552f\u4e00\u5b98\u65b9\u516c\u4f17\u53f7\uff0c\u60a8\u6700\u8d34\u5fc3\u7684\u53e3\u888b\u8425\u4e1a\u5385
p3964
sVRemarkPYInitial
p3965
g52
sVContactFlag
p3966
I1
sVUin
p3967
I0
sVNickName
p3968
V\u6c5f\u82cf\u7535\u4fe1
p3969
sVAppAccountFlag
p3970
I0
sVVerifyFlag
p3971
I24
sVRemarkPYQuanPin
p3972
g52
sVHeadImgUrl
p3973
V/cgi-bin/mmwebwx-bin/webwxgeticon?seq=643840449&username=@4805f1f015be3c866ff647461582cf6e&skey=@crypt_6353e9d_ed7032495f5dca64485fdcf3d0e02a2f
p3974
sVKeyWord
p3975
Vgh_
p3976
sVProvince
p3977
V\u6c5f\u82cf
p3978
sVPYInitial
p3979
VJSDX
p3980
sVRemarkName
p3981
g52
sVIsOwner
p3982
I0
sVSex
p3983
I0
sVStarFriend
p3984
I0
sVHideInputBarFlag
p3985
I0
sVChatRoomId
p3986
I0
sVEncryChatRoomId
p3987
g52
sVAttrStatus
p3988
I0
sVStatues
p3989
I0
stp3990
Rp3991
I1
bag34
(g3276
g39
(dp3992
VUserName
p3993
V@63190bd44d45575e1f1800d265ba0ebd
p3994
sVCity
p3995
V\u626c\u5dde
p3996
sVSnsFlag
p3997
I0
sVDisplayName
p3998
g52
sVUniFriend
p3999
I0
sVMemberCount
p4000
I0
sVOwnerUin
p4001
I0
sVMemberList
p4002
g50
sVAlias
p4003
g52
sVPYQuanPin
p4004
Vwuxianyangzhou
p4005
sVSignature
p4006
V\u5173\u6ce8\u6211\u4eec\uff0c"i-Yangzhou"\u5168\u57ce\u514d\u8d39\u8fde
p4007
sVRemarkPYInitial
p4008
g52
sVContactFlag
p4009
I3
sVUin
p4010
I0
sVNickName
p4011
V\u65e0\u7ebf\u626c\u5dde
p4012
sVAppAccountFlag
p4013
I0
sVVerifyFlag
p4014
I24
sVRemarkPYQuanPin
p4015
g52
sVHeadImgUrl
p4016
V/cgi-bin/mmwebwx-bin/webwxgeticon?seq=639440631&username=@63190bd44d45575e1f1800d265ba0ebd&skey=@crypt_6353e9d_ed7032495f5dca64485fdcf3d0e02a2f
p4017
sVKeyWord
p4018
Vgh_
p4019
sVProvince
p4020
V\u6c5f\u82cf
p4021
sVPYInitial
p4022
VWXYZ
p4023
sVRemarkName
p4024
g52
sVIsOwner
p4025
I0
sVSex
p4026
I0
sVStarFriend
p4027
I0
sVHideInputBarFlag
p4028
I0
sVChatRoomId
p4029
I0
sVEncryChatRoomId
p4030
g52
sVAttrStatus
p4031
I0
sVStatues
p4032
I0
stp4033
Rp4034
I1
bag34
(g3276
g39
(dp4035
VUserName
p4036
V@d1e240f0db8eacda8602146054be76ef
p4037
sVCity
p4038
V\u957f\u5b81
p4039
sVSnsFlag
p4040
I0
sVDisplayName
p4041
g52
sVUniFriend
p4042
I0
sVMemberCount
p4043
I0
sVOwnerUin
p4044
I0
sVMemberList
p4045
g50
sVAlias
p4046
g52
sVPYQuanPin
p4047
VCoCoduke
p4048
sVSignature
p4049
V\u3010\u65b0\u9c9c \u5b89\u5fc3 \u597d\u6ecb\u5473\u3011\u4e3a\u4e16\u754c\u63d0\u4f9b\u65b0\u9c9c\u597d\u559d\u7684\u53f0\u6e7e\u521b\u610f\u996e\u54c1\uff0c\u5173\u6ce8CoCo\u90fd\u53ef\u516c\u4f17\u53f7\uff0c\u5c06\u6709\u65e0\u9650\u7684\u60ca\u559c\u54e6\uff01
p4050
sVRemarkPYInitial
p4051
g52
sVContactFlag
p4052
I3
sVUin
p4053
I0
sVNickName
p4054
VCoCo\u90fd\u53ef
p4055
sVAppAccountFlag
p4056
I0
sVVerifyFlag
p4057
I24
sVRemarkPYQuanPin
p4058
g52
sVHeadImgUrl
p4059
V/cgi-bin/mmwebwx-bin/webwxgeticon?seq=654291113&username=@d1e240f0db8eacda8602146054be76ef&skey=@crypt_6353e9d_ed7032495f5dca64485fdcf3d0e02a2f
p4060
sVKeyWord
p4061
Vgh_
p4062
sVProvince
p4063
V\u4e0a\u6d77
p4064
sVPYInitial
p4065
VCOCODK
p4066
sVRemarkName
p4067
g52
sVIsOwner
p4068
I0
sVSex
p4069
I0
sVStarFriend
p4070
I0
sVHideInputBarFlag
p4071
I0
sVChatRoomId
p4072
I0
sVEncryChatRoomId
p4073
g52
sVAttrStatus
p4074
I0
sVStatues
p4075
I0
stp4076
Rp4077
I1
bag34
(g3276
g39
(dp4078
VUserName
p4079
V@1769e0e871dc6e2a8881432e7119518d
p4080
sVCity
p4081
V\u6df1\u5733
p4082
sVSnsFlag
p4083
I0
sVDisplayName
p4084
g52
sVUniFriend
p4085
I0
sVMemberCount
p4086
I0
sVOwnerUin
p4087
I0
sVMemberList
p4088
g50
sVAlias
p4089
g52
sVPYQuanPin
p4090
Vtengxunyouhuanquanzhongxin
p4091
sVSignature
p4092
V\u817e\u8baf\u6e38\u620f\u5b89\u5168\u4e2d\u5fc3\u5b98\u65b9\u5fae\u4fe1\u670d\u52a1\u53f7
p4093
sVRemarkPYInitial
p4094
g52
sVContactFlag
p4095
I3
sVUin
p4096
I0
sVNickName
p4097
V\u817e\u8baf\u6e38\u620f\u5b89\u5168\u4e2d\u5fc3
p4098
sVAppAccountFlag
p4099
I0
sVVerifyFlag
p4100
I24
sVRemarkPYQuanPin
p4101
g52
sVHeadImgUrl
p4102
V/cgi-bin/mmwebwx-bin/webwxgeticon?seq=649411144&username=@1769e0e871dc6e2a8881432e7119518d&skey=@crypt_6353e9d_ed7032495f5dca64485fdcf3d0e02a2f
p4103
sVKeyWord
p4104
Vgh_
p4105
sVProvince
p4106
V\u5e7f\u4e1c
p4107
sVPYInitial
p4108
VTXYHAQZX
p4109
sVRemarkName
p4110
g52
sVIsOwner
p4111
I0
sVSex
p4112
I0
sVStarFriend
p4113
I0
sVHideInputBarFlag
p4114
I0
sVChatRoomId
p4115
I0
sVEncryChatRoomId
p4116
g52
sVAttrStatus
p4117
I0
sVStatues
p4118
I0
stp4119
Rp4120
I1
bag34
(g3276
g39
(dp4121
VUserName
p4122
V@265e7dc6c07335ace31cdceabd48d8b8
p4123
sVCity
p4124
V\u6cf0\u5dde
p4125
sVSnsFlag
p4126
I0
sVDisplayName
p4127
g52
sVUniFriend
p4128
I0
sVMemberCount
p4129
I0
sVOwnerUin
p4130
I0
sVMemberList
p4131
g50
sVAlias
p4132
g52
sVPYQuanPin
p4133
Vpaopaoshaoerjiaoyutaizhouzhongxin
p4134
sVSignature
p4135
V\u65b0\u4e1c\u65b9\u6ce1\u6ce1\u5c11\u513f\u6559\u80b2\u6cf0\u5dde\u4e2d\u5fc3\u4e13\u6ce8\u4e8e4-14\u5c81\u9752\u5c11\u5e74\u82f1\u8bed\u57f9\u8bad\u3002\u5e7c\u513f\u82f1\u8bed/\u5c11\u513f\u82f1\u8bed/\u65b0\u6982\u5ff5\u82f1\u8bed/\u4e00\u5bf9\u4e00\u4e2a\u6027\u5316\u8bfe\u7a0b\u3002\u8be6\u8be2\uff1a\u6cf0\u5174\u4e2d\u5fc3\uff0887873377\uff09\u3001\u9ad8\u6e2f\u4e2d\u5fc3\uff0886967377\uff09\u3001\u6d77\u9675\u4e2d\u5fc3\uff0889993377\uff09\u3001\u59dc\u5830\u4e2d\u5fc3\uff0888213377\uff09\u3002
p4136
sVRemarkPYInitial
p4137
g52
sVContactFlag
p4138
I3
sVUin
p4139
I0
sVNickName
p4140
V\u6ce1\u6ce1\u5c11\u513f\u6559\u80b2\u6cf0\u5dde\u4e2d\u5fc3
p4141
sVAppAccountFlag
p4142
I0
sVVerifyFlag
p4143
I24
sVRemarkPYQuanPin
p4144
g52
sVHeadImgUrl
p4145
V/cgi-bin/mmwebwx-bin/webwxgeticon?seq=648940529&username=@265e7dc6c07335ace31cdceabd48d8b8&skey=@crypt_6353e9d_ed7032495f5dca64485fdcf3d0e02a2f
p4146
sVKeyWord
p4147
Vgh_
p4148
sVProvince
p4149
V\u6c5f\u82cf
p4150
sVPYInitial
p4151
VPPSEJYTZZX
p4152
sVRemarkName
p4153
g52
sVIsOwner
p4154
I0
sVSex
p4155
I0
sVStarFriend
p4156
I0
sVHideInputBarFlag
p4157
I0
sVChatRoomId
p4158
I0
sVEncryChatRoomId
p4159
g52
sVAttrStatus
p4160
I0
sVStatues
p4161
I0
stp4162
Rp4163
I1
bag34
(g3276
g39
(dp4164
VUserName
p4165
V@c853598335324aa2744da681c2578f17
p4166
sVCity
p4167
V\u5929\u95e8
p4168
sVSnsFlag
p4169
I0
sVDisplayName
p4170
g52
sVUniFriend
p4171
I0
sVMemberCount
p4172
I0
sVOwnerUin
p4173
I0
sVMemberList
p4174
g50
sVAlias
p4175
g52
sVPYQuanPin
p4176
Vduolabao
p4177
sVSignature
p4178
V\u83b7\u5f97\u6700\u65b0\u9177\u70ab\u7684\u798f\u5229\u6d3b\u52a8,\u4f53\u9a8c\u53c2\u4e0e\u6709\u5956\u4e92\u52a8\uff01\u5173\u6ce8\u54c6\u5566\u5b9d\uff0c\u597d\u73a9\u3001\u597d\u5e97\u968f\u5904\u53ef\u89c1~
p4179
sVRemarkPYInitial
p4180
g52
sVContactFlag
p4181
I3
sVUin
p4182
I0
sVNickName
p4183
V\u54c6\u5566\u5b9d
p4184
sVAppAccountFlag
p4185
I0
sVVerifyFlag
p4186
I24
sVRemarkPYQuanPin
p4187
g52
sVHeadImgUrl
p4188
V/cgi-bin/mmwebwx-bin/webwxgeticon?seq=656884506&username=@c853598335324aa2744da681c2578f17&skey=@crypt_6353e9d_ed7032495f5dca64485fdcf3d0e02a2f
p4189
sVKeyWord
p4190
Vgh_
p4191
sVProvince
p4192
V\u6e56\u5317
p4193
sVPYInitial
p4194
VDLB
p4195
sVRemarkName
p4196
g52
sVIsOwner
p4197
I0
sVSex
p4198
I0
sVStarFriend
p4199
I0
sVHideInputBarFlag
p4200
I0
sVChatRoomId
p4201
I0
sVEncryChatRoomId
p4202
g52
sVAttrStatus
p4203
I0
sVStatues
p4204
I0
stp4205
Rp4206
I1
bag34
(g3276
g39
(dp4207
VUserName
p4208
V@10e9e17a2aaabb055f85cda5f5fc3181
p4209
sVCity
p4210
V\u6d77\u6dc0
p4211
sVSnsFlag
p4212
I0
sVDisplayName
p4213
g52
sVUniFriend
p4214
I0
sVMemberCount
p4215
I0
sVOwnerUin
p4216
I0
sVMemberList
p4217
g50
sVAlias
p4218
g52
sVPYQuanPin
p4219
Vxiaobing
p4220
sVSignature
p4221
V\u6211\u662f\u4eba\u5de5\u667a\u80fd\u5fae\u8f6f\u5c0f\u51b0~~
p4222
sVRemarkPYInitial
p4223
g52
sVContactFlag
p4224
I3
sVUin
p4225
I0
sVNickName
p4226
V\u5c0f\u51b0
p4227
sVAppAccountFlag
p4228
I0
sVVerifyFlag
p4229
I24
sVRemarkPYQuanPin
p4230
g52
sVHeadImgUrl
p4231
V/cgi-bin/mmwebwx-bin/webwxgeticon?seq=656885017&username=@10e9e17a2aaabb055f85cda5f5fc3181&skey=@crypt_6353e9d_ed7032495f5dca64485fdcf3d0e02a2f
p4232
sVKeyWord
p4233
Vgh_
p4234
sVProvince
p4235
V\u5317\u4eac
p4236
sVPYInitial
p4237
VXB
p4238
sVRemarkName
p4239
g52
sVIsOwner
p4240
I0
sVSex
p4241
I0
sVStarFriend
p4242
I0
sVHideInputBarFlag
p4243
I0
sVChatRoomId
p4244
I0
sVEncryChatRoomId
p4245
g52
sVAttrStatus
p4246
I0
sVStatues
p4247
I0
stp4248
Rp4249
I1
bag34
(g3276
g39
(dp4250
VUserName
p4251
V@6fec8c284d7d08a7b5a9ffd0363116c7
p4252
sVCity
p4253
V\u9521\u6797\u90ed\u52d2
p4254
sVSnsFlag
p4255
I0
sVDisplayName
p4256
g52
sVUniFriend
p4257
I0
sVMemberCount
p4258
I0
sVOwnerUin
p4259
I0
sVMemberList
p4260
g50
sVAlias
p4261
g52
sVPYQuanPin
p4262
Vtelunsu
p4263
sVSignature
p4264
V 
p4265
sVRemarkPYInitial
p4266
g52
sVContactFlag
p4267
I1
sVUin
p4268
I0
sVNickName
p4269
V\u7279\u4ed1\u82cf
p4270
sVAppAccountFlag
p4271
I0
sVVerifyFlag
p4272
I24
sVRemarkPYQuanPin
p4273
g52
sVHeadImgUrl
p4274
V/cgi-bin/mmwebwx-bin/webwxgeticon?seq=656886097&username=@6fec8c284d7d08a7b5a9ffd0363116c7&skey=@crypt_6353e9d_ed7032495f5dca64485fdcf3d0e02a2f
p4275
sVKeyWord
p4276
Vgh_
p4277
sVProvince
p4278
V\u5185\u8499\u53e4
p4279
sVPYInitial
p4280
VTLS
p4281
sVRemarkName
p4282
g52
sVIsOwner
p4283
I0
sVSex
p4284
I0
sVStarFriend
p4285
I0
sVHideInputBarFlag
p4286
I0
sVChatRoomId
p4287
I0
sVEncryChatRoomId
p4288
g52
sVAttrStatus
p4289
I0
sVStatues
p4290
I0
stp4291
Rp4292
I1
bag34
(g3276
g39
(dp4293
VUserName
p4294
V@bed4e383f36c2a63152c42c1a24bfe35
p4295
sVCity
p4296
V\u897f\u57ce
p4297
sVSnsFlag
p4298
I0
sVDisplayName
p4299
g52
sVUniFriend
p4300
I0
sVMemberCount
p4301
I0
sVOwnerUin
p4302
I0
sVMemberList
p4303
g50
sVAlias
p4304
g52
sVPYQuanPin
p4305
Vzhongguodianxinkefu
p4306
sVSignature
p4307
V\u4e2d\u56fd\u7535\u4fe1\u96c6\u56e2\u5b98\u65b9\u5ba2\u670d
p4308
sVRemarkPYInitial
p4309
g52
sVContactFlag
p4310
I3
sVUin
p4311
I0
sVNickName
p4312
V\u4e2d\u56fd\u7535\u4fe1\u5ba2\u670d
p4313
sVAppAccountFlag
p4314
I0
sVVerifyFlag
p4315
I24
sVRemarkPYQuanPin
p4316
g52
sVHeadImgUrl
p4317
V/cgi-bin/mmwebwx-bin/webwxgeticon?seq=656888046&username=@bed4e383f36c2a63152c42c1a24bfe35&skey=@crypt_6353e9d_ed7032495f5dca64485fdcf3d0e02a2f
p4318
sVKeyWord
p4319
Vgh_
p4320
sVProvince
p4321
V\u5317\u4eac
p4322
sVPYInitial
p4323
VZGDXKF
p4324
sVRemarkName
p4325
g52
sVIsOwner
p4326
I0
sVSex
p4327
I0
sVStarFriend
p4328
I0
sVHideInputBarFlag
p4329
I0
sVChatRoomId
p4330
I0
sVEncryChatRoomId
p4331
g52
sVAttrStatus
p4332
I0
sVStatues
p4333
I0
stp4334
Rp4335
I1
bag34
(g3276
g39
(dp4336
VUserName
p4337
V@8803ae08dabcc01e3d49048dba2ea76e
p4338
sVCity
p4339
V\u5357\u4eac
p4340
sVSnsFlag
p4341
I0
sVDisplayName
p4342
g52
sVUniFriend
p4343
I0
sVMemberCount
p4344
I0
sVOwnerUin
p4345
I0
sVMemberList
p4346
g50
sVAlias
p4347
g52
sVPYQuanPin
p4348
Vhuarunsuguochaoshi
p4349
sVSignature
p4350
V\u534e\u6da6\u82cf\u679c\uff0c\u4ee5\u201c\u65b0\u9c9c\u3001\u4f18\u8d28\u3001\u4fbf\u5b9c\u3001\u8d34\u5fc3\u3001\u6ee1\u610f\u201d\u4e3a\u6838\u5fc3\u627f\u8bfa\uff0c\u7cbe\u6311\u7ec6\u9009\u4e30\u5bcc\u5546\u54c1\u3001\u4f18\u8d28\u65b0\u9c9c\u786e\u4fdd\u54c1\u8d28\u3001\u4fbf\u5b9c\u7701\u94b1\u8d85\u503c\u4f4e\u4ef7\u3002\u5728\u6ee1\u8db3\u60a8\u8d2d\u7269\u9700\u6c42\u7684\u540c\u65f6\uff0c\u81f4\u529b\u4e8e\u4e3a\u60a8\u5e26\u6765\u66f4\u65b0\u9c9c\u3001\u66f4\u65b9\u4fbf\u3001\u66f4\u8212\u9002\u7684\u5168\u65b9\u4f4d\u65b0\u4f53\u9a8c\u3002
p4351
sVRemarkPYInitial
p4352
g52
sVContactFlag
p4353
I3
sVUin
p4354
I0
sVNickName
p4355
V\u534e\u6da6\u82cf\u679c\u8d85\u5e02
p4356
sVAppAccountFlag
p4357
I0
sVVerifyFlag
p4358
I24
sVRemarkPYQuanPin
p4359
g52
sVHeadImgUrl
p4360
V/cgi-bin/mmwebwx-bin/webwxgeticon?seq=656889210&username=@8803ae08dabcc01e3d49048dba2ea76e&skey=@crypt_6353e9d_ed7032495f5dca64485fdcf3d0e02a2f
p4361
sVKeyWord
p4362
Vgh_
p4363
sVProvince
p4364
V\u6c5f\u82cf
p4365
sVPYInitial
p4366
VHRSGCS
p4367
sVRemarkName
p4368
g52
sVIsOwner
p4369
I0
sVSex
p4370
I0
sVStarFriend
p4371
I0
sVHideInputBarFlag
p4372
I0
sVChatRoomId
p4373
I0
sVEncryChatRoomId
p4374
g52
sVAttrStatus
p4375
I0
sVStatues
p4376
I0
stp4377
Rp4378
I1
bag34
(g3276
g39
(dp4379
VUserName
p4380
V@b7e24956c7c8ecd69f1e680fecba903e
p4381
sVCity
p4382
V\u65e0\u9521
p4383
sVSnsFlag
p4384
I0
sVDisplayName
p4385
g52
sVUniFriend
p4386
I0
sVMemberCount
p4387
I0
sVOwnerUin
p4388
I0
sVMemberList
p4389
g50
sVAlias
p4390
g52
sVPYQuanPin
p4391
Vjiongjiongshe
p4392
sVSignature
p4393
V\u5185\u6db5\u754c\u7684\u8001\u53f8\u673a\uff0c\u6bb5\u5b50\u754c\u7684\u625b\u628a\u5b50\uff0c\u4e13\u4e1a\u62ef\u6551\u4e0d\u5f00\u68ee~
p4394
sVRemarkPYInitial
p4395
g52
sVContactFlag
p4396
I3
sVUin
p4397
I0
sVNickName
p4398
V\u56e7\u56e7\u793e
p4399
sVAppAccountFlag
p4400
I0
sVVerifyFlag
p4401
I8
sVRemarkPYQuanPin
p4402
g52
sVHeadImgUrl
p4403
V/cgi-bin/mmwebwx-bin/webwxgeticon?seq=668496114&username=@b7e24956c7c8ecd69f1e680fecba903e&skey=@crypt_6353e9d_ed7032495f5dca64485fdcf3d0e02a2f
p4404
sVKeyWord
p4405
Vgh_
p4406
sVProvince
p4407
V\u6c5f\u82cf
p4408
sVPYInitial
p4409
VJJS
p4410
sVRemarkName
p4411
g52
sVIsOwner
p4412
I0
sVSex
p4413
I0
sVStarFriend
p4414
I0
sVHideInputBarFlag
p4415
I0
sVChatRoomId
p4416
I0
sVEncryChatRoomId
p4417
g52
sVAttrStatus
p4418
I0
sVStatues
p4419
I0
stp4420
Rp4421
I1
bag34
(g3276
g39
(dp4422
VUserName
p4423
V@2441c053d6ff9668e5c5a4d66129402f
p4424
sVCity
p4425
V\u65e0\u9521
p4426
sVSnsFlag
p4427
I0
sVDisplayName
p4428
g52
sVUniFriend
p4429
I0
sVMemberCount
p4430
I0
sVOwnerUin
p4431
I0
sVMemberList
p4432
g50
sVAlias
p4433
g52
sVPYQuanPin
p4434
Vlieshouyingshi
p4435
sVSignature
p4436
g52
sVRemarkPYInitial
p4437
g52
sVContactFlag
p4438
I3
sVUin
p4439
I0
sVNickName
p4440
V\u730e\u624b\u5f71\u89c6
p4441
sVAppAccountFlag
p4442
I0
sVVerifyFlag
p4443
I24
sVRemarkPYQuanPin
p4444
g52
sVHeadImgUrl
p4445
V/cgi-bin/mmwebwx-bin/webwxgeticon?seq=668496120&username=@2441c053d6ff9668e5c5a4d66129402f&skey=@crypt_6353e9d_ed7032495f5dca64485fdcf3d0e02a2f
p4446
sVKeyWord
p4447
Vgh_
p4448
sVProvince
p4449
V\u6c5f\u82cf
p4450
sVPYInitial
p4451
VLSYS
p4452
sVRemarkName
p4453
g52
sVIsOwner
p4454
I0
sVSex
p4455
I0
sVStarFriend
p4456
I0
sVHideInputBarFlag
p4457
I0
sVChatRoomId
p4458
I0
sVEncryChatRoomId
p4459
g52
sVAttrStatus
p4460
I0
sVStatues
p4461
I0
stp4462
Rp4463
I1
bag34
(g3276
g39
(dp4464
VUserName
p4465
V@07c28b863ef369f5b20291930bcf92e6
p4466
sVCity
p4467
V\u5e7f\u5dde
p4468
sVSnsFlag
p4469
I0
sVDisplayName
p4470
g52
sVUniFriend
p4471
I0
sVMemberCount
p4472
I0
sVOwnerUin
p4473
I0
sVMemberList
p4474
g50
sVAlias
p4475
g52
sVPYQuanPin
p4476
Vbaishigaolianmeng
p4477
sVSignature
p4478
V\u67cf\u58eb\u9ad8\u8054\u76df\uff0c\u6709\u89c6\u89c9\u7684\u5546\u4e1a\u6a21\u5f0f\u65b0\u751f\u4ee3\u8d44\u8baf\u4ea4\u6d41\u5e73\u53f0
p4479
sVRemarkPYInitial
p4480
g52
sVContactFlag
p4481
I1
sVUin
p4482
I0
sVNickName
p4483
V\u67cf\u58eb\u9ad8\u8054\u76df
p4484
sVAppAccountFlag
p4485
I0
sVVerifyFlag
p4486
I24
sVRemarkPYQuanPin
p4487
g52
sVHeadImgUrl
p4488
V/cgi-bin/mmwebwx-bin/webwxgeticon?seq=668500119&username=@07c28b863ef369f5b20291930bcf92e6&skey=@crypt_6353e9d_ed7032495f5dca64485fdcf3d0e02a2f
p4489
sVKeyWord
p4490
Vgh_
p4491
sVProvince
p4492
V\u5e7f\u4e1c
p4493
sVPYInitial
p4494
VBSGLM
p4495
sVRemarkName
p4496
g52
sVIsOwner
p4497
I0
sVSex
p4498
I0
sVStarFriend
p4499
I0
sVHideInputBarFlag
p4500
I0
sVChatRoomId
p4501
I0
sVEncryChatRoomId
p4502
g52
sVAttrStatus
p4503
I0
sVStatues
p4504
I0
stp4505
Rp4506
I1
bag34
(g3276
g39
(dp4507
VUserName
p4508
V@26d0638c2f6c4843e42e18f942732706
p4509
sVCity
p4510
g52
sVSnsFlag
p4511
I0
sVDisplayName
p4512
g52
sVUniFriend
p4513
I0
sVMemberCount
p4514
I0
sVOwnerUin
p4515
I0
sVMemberList
p4516
g50
sVAlias
p4517
g52
sVPYQuanPin
p4518
Vnajingdiruanruanjian
p4519
sVSignature
p4520
V\u5357\u4eac\u8fea\u8f6f\u662f\u96c6\u8f6f\u786c\u4ef6\u7814\u53d1\u3001\u4ea7\u54c1\u5b9a\u5236\u3001\u7cfb\u7edf\u96c6\u6210\u3001\u9500\u552e\u670d\u52a1\u4e3a\u4e00\u4f53\u7684\u9ad8\u65b0\u6280\u672f\u516c\u53f8\u3002\u4e3a\u5ba2\u6237\u63d0\u4f9b\u9ad8\u7aef\u8f6f\u786c\u4ef6\u3001\u865a\u62df\u73b0\u5b9e\u3001\u5927\u6570\u636e\u7b49\u4e3b\u6d41\u65b9\u5411\u7684\u89e3\u51b3\u65b9\u6848\u3001\u4ea7\u54c1\u548c\u670d\u52a1\u3002\u63d0\u4f9b\u5404\u7c7b\u7f51\u7edc\u8bbe\u5907\u3001\u5b8c\u6574\u7684\u7cfb\u7edf\u96c6\u6210\u65b9\u6848\u53ca\u5168\u65b9\u4f4d\u7684\u6280\u672f\u652f\u6301\u3001\u6280\u672f\u54a8\u8be2\u53ca\u6280\u672f\u670d\u52a1\u3002
p4521
sVRemarkPYInitial
p4522
g52
sVContactFlag
p4523
I3
sVUin
p4524
I0
sVNickName
p4525
V\u5357\u4eac\u8fea\u8f6f\u8f6f\u4ef6
p4526
sVAppAccountFlag
p4527
I0
sVVerifyFlag
p4528
I8
sVRemarkPYQuanPin
p4529
g52
sVHeadImgUrl
p4530
V/cgi-bin/mmwebwx-bin/webwxgeticon?seq=668500142&username=@26d0638c2f6c4843e42e18f942732706&skey=@crypt_6353e9d_ed7032495f5dca64485fdcf3d0e02a2f
p4531
sVKeyWord
p4532
Vgh_
p4533
sVProvince
p4534
V\u6c5f\u82cf
p4535
sVPYInitial
p4536
VNJDRRJ
p4537
sVRemarkName
p4538
g52
sVIsOwner
p4539
I0
sVSex
p4540
I0
sVStarFriend
p4541
I0
sVHideInputBarFlag
p4542
I0
sVChatRoomId
p4543
I0
sVEncryChatRoomId
p4544
g52
sVAttrStatus
p4545
I0
sVStatues
p4546
I0
stp4547
Rp4548
I1
bag34
(g3276
g39
(dp4549
VUserName
p4550
V@f574931c9caeb0a9b764d1d40d6cf5ee
p4551
sVCity
p4552
V\u671d\u9633
p4553
sVSnsFlag
p4554
I0
sVDisplayName
p4555
g52
sVUniFriend
p4556
I0
sVMemberCount
p4557
I0
sVOwnerUin
p4558
I0
sVMemberList
p4559
g50
sVAlias
p4560
g52
sVPYQuanPin
p4561
VDeepTechshenkeji
p4562
sVSignature
p4563
V\u201cDeepTech\u6df1\u79d1\u6280\u201d\u662f\u4e0e\u9ebb\u7701\u7406\u5de5\u79d1\u6280\u8bc4\u8bba\u5b98\u65b9\u72ec\u5bb6\u5408\u4f5c\u7684\u4e00\u4e2a\u65b0\u79d1\u6280\u5185\u5bb9\u54c1\u724c\u3002\u6211\u4eec\u4e13\u6ce8\u4e8e\u5173\u6ce8\u4e09\u4e2a\u65b9\u9762\uff1a1\u3001\u57fa\u4e8e\u79d1\u5b66\u7684\u53d1\u73b0\uff1b2\u3001\u771f\u6b63\u7684\u79d1\u6280\u521b\u65b0\uff1b3\u3001\u6df1\u79d1\u6280\u5e94\u7528\u7684\u521b\u65b0\u3002
p4564
sVRemarkPYInitial
p4565
g52
sVContactFlag
p4566
I3
sVUin
p4567
I0
sVNickName
p4568
VDeepTech\u6df1\u79d1\u6280
p4569
sVAppAccountFlag
p4570
I0
sVVerifyFlag
p4571
I24
sVRemarkPYQuanPin
p4572
g52
sVHeadImgUrl
p4573
V/cgi-bin/mmwebwx-bin/webwxgeticon?seq=668502040&username=@f574931c9caeb0a9b764d1d40d6cf5ee&skey=@crypt_6353e9d_ed7032495f5dca64485fdcf3d0e02a2f
p4574
sVKeyWord
p4575
Vgh_
p4576
sVProvince
p4577
V\u5317\u4eac
p4578
sVPYInitial
p4579
VDEEPTECHSKJ
p4580
sVRemarkName
p4581
g52
sVIsOwner
p4582
I0
sVSex
p4583
I0
sVStarFriend
p4584
I0
sVHideInputBarFlag
p4585
I0
sVChatRoomId
p4586
I0
sVEncryChatRoomId
p4587
g52
sVAttrStatus
p4588
I0
sVStatues
p4589
I0
stp4590
Rp4591
I1
bag34
(g3276
g39
(dp4592
VUserName
p4593
V@ce8b8e552ceb8bd402e40e0675ab5177
p4594
sVCity
p4595
V\u666e\u9640
p4596
sVSnsFlag
p4597
I0
sVDisplayName
p4598
g52
sVUniFriend
p4599
I0
sVMemberCount
p4600
I0
sVOwnerUin
p4601
I0
sVMemberList
p4602
g50
sVAlias
p4603
g52
sVPYQuanPin
p4604
Vshenbizhuangbiren
p4605
sVSignature
p4606
V\u53d1\u653e\u6700\u65b0\u6700\u706b\u7684\u89c6\u9891\u798f\u5229
p4607
sVRemarkPYInitial
p4608
g52
sVContactFlag
p4609
I1
sVUin
p4610
I0
sVNickName
p4611
V\u795e\u79d8\u88c5\u903c\u4eba
p4612
sVAppAccountFlag
p4613
I0
sVVerifyFlag
p4614
I8
sVRemarkPYQuanPin
p4615
g52
sVHeadImgUrl
p4616
V/cgi-bin/mmwebwx-bin/webwxgeticon?seq=668510068&username=@ce8b8e552ceb8bd402e40e0675ab5177&skey=@crypt_6353e9d_ed7032495f5dca64485fdcf3d0e02a2f
p4617
sVKeyWord
p4618
Vgh_
p4619
sVProvince
p4620
V\u4e0a\u6d77
p4621
sVPYInitial
p4622
VSBZBR
p4623
sVRemarkName
p4624
g52
sVIsOwner
p4625
I0
sVSex
p4626
I0
sVStarFriend
p4627
I0
sVHideInputBarFlag
p4628
I0
sVChatRoomId
p4629
I0
sVEncryChatRoomId
p4630
g52
sVAttrStatus
p4631
I0
sVStatues
p4632
I0
stp4633
Rp4634
I1
bag34
(g3276
g39
(dp4635
VUserName
p4636
V@8bce1456e54cb29c1fdc986af31f5681
p4637
sVCity
p4638
V\u671d\u9633
p4639
sVSnsFlag
p4640
I0
sVDisplayName
p4641
g52
sVUniFriend
p4642
I0
sVMemberCount
p4643
I0
sVOwnerUin
p4644
I0
sVMemberList
p4645
g50
sVAlias
p4646
g52
sVPYQuanPin
p4647
Vddxxionglaile
p4648
sVSignature
p4649
V\u65e0\u8bba\u662f\u5b66\u5386\u6559\u80b2\u3001IT\u57f9\u8bad\uff0c\u8fd8\u662f\u8bed\u8a00\u57f9\u8bad\u3001\u827a\u672f\u7c7b\u57f9\u8bad\u3001\u804c\u4e1a\u6280\u80fd\u57f9\u8bad\u3001\u6d77\u5916\u7559\u5b66\u9879\u76ee\uff0c\u8d37\u8d37\u718a\u59cb\u7ec8\u79c9\u627f\u201c\u4e3a\u68a6\u60f3\u8005\u70b9\u4eae\u672a\u6765\u201d\u7684\u5b97\u65e8\uff0c\u6839\u636e\u6559\u80b2\u57f9\u8bad\u673a\u6784\u7684\u7279\u70b9\uff0c\u7ed3\u5408\u5b66\u751f\u7684\u5177\u4f53\u9700\u6c42\uff0c\u91cf\u8eab\u5b9a\u505a\u4e0d\u540c\u7684\u89e3\u51b3\u65b9\u6848\uff0c\u4f7f\u5b66\u751f\u53ef\u4ee5\u8f7b\u677e\u901a\u8fc7\u5206\u671f\u4ed8\u6b3e\u6765\u5b8c\u6210\u5b66\u4e1a\u3002
p4650
sVRemarkPYInitial
p4651
g52
sVContactFlag
p4652
I3
sVUin
p4653
I0
sVNickName
p4654
Vddx\u718a\u6765\u4e86
p4655
sVAppAccountFlag
p4656
I0
sVVerifyFlag
p4657
I24
sVRemarkPYQuanPin
p4658
g52
sVHeadImgUrl
p4659
V/cgi-bin/mmwebwx-bin/webwxgeticon?seq=656870811&username=@8bce1456e54cb29c1fdc986af31f5681&skey=@crypt_6353e9d_ed7032495f5dca64485fdcf3d0e02a2f
p4660
sVKeyWord
p4661
Vgh_
p4662
sVProvince
p4663
V\u5317\u4eac
p4664
sVPYInitial
p4665
VDDXXLL
p4666
sVRemarkName
p4667
g52
sVIsOwner
p4668
I0
sVSex
p4669
I0
sVStarFriend
p4670
I0
sVHideInputBarFlag
p4671
I0
sVChatRoomId
p4672
I0
sVEncryChatRoomId
p4673
g52
sVAttrStatus
p4674
I0
sVStatues
p4675
I0
stp4676
Rp4677
I1
bag34
(g3276
g39
(dp4678
VUserName
p4679
V@50ab3b917e0aac96ad7c4b3f8fc1d8c7
p4680
sVCity
p4681
V\u95f5\u884c
p4682
sVSnsFlag
p4683
I0
sVDisplayName
p4684
g52
sVUniFriend
p4685
I0
sVMemberCount
p4686
I0
sVOwnerUin
p4687
I0
sVMemberList
p4688
g50
sVAlias
p4689
g52
sVPYQuanPin
p4690
Velemewangshangdingcan
p4691
sVSignature
p4692
V\u997f\u4e86\u4e48\uff08http://ele.me\uff09\uff0c\u4e13\u4e1a\u7684\u5916\u5356\u8ba2\u9910\u7f51\u7ad9\uff0c\u6c47\u96c6\u5468\u8fb9\u7f8e\u98df\u5916\u5356\uff0c\u4e09\u952e\u4e0b\u5355\u65b9\u4fbf\u5feb\u6377\u3002\u670d\u52a1\u53f7\u76f4\u63a5\u4e0b\u5355\uff0c\u652f\u6301\u8d27\u5230\u4ed8\u6b3e\uff01
p4693
sVRemarkPYInitial
p4694
g52
sVContactFlag
p4695
I3
sVUin
p4696
I0
sVNickName
p4697
V\u997f\u4e86\u4e48\u7f51\u4e0a\u8ba2\u9910
p4698
sVAppAccountFlag
p4699
I0
sVVerifyFlag
p4700
I24
sVRemarkPYQuanPin
p4701
g52
sVHeadImgUrl
p4702
V/cgi-bin/mmwebwx-bin/webwxgeticon?seq=654290538&username=@50ab3b917e0aac96ad7c4b3f8fc1d8c7&skey=@crypt_6353e9d_ed7032495f5dca64485fdcf3d0e02a2f
p4703
sVKeyWord
p4704
Vgh_
p4705
sVProvince
p4706
V\u4e0a\u6d77
p4707
sVPYInitial
p4708
VELMWSDC
p4709
sVRemarkName
p4710
g52
sVIsOwner
p4711
I0
sVSex
p4712
I0
sVStarFriend
p4713
I0
sVHideInputBarFlag
p4714
I0
sVChatRoomId
p4715
I0
sVEncryChatRoomId
p4716
g52
sVAttrStatus
p4717
I0
sVStatues
p4718
I0
stp4719
Rp4720
I1
bag34
(g3276
g39
(dp4721
VUserName
p4722
V@8ba0717f130567d829b4b5e40aec95d0
p4723
sVCity
p4724
V\u671d\u9633
p4725
sVSnsFlag
p4726
I0
sVDisplayName
p4727
g52
sVUniFriend
p4728
I0
sVMemberCount
p4729
I0
sVOwnerUin
p4730
I0
sVMemberList
p4731
g50
sVAlias
p4732
g52
sVPYQuanPin
p4733
Vyoubao
p4734
sVSignature
p4735
V\u53cb\u5b9dUbox\u662f\u5168\u7403\u552f\u4e00\u7684\u4e92\u52a8\u578b\u81ea\u52a9\u552e\u8d27\u673a\uff0c\u901a\u8fc7\u53cb\u5b9d\u624b\u673a\u5ba2\u6237\u7aef\u53ef\u5728\u552e\u8d27\u673a\u4e0a\u8d2d\u4e70\u996e\u6599\u3001\u96f6\u98df\u3001\u5feb\u9910\uff0c\u83b7\u5f97\u4f60\u7684\u4e13\u5c5e\u4fbf\u5229\u3001\u4e13\u5c5e\u7279\u6743\u3001\u4e13\u5c5e\u4f18\u60e0\u3002
p4736
sVRemarkPYInitial
p4737
g52
sVContactFlag
p4738
I3
sVUin
p4739
I0
sVNickName
p4740
V\u53cb\u5b9d
p4741
sVAppAccountFlag
p4742
I0
sVVerifyFlag
p4743
I24
sVRemarkPYQuanPin
p4744
g52
sVHeadImgUrl
p4745
V/cgi-bin/mmwebwx-bin/webwxgeticon?seq=654291338&username=@8ba0717f130567d829b4b5e40aec95d0&skey=@crypt_6353e9d_ed7032495f5dca64485fdcf3d0e02a2f
p4746
sVKeyWord
p4747
Vgh_
p4748
sVProvince
p4749
V\u5317\u4eac
p4750
sVPYInitial
p4751
VYB
p4752
sVRemarkName
p4753
g52
sVIsOwner
p4754
I0
sVSex
p4755
I0
sVStarFriend
p4756
I0
sVHideInputBarFlag
p4757
I0
sVChatRoomId
p4758
I0
sVEncryChatRoomId
p4759
g52
sVAttrStatus
p4760
I4
sVStatues
p4761
I0
stp4762
Rp4763
I1
bag34
(g3276
g39
(dp4764
VUserName
p4765
V@781b3e483344b76b8a2d200b1b942419
p4766
sVCity
p4767
g52
sVSnsFlag
p4768
I0
sVDisplayName
p4769
g52
sVUniFriend
p4770
I0
sVMemberCount
p4771
I0
sVOwnerUin
p4772
I0
sVMemberList
p4773
g50
sVAlias
p4774
g52
sVPYQuanPin
p4775
Vmeituanwaimai
p4776
sVSignature
p4777
V\u9001\u4e0a\u95e8\u7684\u7f8e\u597d\u751f\u6d3b\u3002
p4778
sVRemarkPYInitial
p4779
g52
sVContactFlag
p4780
I3
sVUin
p4781
I0
sVNickName
p4782
V\u7f8e\u56e2\u5916\u5356
p4783
sVAppAccountFlag
p4784
I0
sVVerifyFlag
p4785
I24
sVRemarkPYQuanPin
p4786
g52
sVHeadImgUrl
p4787
V/cgi-bin/mmwebwx-bin/webwxgeticon?seq=654290526&username=@781b3e483344b76b8a2d200b1b942419&skey=@crypt_6353e9d_ed7032495f5dca64485fdcf3d0e02a2f
p4788
sVKeyWord
p4789
Vgh_
p4790
sVProvince
p4791
V\u5317\u4eac
p4792
sVPYInitial
p4793
VMTWM
p4794
sVRemarkName
p4795
g52
sVIsOwner
p4796
I0
sVSex
p4797
I0
sVStarFriend
p4798
I0
sVHideInputBarFlag
p4799
I0
sVChatRoomId
p4800
I0
sVEncryChatRoomId
p4801
g52
sVAttrStatus
p4802
I0
sVStatues
p4803
I0
stp4804
Rp4805
I1
bag34
(g3276
g39
(dp4806
VUserName
p4807
V@4c58f0fbfdd4cf48146e89ed9b3be3a4
p4808
sVCity
p4809
V\u5357\u4eac
p4810
sVSnsFlag
p4811
I0
sVDisplayName
p4812
g52
sVUniFriend
p4813
I0
sVMemberCount
p4814
I0
sVOwnerUin
p4815
I0
sVMemberList
p4816
g50
sVAlias
p4817
g52
sVPYQuanPin
p4818
Vyunchuangdashuju
p4819
sVSignature
p4820
V\u4e91\u521b\u5927\u6570\u636e\uff08\u8bc1\u5238\u7b80\u79f0\uff1a\u4e91\u521b\u6570\u636e\uff0c\u80a1\u7968\u4ee3\u7801\uff1a835305\uff09\uff0c\u5927\u6570\u636e\u6280\u672f\u9886\u519b\u4f01\u4e1a\u3002\u63d0\u4f9b\u6027\u4ef7\u6bd4\u63d0\u5347\u5341\u500d\u7684\u8d85\u4f4e\u529f\u8017\u4e91\u5b58\u50a8\u7cfb\u7edf\u3001\u6570\u636e\u7acb\u65b9\u5927\u6570\u636e\u5e93\u3001\u8d85\u9ad8\u901f\u4e91\u4f20\u8f93\u7cfb\u7edf\u3001\u6574\u5408\u5404\u79cd\u76d1\u63a7\u7cfb\u7edf\u7684\u4e91\u89c6\u9891\u7cfb\u7edf\u3001PM2.5\u4e91\u76d1\u6d4b\u9884\u8b66\u5e73\u53f0\u7b49\u3002
p4821
sVRemarkPYInitial
p4822
g52
sVContactFlag
p4823
I3
sVUin
p4824
I0
sVNickName
p4825
V\u4e91\u521b\u5927\u6570\u636e
p4826
sVAppAccountFlag
p4827
I0
sVVerifyFlag
p4828
I24
sVRemarkPYQuanPin
p4829
g52
sVHeadImgUrl
p4830
V/cgi-bin/mmwebwx-bin/webwxgeticon?seq=668517604&username=@4c58f0fbfdd4cf48146e89ed9b3be3a4&skey=@crypt_6353e9d_ed7032495f5dca64485fdcf3d0e02a2f
p4831
sVKeyWord
p4832
Vgh_
p4833
sVProvince
p4834
V\u6c5f\u82cf
p4835
sVPYInitial
p4836
VYCDSJ
p4837
sVRemarkName
p4838
g52
sVIsOwner
p4839
I0
sVSex
p4840
I0
sVStarFriend
p4841
I0
sVHideInputBarFlag
p4842
I0
sVChatRoomId
p4843
I0
sVEncryChatRoomId
p4844
g52
sVAttrStatus
p4845
I0
sVStatues
p4846
I0
stp4847
Rp4848
I1
bag34
(g3276
g39
(dp4849
VUserName
p4850
V@d8da89f27bcd874e6416e375633cc1a7
p4851
sVCity
p4852
V\u5e7f\u5dde
p4853
sVSnsFlag
p4854
I0
sVDisplayName
p4855
g52
sVUniFriend
p4856
I0
sVMemberCount
p4857
I0
sVOwnerUin
p4858
I0
sVMemberList
p4859
g50
sVAlias
p4860
g52
sVPYQuanPin
p4861
VqianliaoLive
p4862
sVSignature
p4863
V\u70b9\u51fb\u5e95\u90e8\u201c\u5173\u6ce8\u201d\uff0c\u624d\u53ef\u53ca\u65f6\u6536\u5230\u8001\u5e08\u5e03\u7f6e\u7684\u4f5c\u4e1a\u548c\u5f00\u8bfe\u901a\u77e5\uff1b\u5343\u804a\u8bfe\u7a0b\u8986\u76d6\u5973\u6027\u6210\u957f\u3001\u5a5a\u604b\u3001\u80b2\u513f\u3001\u745c\u4f3d\u5851\u5f62\u3001\u804c\u573a\u3001\u7ecf\u8425\u7ba1\u7406\u3001\u5fc3\u7406\u7b4940\u591a\u4e2a\u7c7b\u76ee\u3002\u8fdb\u5165\u5343\u804a\uff0c\u8ddf\u4e00\u5343\u4e07\u5b66\u5458\u4e00\u8d77\u5b66\u4e60\u4e00\u8d77\u804a\u3002
p4864
sVRemarkPYInitial
p4865
g52
sVContactFlag
p4866
I3
sVUin
p4867
I0
sVNickName
p4868
V\u5343\u804aLive
p4869
sVAppAccountFlag
p4870
I0
sVVerifyFlag
p4871
I24
sVRemarkPYQuanPin
p4872
g52
sVHeadImgUrl
p4873
V/cgi-bin/mmwebwx-bin/webwxgeticon?seq=668521606&username=@d8da89f27bcd874e6416e375633cc1a7&skey=@crypt_6353e9d_ed7032495f5dca64485fdcf3d0e02a2f
p4874
sVKeyWord
p4875
Vgh_
p4876
sVProvince
p4877
V\u5e7f\u4e1c
p4878
sVPYInitial
p4879
VQLLIVE
p4880
sVRemarkName
p4881
g52
sVIsOwner
p4882
I0
sVSex
p4883
I0
sVStarFriend
p4884
I0
sVHideInputBarFlag
p4885
I0
sVChatRoomId
p4886
I0
sVEncryChatRoomId
p4887
g52
sVAttrStatus
p4888
I0
sVStatues
p4889
I0
stp4890
Rp4891
I1
bag34
(g3276
g39
(dp4892
VUserName
p4893
V@cf1f7729d164c3dec2a889d5bf73fbe3
p4894
sVCity
p4895
g52
sVSnsFlag
p4896
I0
sVDisplayName
p4897
g52
sVUniFriend
p4898
I0
sVMemberCount
p4899
I0
sVOwnerUin
p4900
I0
sVMemberList
p4901
g50
sVAlias
p4902
g52
sVPYQuanPin
p4903
Vmoshoushijie
p4904
sVSignature
p4905
V\u5173\u6ce8\u9b54\u517d\u4e16\u754c\u670d\u52a1\u53f7\uff0c\u4e3b\u52a8\u83b7\u53d6\u9b54\u517d\u4e16\u754c\u6700\u65b0\u7684\u5b98\u65b9\u8d44\u8baf\u4ee5\u53ca\u6d3b\u52a8\u4fe1\u606f\u3002
p4906
sVRemarkPYInitial
p4907
g52
sVContactFlag
p4908
I3
sVUin
p4909
I0
sVNickName
p4910
V\u9b54\u517d\u4e16\u754c
p4911
sVAppAccountFlag
p4912
I0
sVVerifyFlag
p4913
I24
sVRemarkPYQuanPin
p4914
g52
sVHeadImgUrl
p4915
V/cgi-bin/mmwebwx-bin/webwxgeticon?seq=621170370&username=@cf1f7729d164c3dec2a889d5bf73fbe3&skey=@crypt_6353e9d_ed7032495f5dca64485fdcf3d0e02a2f
p4916
sVKeyWord
p4917
Vgh_
p4918
sVProvince
p4919
V\u4e0a\u6d77
p4920
sVPYInitial
p4921
VMSSJ
p4922
sVRemarkName
p4923
g52
sVIsOwner
p4924
I0
sVSex
p4925
I0
sVStarFriend
p4926
I0
sVHideInputBarFlag
p4927
I0
sVChatRoomId
p4928
I0
sVEncryChatRoomId
p4929
g52
sVAttrStatus
p4930
I0
sVStatues
p4931
I0
stp4932
Rp4933
I1
bag34
(g3276
g39
(dp4934
VUserName
p4935
V@feb5eeaaead2f851f83bdf8d7be3c665
p4936
sVCity
p4937
V\u5357\u4eac
p4938
sVSnsFlag
p4939
I0
sVDisplayName
p4940
g52
sVUniFriend
p4941
I0
sVMemberCount
p4942
I0
sVOwnerUin
p4943
I0
sVMemberList
p4944
g50
sVAlias
p4945
g52
sVPYQuanPin
p4946
Vyinchengqianwanjian
p4947
sVSignature
p4948
V\u5357\u4eac\u9996\u5bb6\u8d44\u4ea7\u7ba1\u7406\uff0c\u957f\u79df\u5e73\u53f0\u3002\uff08\u6c38\u4e45\u514d\u4e2d\u4ecb\u8d39\uff09
p4949
sVRemarkPYInitial
p4950
g52
sVContactFlag
p4951
I3
sVUin
p4952
I0
sVNickName
p4953
V\u94f6\u57ce\u5343\u4e07\u95f4
p4954
sVAppAccountFlag
p4955
I0
sVVerifyFlag
p4956
I24
sVRemarkPYQuanPin
p4957
g52
sVHeadImgUrl
p4958
V/cgi-bin/mmwebwx-bin/webwxgeticon?seq=668529949&username=@feb5eeaaead2f851f83bdf8d7be3c665&skey=@crypt_6353e9d_ed7032495f5dca64485fdcf3d0e02a2f
p4959
sVKeyWord
p4960
Vgh_
p4961
sVProvince
p4962
V\u6c5f\u82cf
p4963
sVPYInitial
p4964
VYCQWJ
p4965
sVRemarkName
p4966
g52
sVIsOwner
p4967
I0
sVSex
p4968
I0
sVStarFriend
p4969
I0
sVHideInputBarFlag
p4970
I0
sVChatRoomId
p4971
I0
sVEncryChatRoomId
p4972
g52
sVAttrStatus
p4973
I0
sVStatues
p4974
I0
stp4975
Rp4976
I1
bag34
(g3276
g39
(dp4977
VUserName
p4978
V@a9ec80b06c8c24400872fa70588568c0
p4979
sVCity
p4980
g52
sVSnsFlag
p4981
I0
sVDisplayName
p4982
g52
sVUniFriend
p4983
I0
sVMemberCount
p4984
I0
sVOwnerUin
p4985
I0
sVMemberList
p4986
g50
sVAlias
p4987
g52
sVPYQuanPin
p4988
VbotaohuiWeHotel
p4989
sVSignature
p4990
V\u94c2\u6d9b\u65c5\u884c\u4f5c\u4e3a\u4e2d\u56fd\u9152\u5e97\u4e1a\u6700\u5927\u5b98\u65b9\u76f4\u9500\u5e73\u53f0\uff0c\u73b0\u5df2\u6b63\u5f0f\u52a0\u5165WeHotel\u4f53\u7cfb\u3002\u4f1a\u5458\u9884\u8ba2\u4ecd\u4eab\u53d7\u5b98\u65b9\u76f4\u9500\u4ef7\u683c\uff0c\u8986\u76d67\u5929\u3001\u9e97\u67ab\u3001\u9526\u6c5f\u4e4b\u661f\u3001\u7ef4\u4e5f\u7eb3\u7b49\u5168\u740323\u4e2a\u54c1\u724c\u8d855000\u5bb6\u9152\u5e97\u3002\u6b64\u5916\uff0c\u8fd8\u53ef\u9884\u8ba2\u666f\u533a\u95e8\u7968\u3001\u6c11\u5bbf\u548c\u516c\u5bd3\u7b49\u4ea7\u54c1\uff0c\u5e76\u4eab\u53d7\u4f1a\u5458\u6298\u6263\u3001\u79ef\u5206\u548c\u6743\u76ca\uff01
p4991
sVRemarkPYInitial
p4992
g52
sVContactFlag
p4993
I3
sVUin
p4994
I0
sVNickName
p4995
V\u94c2\u6d9b\u4f1aWeHotel
p4996
sVAppAccountFlag
p4997
I0
sVVerifyFlag
p4998
I24
sVRemarkPYQuanPin
p4999
g52
sVHeadImgUrl
p5000
V/cgi-bin/mmwebwx-bin/webwxgeticon?seq=668530063&username=@a9ec80b06c8c24400872fa70588568c0&skey=@crypt_6353e9d_ed7032495f5dca64485fdcf3d0e02a2f
p5001
sVKeyWord
p5002
Vgh_
p5003
sVProvince
p5004
V\u5e7f\u4e1c
p5005
sVPYInitial
p5006
VBTHWEHOTEL
p5007
sVRemarkName
p5008
g52
sVIsOwner
p5009
I0
sVSex
p5010
I0
sVStarFriend
p5011
I0
sVHideInputBarFlag
p5012
I0
sVChatRoomId
p5013
I0
sVEncryChatRoomId
p5014
g52
sVAttrStatus
p5015
I0
sVStatues
p5016
I0
stp5017
Rp5018
I1
bag34
(g3276
g39
(dp5019
VUserName
p5020
V@b1c026dc945ed8545cfa59e6ef9ade12
p5021
sVCity
p5022
V\u626c\u5dde
p5023
sVSnsFlag
p5024
I0
sVDisplayName
p5025
g52
sVUniFriend
p5026
I0
sVMemberCount
p5027
I0
sVOwnerUin
p5028
I0
sVMemberList
p5029
g50
sVAlias
p5030
g52
sVPYQuanPin
p5031
Vyinxiangmingchengfuwuhao
p5032
sVSignature
p5033
V\u901a\u8fc7\u5c0f\u7a0b\u5e8f\u4e8c\u7ef4\u7801\u628a\u4eba\u4e0e\u57ce\u5e02\u8fde\u63a5\u8d77\u6765\uff0c\u79fb\u52a8\u4e92\u8054\u7f51\u5c55\u73b0\u57ce\u5e02\u98ce\u8c8c\u3001\u4f53\u73b0\u57ce\u5e02\u6d3b\u529b\u3001\u5bfb\u89c5\u57ce\u5e02\u5386\u53f2\u3001\u6316\u6398\u57ce\u5e02\u7075\u9b42\u3001\u4e86\u89e3\u57ce\u5e02\u6027\u683c\u3001\u4f20\u64ad\u54c1\u724c\u5370\u8c61\u540d\u57ce\u3002\u597d\u5370\u8c61\u81ea\u6709\u5927\u5f71\u54cd\uff01
p5034
sVRemarkPYInitial
p5035
g52
sVContactFlag
p5036
I3
sVUin
p5037
I0
sVNickName
p5038
V\u5370\u8c61\u540d\u57ce\u670d\u52a1\u53f7
p5039
sVAppAccountFlag
p5040
I0
sVVerifyFlag
p5041
I24
sVRemarkPYQuanPin
p5042
g52
sVHeadImgUrl
p5043
V/cgi-bin/mmwebwx-bin/webwxgeticon?seq=668527510&username=@b1c026dc945ed8545cfa59e6ef9ade12&skey=@crypt_6353e9d_ed7032495f5dca64485fdcf3d0e02a2f
p5044
sVKeyWord
p5045
Vgh_
p5046
sVProvince
p5047
V\u6c5f\u82cf
p5048
sVPYInitial
p5049
VYXMCFWH
p5050
sVRemarkName
p5051
g52
sVIsOwner
p5052
I0
sVSex
p5053
I0
sVStarFriend
p5054
I0
sVHideInputBarFlag
p5055
I0
sVChatRoomId
p5056
I0
sVEncryChatRoomId
p5057
g52
sVAttrStatus
p5058
I0
sVStatues
p5059
I0
stp5060
Rp5061
I1
bag34
(g3276
g39
(dp5062
VUserName
p5063
V@c109986a2353349ed82b7bb4c43d13fb
p5064
sVCity
p5065
V\u4fe1\u9633
p5066
sVSnsFlag
p5067
I0
sVDisplayName
p5068
g52
sVUniFriend
p5069
I0
sVMemberCount
p5070
I0
sVOwnerUin
p5071
I0
sVMemberList
p5072
g50
sVAlias
p5073
g52
sVPYQuanPin
p5074
Vgaoxiaogongzhu
p5075
sVSignature
p5076
V\u6bcf\u5929\uff0c\u90fd\u662f\u5feb\u4e50\u7684\u5f00\u59cb\uff01\u641e\u7b11\u516c\u4e3b\uff0c\u8ba9\u4f60\u6bcf\u5929\u7b11\u4e0d\u505c\uff01
p5077
sVRemarkPYInitial
p5078
g52
sVContactFlag
p5079
I3
sVUin
p5080
I0
sVNickName
p5081
V\u641e\u7b11\u516c\u4e3b
p5082
sVAppAccountFlag
p5083
I0
sVVerifyFlag
p5084
I8
sVRemarkPYQuanPin
p5085
g52
sVHeadImgUrl
p5086
V/cgi-bin/mmwebwx-bin/webwxgeticon?seq=668540952&username=@c109986a2353349ed82b7bb4c43d13fb&skey=@crypt_6353e9d_ed7032495f5dca64485fdcf3d0e02a2f
p5087
sVKeyWord
p5088
Vgh_
p5089
sVProvince
p5090
V\u6cb3\u5357
p5091
sVPYInitial
p5092
VGXGZ
p5093
sVRemarkName
p5094
g52
sVIsOwner
p5095
I0
sVSex
p5096
I0
sVStarFriend
p5097
I0
sVHideInputBarFlag
p5098
I0
sVChatRoomId
p5099
I0
sVEncryChatRoomId
p5100
g52
sVAttrStatus
p5101
I0
sVStatues
p5102
I0
stp5103
Rp5104
I1
bag34
(g3276
g39
(dp5105
VUserName
p5106
V@60d425c45fecd14be7272fc4f8595c71
p5107
sVCity
p5108
V\u6d66\u4e1c\u65b0\u533a
p5109
sVSnsFlag
p5110
I0
sVDisplayName
p5111
g52
sVUniFriend
p5112
I0
sVMemberCount
p5113
I0
sVOwnerUin
p5114
I0
sVMemberList
p5115
g50
sVAlias
p5116
g52
sVPYQuanPin
p5117
Vjiangnacangshuguan
p5118
sVSignature
p5119
V\u6d77\u91cf\u56fe\u4e66 \u514d\u8d39\u9605\u8bfb
p5120
sVRemarkPYInitial
p5121
g52
sVContactFlag
p5122
I3
sVUin
p5123
I0
sVNickName
p5124
V\u6c5f\u5357\u85cf\u4e66\u9986
p5125
sVAppAccountFlag
p5126
I0
sVVerifyFlag
p5127
I24
sVRemarkPYQuanPin
p5128
g52
sVHeadImgUrl
p5129
V/cgi-bin/mmwebwx-bin/webwxgeticon?seq=668541044&username=@60d425c45fecd14be7272fc4f8595c71&skey=@crypt_6353e9d_ed7032495f5dca64485fdcf3d0e02a2f
p5130
sVKeyWord
p5131
Vgh_
p5132
sVProvince
p5133
V\u4e0a\u6d77
p5134
sVPYInitial
p5135
VJNCSG
p5136
sVRemarkName
p5137
g52
sVIsOwner
p5138
I0
sVSex
p5139
I0
sVStarFriend
p5140
I0
sVHideInputBarFlag
p5141
I0
sVChatRoomId
p5142
I0
sVEncryChatRoomId
p5143
g52
sVAttrStatus
p5144
I0
sVStatues
p5145
I0
stp5146
Rp5147
I1
bag34
(g3276
g39
(dp5148
VUserName
p5149
V@2ba16b73e1dcfc50bb75e3abb2fa06bc
p5150
sVCity
p5151
V\u6df1\u5733
p5152
sVSnsFlag
p5153
I0
sVDisplayName
p5154
g52
sVUniFriend
p5155
I0
sVMemberCount
p5156
I0
sVOwnerUin
p5157
I0
sVMemberList
p5158
g50
sVAlias
p5159
g52
sVPYQuanPin
p5160
Vtengxunyingmeiju
p5161
sVSignature
p5162
V\u6700\u6f6e\u6d41\u7684\u82f1\u7f8e\u5267\u8ffd\u5267\u6307\u5357
p5163
sVRemarkPYInitial
p5164
g52
sVContactFlag
p5165
I1
sVUin
p5166
I0
sVNickName
p5167
V\u817e\u8baf\u82f1\u7f8e\u5267
p5168
sVAppAccountFlag
p5169
I0
sVVerifyFlag
p5170
I24
sVRemarkPYQuanPin
p5171
g52
sVHeadImgUrl
p5172
V/cgi-bin/mmwebwx-bin/webwxgeticon?seq=668542168&username=@2ba16b73e1dcfc50bb75e3abb2fa06bc&skey=@crypt_6353e9d_ed7032495f5dca64485fdcf3d0e02a2f
p5173
sVKeyWord
p5174
Vgh_
p5175
sVProvince
p5176
V\u5e7f\u4e1c
p5177
sVPYInitial
p5178
VTXYMJ
p5179
sVRemarkName
p5180
g52
sVIsOwner
p5181
I0
sVSex
p5182
I0
sVStarFriend
p5183
I0
sVHideInputBarFlag
p5184
I0
sVChatRoomId
p5185
I0
sVEncryChatRoomId
p5186
g52
sVAttrStatus
p5187
I0
sVStatues
p5188
I0
stp5189
Rp5190
I1
batp5191
Rp5192
I1
bssS'loginInfo'
p5193
(dp5194
S'SyncKey'
p5195
(dp5196
VCount
p5197
I4
sVList
p5198
(lp5199
(dp5200
VVal
p5201
I668545702
sVKey
p5202
I1
sa(dp5203
VVal
p5204
I668547851
sVKey
p5205
I2
sa(dp5206
VVal
p5207
I668547582
sVKey
p5208
I3
sa(dp5209
VVal
p5210
I1502101802
sVKey
p5211
I1000
sassS'syncUrl'
p5212
S'https://webpush.wx.qq.com/cgi-bin/mmwebwx-bin'
p5213
sS'skey'
p5214
V@crypt_6353e9d_ed7032495f5dca64485fdcf3d0e02a2f
p5215
sS'wxuin'
p5216
V1610532702
p5217
sS'synckey'
p5218
S'1_668545702|2_668547851|3_668547582|1000_1502101802'
p5219
sS'url'
p5220
Vhttps://wx.qq.com/cgi-bin/mmwebwx-bin
p5221
sS'pass_ticket'
p5222
Vks2WImVX05pN%2BPnhSvz9C0KBrnsz21dQojwW1AmVHXVd1j5y7du3ZUEINVcQF1z7
p5223
sS'wxsid'
p5224
VUhEONWz9WVGzA1Ff
p5225
sS'InviteStartCount'
p5226
I40
sS'User'
p5227
g34
(g38
g39
(dp5228
g41
g31
sg42
g43
sg44
g43
sg45
I0
sg47
g50
sg51
g52
sg53
g52
sg78
I1
sg55
I0
sg56
I0
sg57
g43
sg58
g43
sg59
g52
sg60
g52
sg61
I0
sg62
I0
sg63
I1
sg64
g43
sg65
I0
sg68
I0
sg66
I17
sg67
I0
sg46
I0
sg69
g43
sg70
g71
sg72
I0
sg73
g74
sg75
g52
sg76
g77
sg54
I1610532702
sg79
I0
sg80
I0
stp5229
Rp5230
I1
bsS'fileUrl'
p5231
S'https://file.wx.qq.com/cgi-bin/mmwebwx-bin'
p5232
sS'BaseRequest'
p5233
(dp5234
g54
g5217
sS'Skey'
p5235
g5215
sS'DeviceID'
p5236
g5223
sS'Sid'
p5237
g5225
ssS'deviceid'
p5238
S'e408143304932253'
p5239
ss.