(dp0
S'cookies'
p1
(dp2
S'wxloadtime'
p3
S'1502017917'
p4
sS'webwx_data_ticket'
p5
S'gScsIlL18Fyi2dLu98QV7gDK'
p6
sS'wxuin'
p7
S'1610532702'
p8
sS'login_frequency'
p9
S'2'
p10
sS'MM_WX_NOTIFY_STATE'
p11
S'1'
p12
sS'MM_WX_SOUND_STATE'
p13
g12
sS'webwx_auth_ticket'
p14
S'CIsBEMORkMIGGoABHI1p4TrdBMO9m1Yj4fGTVQJoPYLb3Y0hZZ7eVWGN1+cjigdKetoLNRutv+qtO1VgmarK4ZO6mIAruZ5XmvAYKmKQcu9ulWl2IoLK9DXLijmhhREGcS3w36t/SQnYpgbCiZZ0mmHsO8n854jwTQoPJsC0enk8ne3xR9wfsTlaxlw='
p15
sS'last_wxuin'
p16
S'1610532702'
p17
sS'webwxuvid'
p18
S'86997a1464e6532aca1336b3009712aad126f4438a7b6779c948af0522f6ac6557ce21e4abe8f13bf01974a89a904e12'
p19
sS'wxpluginkey'
p20
S'1502008343'
p21
sS'wxsid'
p22
S'CzmKsScsPWuVTsZ9'
p23
sS'mm_lang'
p24
S'zh_CN'
p25
ssS'version'
p26
S'1.3.9'
p27
sS'storage'
p28
(dp29
S'userName'
p30
V@0b5aad8312e1e30ee6e8baa571d4ee5d9c33308884ae0430d86845a096e71e8f
p31
sS'lastInputUserName'
p32
NsS'memberList'
p33
ccopy_reg
_reconstructor
p34
(citchat.storage.templates
ContactList
p35
c__builtin__
list
p36
(lp37
g34
(citchat.storage.templates
User
p38
c__builtin__
dict
p39
(dp40
S'UserName'
p41
g31
sS'City'
p42
S''
p43
sS'DisplayName'
p44
g43
sS'UniFriend'
p45
I0
sS'OwnerUin'
p46
I0
sS'MemberList'
p47
g34
(g35
g36
(lp48
tp49
Rp50
I1
bsS'PYQuanPin'
p51
V
p52
sS'RemarkPYInitial'
p53
g52
sS'Uin'
p54
I1610532702
sS'AppAccountFlag'
p55
I0
sS'VerifyFlag'
p56
I0
sS'Province'
p57
g43
sS'KeyWord'
p58
g43
sS'RemarkName'
p59
g52
sS'PYInitial'
p60
g52
sS'ChatRoomId'
p61
I0
sS'HideInputBarFlag'
p62
I0
sVHeadImgFlag
p63
I1
sS'EncryChatRoomId'
p64
g43
sS'AttrStatus'
p65
I0
sS'SnsFlag'
p66
I17
sS'MemberCount'
p67
I0
sVWebWxPluginSwitch
p68
I0
sS'Alias'
p69
g43
sS'Signature'
p70
V\u989d\u989d\uff1f
p71
sS'ContactFlag'
p72
I0
sS'NickName'
p73
V\u5218\u9756
p74
sS'RemarkPYQuanPin'
p75
g52
sS'HeadImgUrl'
p76
V/cgi-bin/mmwebwx-bin/webwxgeticon?seq=361040517&username=@0b5aad8312e1e30ee6e8baa571d4ee5d9c33308884ae0430d86845a096e71e8f&skey=@crypt_6353e9d_531dc18c4e3ced3b7be79e57ad71caa4
p77
sS'Sex'
p78
I1
sS'StarFriend'
p79
I0
sS'Statues'
p80
I0
stp81
Rp82
I1
bag34
(g38
g39
(dp83
VUserName
p84
V@6714e257247946db4f8329a8c29d1840b98aa0ad23db771d16784e31a689ddfa
p85
sVCity
p86
V\u5b89\u5e86
p87
sVSnsFlag
p88
I17
sVDisplayName
p89
g52
sVUniFriend
p90
I0
sVMemberCount
p91
I0
sVOwnerUin
p92
I0
sVMemberList
p93
g50
sVAlias
p94
g52
sVPYQuanPin
p95
Vzhamaodeciwei
p96
sVSignature
p97
V\u6211\u5f53\u65f6\u5c31\u660e\u767d\u4e86\uff0c\u4f60\u8fd8\u662f\u5f53\u521d\u7684\u4f60\uff0c\u6240\u4ee5\u6211\u8bf4\uff0c\u6709\u7f18\u518d\u89c1\u2026\u2026
p98
sVRemarkPYInitial
p99
VZMY
p100
sVContactFlag
p101
I3
sVUin
p102
I0
sVNickName
p103
V\u70b8\u6bdb\u7684\u523a\u732c
p104
sVAppAccountFlag
p105
I0
sVVerifyFlag
p106
I0
sVRemarkPYQuanPin
p107
Vzhangmeiyuan
p108
sVHeadImgUrl
p109
V/cgi-bin/mmwebwx-bin/webwxgeticon?seq=668508056&username=@6714e257247946db4f8329a8c29d1840b98aa0ad23db771d16784e31a689ddfa&skey=@crypt_6353e9d_531dc18c4e3ced3b7be79e57ad71caa4
p110
sVKeyWord
p111
g52
sVProvince
p112
V\u5b89\u5fbd
p113
sVPYInitial
p114
VZMDCW
p115
sVRemarkName
p116
V\u5f20\u6885\u5a9b
p117
sVIsOwner
p118
I0
sVSex
p119
I2
sVStarFriend
p120
I0
sVHideInputBarFlag
p121
I0
sVChatRoomId
p122
I0
sVEncryChatRoomId
p123
g52
sVAttrStatus
p124
I105573
sVStatues
p125
I0
stp126
Rp127
I1
bag34
(g38
g39
(dp128
VUserName
p129
V@2e397c21da3b24255dfc8306518d28a8c4cb0c60f98e0daeaf415ea430b5e4fa
p130
sVCity
p131
V\u5357\u4eac
p132
sVSnsFlag
p133
I17
sVDisplayName
p134
g52
sVUniFriend
p135
I0
sVMemberCount
p136
I0
sVOwnerUin
p137
I0
sVMemberList
p138
g50
sVAlias
p139
g52
sVPYQuanPin
p140
Vzhuifengshaonianyourenai
p141
sVSignature
p142
g52
sVRemarkPYInitial
p143
g52
sVContactFlag
p144
I3
sVUin
p145
I0
sVNickName
p146
V\u8ffd\u98ce\u5c11\u5e74\u6709\u4eba\u7231
p147
sVAppAccountFlag
p148
I0
sVVerifyFlag
p149
I0
sVRemarkPYQuanPin
p150
g52
sVHeadImgUrl
p151
V/cgi-bin/mmwebwx-bin/webwxgeticon?seq=668524978&username=@2e397c21da3b24255dfc8306518d28a8c4cb0c60f98e0daeaf415ea430b5e4fa&skey=@crypt_6353e9d_531dc18c4e3ced3b7be79e57ad71caa4
p152
sVKeyWord
p153
g52
sVProvince
p154
V\u6c5f\u82cf
p155
sVPYInitial
p156
VZFSNYRA
p157
sVRemarkName
p158
g52
sVIsOwner
p159
I0
sVSex
p160
I1
sVStarFriend
p161
I0
sVHideInputBarFlag
p162
I0
sVChatRoomId
p163
I0
sVEncryChatRoomId
p164
g52
sVAttrStatus
p165
I33558845
sVStatues
p166
I0
stp167
Rp168
I1
bag34
(g38
g39
(dp169
VUserName
p170
V@48a41b3948d45d1613d5c9133684c3f59ce4bc9ea23803b81d8cf23ab86dc76f
p171
sVCity
p172
V\u5f90\u5dde
p173
sVSnsFlag
p174
I17
sVDisplayName
p175
g52
sVUniFriend
p176
I0
sVMemberCount
p177
I0
sVOwnerUin
p178
I0
sVMemberList
p179
g50
sVAlias
p180
g52
sVPYQuanPin
p181
Vsakan
p182
sVSignature
p183
V\u4eba\u751f\u4e0d\u6b62\u773c\u524d\u7684\u82df\u4e14\uff0c\u8fd8\u6709\u8bd7\u548c\u8fdc\u65b9
p184
sVRemarkPYInitial
p185
VZZK
p186
sVContactFlag
p187
I3
sVUin
p188
I0
sVNickName
p189
Vsakan
p190
sVAppAccountFlag
p191
I0
sVVerifyFlag
p192
I0
sVRemarkPYQuanPin
p193
Vzhuzekuan
p194
sVHeadImgUrl
p195
V/cgi-bin/mmwebwx-bin/webwxgeticon?seq=668545770&username=@48a41b3948d45d1613d5c9133684c3f59ce4bc9ea23803b81d8cf23ab86dc76f&skey=@crypt_6353e9d_531dc18c4e3ced3b7be79e57ad71caa4
p196
sVKeyWord
p197
g52
sVProvince
p198
V\u6c5f\u82cf
p199
sVPYInitial
p200
VSAKAN
p201
sVRemarkName
p202
V\u8bf8\u6cfd\u5bbd
p203
sVIsOwner
p204
I0
sVSex
p205
I1
sVStarFriend
p206
I0
sVHideInputBarFlag
p207
I0
sVChatRoomId
p208
I0
sVEncryChatRoomId
p209
g52
sVAttrStatus
p210
I16781605
sVStatues
p211
I0
stp212
Rp213
I1
bag34
(g38
g39
(dp214
VUserName
p215
V@20f2ebb13da1afd58bdceab0cb0e5788
p216
sVCity
p217
V\u5357\u4eac
p218
sVSnsFlag
p219
I49
sVDisplayName
p220
g52
sVUniFriend
p221
I0
sVMemberCount
p222
I0
sVOwnerUin
p223
I0
sVMemberList
p224
g50
sVAlias
p225
g52
sVPYQuanPin
p226
Vshuiwangyunchuan
p227
sVSignature
p228
V\u51b3\u5b9a\u4f60\u4eba\u751f\u9ad8\u5ea6\u7684\uff0c\u4e0d\u662f\u4f60\u7684\u624d\u80fd\uff0c\u800c\u662f\u4f60\u7684\u6001\u5ea6\uff01
p229
sVRemarkPYInitial
p230
g52
sVContactFlag
p231
I3
sVUin
p232
I0
sVNickName
p233
V\u6c34\u671b\u4e91\u7a7f
p234
sVAppAccountFlag
p235
I0
sVVerifyFlag
p236
I0
sVRemarkPYQuanPin
p237
g52
sVHeadImgUrl
p238
V/cgi-bin/mmwebwx-bin/webwxgeticon?seq=656870815&username=@20f2ebb13da1afd58bdceab0cb0e5788&skey=@crypt_6353e9d_531dc18c4e3ced3b7be79e57ad71caa4
p239
sVKeyWord
p240
VATY
p241
sVProvince
p242
V\u6c5f\u82cf
p243
sVPYInitial
p244
VSWYC
p245
sVRemarkName
p246
g52
sVIsOwner
p247
I0
sVSex
p248
I2
sVStarFriend
p249
I0
sVHideInputBarFlag
p250
I0
sVChatRoomId
p251
I0
sVEncryChatRoomId
p252
g52
sVAttrStatus
p253
I233407
sVStatues
p254
I0
stp255
Rp256
I1
bag34
(g38
g39
(dp257
VUserName
p258
V@95582b4d42424115fab41687f993a9e9a41fc1346c4604cac444d5a1b4ec297c
p259
sVCity
p260
V\u65e0\u9521
p261
sVSnsFlag
p262
I49
sVDisplayName
p263
g52
sVUniFriend
p264
I0
sVMemberCount
p265
I0
sVOwnerUin
p266
I0
sVMemberList
p267
g50
sVAlias
p268
g52
sVPYQuanPin
p269
Vkangyanyangshengmeirongweilaoshi18362334829
p270
sVSignature
p271
g52
sVRemarkPYInitial
p272
g52
sVContactFlag
p273
I65537
sVUin
p274
I0
sVNickName
p275
V\u5eb7\u598d\u517b\u751f\u7f8e\u5bb9\u3001\u9b4f\u8001\u5e0818362334829
p276
sVAppAccountFlag
p277
I0
sVVerifyFlag
p278
I0
sVRemarkPYQuanPin
p279
g52
sVHeadImgUrl
p280
V/cgi-bin/mmwebwx-bin/webwxgeticon?seq=656873449&username=@95582b4d42424115fab41687f993a9e9a41fc1346c4604cac444d5a1b4ec297c&skey=@crypt_6353e9d_531dc18c4e3ced3b7be79e57ad71caa4
p281
sVKeyWord
p282
g52
sVProvince
p283
V\u6c5f\u82cf
p284
sVPYInitial
p285
VKYYSMRWLS18362334829
p286
sVRemarkName
p287
g52
sVIsOwner
p288
I0
sVSex
p289
I2
sVStarFriend
p290
I0
sVHideInputBarFlag
p291
I0
sVChatRoomId
p292
I0
sVEncryChatRoomId
p293
g52
sVAttrStatus
p294
I98341
sVStatues
p295
I0
stp296
Rp297
I1
bag34
(g38
g39
(dp298
VUserName
p299
V@0272619bfe34a68abd665e5fc74ab66147d1e40c94f22f0957e1711d90f59bcd
p300
sVCity
p301
V\u676d\u5dde
p302
sVSnsFlag
p303
I1
sVDisplayName
p304
g52
sVUniFriend
p305
I0
sVMemberCount
p306
I0
sVOwnerUin
p307
I0
sVMemberList
p308
g50
sVAlias
p309
g52
sVPYQuanPin
p310
VWinnieniu
p311
sVSignature
p312
g52
sVRemarkPYInitial
p313
g52
sVContactFlag
p314
I3
sVUin
p315
I0
sVNickName
p316
VWinnie\u599e
p317
sVAppAccountFlag
p318
I0
sVVerifyFlag
p319
I0
sVRemarkPYQuanPin
p320
g52
sVHeadImgUrl
p321
V/cgi-bin/mmwebwx-bin/webwxgeticon?seq=656880568&username=@0272619bfe34a68abd665e5fc74ab66147d1e40c94f22f0957e1711d90f59bcd&skey=@crypt_6353e9d_531dc18c4e3ced3b7be79e57ad71caa4
p322
sVKeyWord
p323
g52
sVProvince
p324
V\u6d59\u6c5f
p325
sVPYInitial
p326
VWINNIEN
p327
sVRemarkName
p328
g52
sVIsOwner
p329
I0
sVSex
p330
I2
sVStarFriend
p331
I0
sVHideInputBarFlag
p332
I0
sVChatRoomId
p333
I0
sVEncryChatRoomId
p334
g52
sVAttrStatus
p335
I102585
sVStatues
p336
I0
stp337
Rp338
I1
bag34
(g38
g39
(dp339
VUserName
p340
V@7f0343b278ce03fe8ba6ffe452a52cd4ff1c2096adf784bddfca57ea385ae170
p341
sVCity
p342
V\u6dee\u5b89
p343
sVSnsFlag
p344
I1
sVDisplayName
p345
g52
sVUniFriend
p346
I0
sVMemberCount
p347
I0
sVOwnerUin
p348
I0
sVMemberList
p349
g50
sVAlias
p350
g52
sVPYQuanPin
p351
VMa
p352
sVSignature
p353
g52
sVRemarkPYInitial
p354
VLM
p355
sVContactFlag
p356
I3
sVUin
p357
I0
sVNickName
p358
VMa
p359
sVAppAccountFlag
p360
I0
sVVerifyFlag
p361
I0
sVRemarkPYQuanPin
p362
Vlaoma
p363
sVHeadImgUrl
p364
V/cgi-bin/mmwebwx-bin/webwxgeticon?seq=649411536&username=@7f0343b278ce03fe8ba6ffe452a52cd4ff1c2096adf784bddfca57ea385ae170&skey=@crypt_6353e9d_531dc18c4e3ced3b7be79e57ad71caa4
p365
sVKeyWord
p366
g52
sVProvince
p367
V\u6c5f\u82cf
p368
sVPYInitial
p369
VMA
p370
sVRemarkName
p371
V\u8001\u5988
p372
sVIsOwner
p373
I0
sVSex
p374
I1
sVStarFriend
p375
I0
sVHideInputBarFlag
p376
I0
sVChatRoomId
p377
I0
sVEncryChatRoomId
p378
g52
sVAttrStatus
p379
I4133
sVStatues
p380
I0
stp381
Rp382
I1
bag34
(g38
g39
(dp383
VUserName
p384
V@dc5ccefe7aab06ae79c9288d54df85ed4723fcd75bcd766454f86ca21094487a
p385
sVCity
p386
V\u5e38\u5dde
p387
sVSnsFlag
p388
I1
sVDisplayName
p389
g52
sVUniFriend
p390
I0
sVMemberCount
p391
I0
sVOwnerUin
p392
I0
sVMemberList
p393
g50
sVAlias
p394
g52
sVPYQuanPin
p395
Vhefangyinxiaojuxuxing
p396
sVSignature
p397
g52
sVRemarkPYInitial
p398
VCHX
p399
sVContactFlag
p400
I3
sVUin
p401
I0
sVNickName
p402
V\u4f55\u59a8\u541f\u5578\u4e14\u5f90\u884c
p403
sVAppAccountFlag
p404
I0
sVVerifyFlag
p405
I0
sVRemarkPYQuanPin
p406
Vchihuixiang
p407
sVHeadImgUrl
p408
V/cgi-bin/mmwebwx-bin/webwxgeticon?seq=656886300&username=@dc5ccefe7aab06ae79c9288d54df85ed4723fcd75bcd766454f86ca21094487a&skey=@crypt_6353e9d_531dc18c4e3ced3b7be79e57ad71caa4
p409
sVKeyWord
p410
g52
sVProvince
p411
V\u6c5f\u82cf
p412
sVPYInitial
p413
VHFYXJXX
p414
sVRemarkName
p415
V\u5403\u6167\u7fd4
p416
sVIsOwner
p417
I0
sVSex
p418
I1
sVStarFriend
p419
I0
sVHideInputBarFlag
p420
I0
sVChatRoomId
p421
I0
sVEncryChatRoomId
p422
g52
sVAttrStatus
p423
I102501
sVStatues
p424
I0
stp425
Rp426
I1
bag34
(g38
g39
(dp427
VUserName
p428
V@1f37157d512b915bd7932c16e69c0358471e65e29c0c7a3c5d591846f20e1597
p429
sVCity
p430
V\u5357\u5cb8
p431
sVSnsFlag
p432
I1
sVDisplayName
p433
g52
sVUniFriend
p434
I0
sVMemberCount
p435
I0
sVOwnerUin
p436
I0
sVMemberList
p437
g50
sVAlias
p438
g52
sVPYQuanPin
p439
Vchuotong
p440
sVSignature
p441
V\u52aa\u529b\u5de5\u4f5c\uff0c\u505a\u4e00\u4e2a\u81ea\u4fe1\u7684get\u70b9
p442
sVRemarkPYInitial
p443
g52
sVContactFlag
p444
I3
sVUin
p445
I0
sVNickName
p446
V\u5a7c\u5f64
p447
sVAppAccountFlag
p448
I0
sVVerifyFlag
p449
I0
sVRemarkPYQuanPin
p450
g52
sVHeadImgUrl
p451
V/cgi-bin/mmwebwx-bin/webwxgeticon?seq=656874974&username=@1f37157d512b915bd7932c16e69c0358471e65e29c0c7a3c5d591846f20e1597&skey=@crypt_6353e9d_531dc18c4e3ced3b7be79e57ad71caa4
p452
sVKeyWord
p453
g52
sVProvince
p454
V\u91cd\u5e86
p455
sVPYInitial
p456
VCT
p457
sVRemarkName
p458
g52
sVIsOwner
p459
I0
sVSex
p460
I2
sVStarFriend
p461
I0
sVHideInputBarFlag
p462
I0
sVChatRoomId
p463
I0
sVEncryChatRoomId
p464
g52
sVAttrStatus
p465
I102433
sVStatues
p466
I0
stp467
Rp468
I1
bag34
(g38
g39
(dp469
VUserName
p470
V@25de5373867e25247367a53bcd061e56edd87b3d7a2fbeb79e750aa703e952b2
p471
sVCity
p472
V\u5357\u4eac
p473
sVSnsFlag
p474
I1
sVDisplayName
p475
g52
sVUniFriend
p476
I0
sVMemberCount
p477
I0
sVOwnerUin
p478
I0
sVMemberList
p479
g50
sVAlias
p480
g52
sVPYQuanPin
p481
VAngle
p482
sVSignature
p483
V\u672a\u6765\u4e0d\u8fce\uff0c\u8fc7\u5f80\u4e0d\u604b\uff0c\u6d3b\u597d\u5f53\u4e0b\uff01
p484
sVRemarkPYInitial
p485
g52
sVContactFlag
p486
I3
sVUin
p487
I0
sVNickName
p488
VAngle~
p489
sVAppAccountFlag
p490
I0
sVVerifyFlag
p491
I0
sVRemarkPYQuanPin
p492
g52
sVHeadImgUrl
p493
V/cgi-bin/mmwebwx-bin/webwxgeticon?seq=656886397&username=@25de5373867e25247367a53bcd061e56edd87b3d7a2fbeb79e750aa703e952b2&skey=@crypt_6353e9d_531dc18c4e3ced3b7be79e57ad71caa4
p494
sVKeyWord
p495
g52
sVProvince
p496
V\u6c5f\u82cf
p497
sVPYInitial
p498
VANGLE
p499
sVRemarkName
p500
g52
sVIsOwner
p501
I0
sVSex
p502
I2
sVStarFriend
p503
I0
sVHideInputBarFlag
p504
I0
sVChatRoomId
p505
I0
sVEncryChatRoomId
p506
g52
sVAttrStatus
p507
I102437
sVStatues
p508
I0
stp509
Rp510
I1
bag34
(g38
g39
(dp511
VUserName
p512
V@25373c9b6dcbb0f8f44903588c392e1427397f186fd4b59990f9ea206c58c634
p513
sVCity
p514
V\u5e7f\u5dde
p515
sVSnsFlag
p516
I1
sVDisplayName
p517
g52
sVUniFriend
p518
I0
sVMemberCount
p519
I0
sVOwnerUin
p520
I0
sVMemberList
p521
g50
sVAlias
p522
g52
sVPYQuanPin
p523
Vwo
p524
sVSignature
p525
V\u7ed9
p526
sVRemarkPYInitial
p527
g52
sVContactFlag
p528
I3
sVUin
p529
I0
sVNickName
p530
V\u6211
p531
sVAppAccountFlag
p532
I0
sVVerifyFlag
p533
I0
sVRemarkPYQuanPin
p534
g52
sVHeadImgUrl
p535
V/cgi-bin/mmwebwx-bin/webwxgeticon?seq=656874692&username=@25373c9b6dcbb0f8f44903588c392e1427397f186fd4b59990f9ea206c58c634&skey=@crypt_6353e9d_531dc18c4e3ced3b7be79e57ad71caa4
p536
sVKeyWord
p537
g52
sVProvince
p538
V\u5e7f\u4e1c
p539
sVPYInitial
p540
VW
p541
sVRemarkName
p542
g52
sVIsOwner
p543
I0
sVSex
p544
I2
sVStarFriend
p545
I0
sVHideInputBarFlag
p546
I0
sVChatRoomId
p547
I0
sVEncryChatRoomId
p548
g52
sVAttrStatus
p549
I4133
sVStatues
p550
I0
stp551
Rp552
I1
bag34
(g38
g39
(dp553
VUserName
p554
V@64878ff05182ca73730c11af265d2def6ee6543c2d44dab2b1e0024680e37060
p555
sVCity
p556
V\u5b9d\u5c71
p557
sVSnsFlag
p558
I17
sVDisplayName
p559
g52
sVUniFriend
p560
I0
sVMemberCount
p561
I0
sVOwnerUin
p562
I0
sVMemberList
p563
g50
sVAlias
p564
g52
sVPYQuanPin
p565
Vyongheng
p566
sVSignature
p567
g52
sVRemarkPYInitial
p568
g52
sVContactFlag
p569
I3
sVUin
p570
I0
sVNickName
p571
V\u6c38\u6052
p572
sVAppAccountFlag
p573
I0
sVVerifyFlag
p574
I0
sVRemarkPYQuanPin
p575
g52
sVHeadImgUrl
p576
V/cgi-bin/mmwebwx-bin/webwxgeticon?seq=656890678&username=@64878ff05182ca73730c11af265d2def6ee6543c2d44dab2b1e0024680e37060&skey=@crypt_6353e9d_531dc18c4e3ced3b7be79e57ad71caa4
p577
sVKeyWord
p578
g52
sVProvince
p579
V\u4e0a\u6d77
p580
sVPYInitial
p581
VYH
p582
sVRemarkName
p583
g52
sVIsOwner
p584
I0
sVSex
p585
I1
sVStarFriend
p586
I0
sVHideInputBarFlag
p587
I0
sVChatRoomId
p588
I0
sVEncryChatRoomId
p589
g52
sVAttrStatus
p590
I112741
sVStatues
p591
I0
stp592
Rp593
I1
bag34
(g38
g39
(dp594
VUserName
p595
V@d870c45a68f72189a3351de3a7981042
p596
sVCity
p597
V\u5357\u4eac
p598
sVSnsFlag
p599
I49
sVDisplayName
p600
g52
sVUniFriend
p601
I0
sVMemberCount
p602
I0
sVOwnerUin
p603
I0
sVMemberList
p604
g50
sVAlias
p605
g52
sVPYQuanPin
p606
Vhualidebuxuyaoxieshi
p607
sVSignature
p608
V\u770b\u900f\u4eba\u60c5\u5374\u4e0d\u4e16\u6545\uff0c\u892a\u53bb\u7a1a\u5ae9\u4ecd\u65e7\u5355\u7eaf\u3002\u3002\u3002
p609
sVRemarkPYInitial
p610
VZQ
p611
sVContactFlag
p612
I65539
sVUin
p613
I0
sVNickName
p614
V\u534e\u4e3d\u5f97\u4e0d\u9700\u8981\u89e3\u91ca
p615
sVAppAccountFlag
p616
I0
sVVerifyFlag
p617
I0
sVRemarkPYQuanPin
p618
Vzhengquan
p619
sVHeadImgUrl
p620
V/cgi-bin/mmwebwx-bin/webwxgeticon?seq=667330370&username=@d870c45a68f72189a3351de3a7981042&skey=@crypt_6353e9d_531dc18c4e3ced3b7be79e57ad71caa4
p621
sVKeyWord
p622
Vlis
p623
sVProvince
p624
V\u6c5f\u82cf
p625
sVPYInitial
p626
VHLDBXYXS
p627
sVRemarkName
p628
V\u8bc1\u5238
p629
sVIsOwner
p630
I0
sVSex
p631
I1
sVStarFriend
p632
I0
sVHideInputBarFlag
p633
I0
sVChatRoomId
p634
I0
sVEncryChatRoomId
p635
g52
sVAttrStatus
p636
I102439
sVStatues
p637
I0
stp638
Rp639
I1
bag34
(g38
g39
(dp640
VUserName
p641
V@47ca269b1a92c91c917d8f065db0b18eba0c2a93c4c7d02cee00f90840b996a3
p642
sVCity
p643
V\u626c\u5dde
p644
sVSnsFlag
p645
I1
sVDisplayName
p646
g52
sVUniFriend
p647
I0
sVMemberCount
p648
I0
sVOwnerUin
p649
I0
sVMemberList
p650
g50
sVAlias
p651
g52
sVPYQuanPin
p652
Vwencheng
p653
sVSignature
p654
Vno pain,no gain.
p655
sVRemarkPYInitial
p656
VXWC
p657
sVContactFlag
p658
I3
sVUin
p659
I0
sVNickName
p660
V\u554f\u627f
p661
sVAppAccountFlag
p662
I0
sVVerifyFlag
p663
I0
sVRemarkPYQuanPin
p664
Vxuwencheng
p665
sVHeadImgUrl
p666
V/cgi-bin/mmwebwx-bin/webwxgeticon?seq=651750698&username=@47ca269b1a92c91c917d8f065db0b18eba0c2a93c4c7d02cee00f90840b996a3&skey=@crypt_6353e9d_531dc18c4e3ced3b7be79e57ad71caa4
p667
sVKeyWord
p668
g52
sVProvince
p669
V\u6c5f\u82cf
p670
sVPYInitial
p671
VWC
p672
sVRemarkName
p673
V\u5f90\u6587\u6210
p674
sVIsOwner
p675
I0
sVSex
p676
I1
sVStarFriend
p677
I0
sVHideInputBarFlag
p678
I0
sVChatRoomId
p679
I0
sVEncryChatRoomId
p680
g52
sVAttrStatus
p681
I135269
sVStatues
p682
I0
stp683
Rp684
I1
bag34
(g38
g39
(dp685
VUserName
p686
V@7942f660dbc51267f8575dff6a10bbff432b0f5dc17769f50b9f2d4f9b873380
p687
sVCity
p688
V\u6dee\u5b89
p689
sVSnsFlag
p690
I17
sVDisplayName
p691
g52
sVUniFriend
p692
I0
sVMemberCount
p693
I0
sVOwnerUin
p694
I0
sVMemberList
p695
g50
sVAlias
p696
g52
sVPYQuanPin
p697
Vlaowu
p698
sVSignature
p699
g52
sVRemarkPYInitial
p700
g52
sVContactFlag
p701
I3
sVUin
p702
I0
sVNickName
p703
V\u8001\u4e94
p704
sVAppAccountFlag
p705
I0
sVVerifyFlag
p706
I0
sVRemarkPYQuanPin
p707
g52
sVHeadImgUrl
p708
V/cgi-bin/mmwebwx-bin/webwxgeticon?seq=668497684&username=@7942f660dbc51267f8575dff6a10bbff432b0f5dc17769f50b9f2d4f9b873380&skey=@crypt_6353e9d_531dc18c4e3ced3b7be79e57ad71caa4
p709
sVKeyWord
p710
g52
sVProvince
p711
V\u6c5f\u82cf
p712
sVPYInitial
p713
VLW
p714
sVRemarkName
p715
g52
sVIsOwner
p716
I0
sVSex
p717
I1
sVStarFriend
p718
I0
sVHideInputBarFlag
p719
I0
sVChatRoomId
p720
I0
sVEncryChatRoomId
p721
g52
sVAttrStatus
p722
I4157
sVStatues
p723
I0
stp724
Rp725
I1
bag34
(g38
g39
(dp726
VUserName
p727
V@621baee7dde4d9ed5b55ea9a274e27c8723c1746bfe333dbad66c08e0af7bc9a
p728
sVCity
p729
V\u76d8\u9526
p730
sVSnsFlag
p731
I1
sVDisplayName
p732
g52
sVUniFriend
p733
I0
sVMemberCount
p734
I0
sVOwnerUin
p735
I0
sVMemberList
p736
g50
sVAlias
p737
g52
sVPYQuanPin
p738
Vpanjinanqiernvxing
p739
sVSignature
p740
V\u6211\u6ca1\u6709\u8d2a\u5a6a\uff0c\u4f46\u6211\u7fa1\u6155\u6d77\u67af\u77f3\u70c2
p741
sVRemarkPYInitial
p742
g52
sVContactFlag
p743
I65539
sVUin
p744
I0
sVNickName
p745
V\u76d8\u9526\u5b89\u742a\u513f\u5973\u6027
p746
sVAppAccountFlag
p747
I0
sVVerifyFlag
p748
I0
sVRemarkPYQuanPin
p749
g52
sVHeadImgUrl
p750
V/cgi-bin/mmwebwx-bin/webwxgeticon?seq=656891306&username=@621baee7dde4d9ed5b55ea9a274e27c8723c1746bfe333dbad66c08e0af7bc9a&skey=@crypt_6353e9d_531dc18c4e3ced3b7be79e57ad71caa4
p751
sVKeyWord
p752
g52
sVProvince
p753
V\u8fbd\u5b81
p754
sVPYInitial
p755
VPJAQENX
p756
sVRemarkName
p757
g52
sVIsOwner
p758
I0
sVSex
p759
I2
sVStarFriend
p760
I0
sVHideInputBarFlag
p761
I0
sVChatRoomId
p762
I0
sVEncryChatRoomId
p763
g52
sVAttrStatus
p764
I236221
sVStatues
p765
I0
stp766
Rp767
I1
bag34
(g38
g39
(dp768
VUserName
p769
V@381cb60df5f04d062ce74d0900b775028eb9641614a6cdb7bdc7daad0735553a
p770
sVCity
p771
V\u76ca\u9633
p772
sVSnsFlag
p773
I17
sVDisplayName
p774
g52
sVUniFriend
p775
I0
sVMemberCount
p776
I0
sVOwnerUin
p777
I0
sVMemberList
p778
g50
sVAlias
p779
g52
sVPYQuanPin
p780
Vyandeqiang
p781
sVSignature
p782
g52
sVRemarkPYInitial
p783
VXQ
p784
sVContactFlag
p785
I3
sVUin
p786
I0
sVNickName
p787
V\u4e25\u5fb7\u5f3a
p788
sVAppAccountFlag
p789
I0
sVVerifyFlag
p790
I0
sVRemarkPYQuanPin
p791
Vxiaoqiang
p792
sVHeadImgUrl
p793
V/cgi-bin/mmwebwx-bin/webwxgeticon?seq=668508756&username=@381cb60df5f04d062ce74d0900b775028eb9641614a6cdb7bdc7daad0735553a&skey=@crypt_6353e9d_531dc18c4e3ced3b7be79e57ad71caa4
p794
sVKeyWord
p795
g52
sVProvince
p796
V\u6e56\u5357
p797
sVPYInitial
p798
VYDQ
p799
sVRemarkName
p800
V\u5c0f\u5f3a
p801
sVIsOwner
p802
I0
sVSex
p803
I1
sVStarFriend
p804
I0
sVHideInputBarFlag
p805
I0
sVChatRoomId
p806
I0
sVEncryChatRoomId
p807
g52
sVAttrStatus
p808
I33656871
sVStatues
p809
I0
stp810
Rp811
I1
bag34
(g38
g39
(dp812
VUserName
p813
V@6bba8dab8c70351f089e1cc69e62413012693d322708e284105ea35f2c35cfc1
p814
sVCity
p815
g52
sVSnsFlag
p816
I0
sVDisplayName
p817
g52
sVUniFriend
p818
I0
sVMemberCount
p819
I0
sVOwnerUin
p820
I0
sVMemberList
p821
g50
sVAlias
p822
g52
sVPYQuanPin
p823
Vhuanxiangrensheng
p824
sVSignature
p825
V\u68a6
p826
sVRemarkPYInitial
p827
g52
sVContactFlag
p828
I3
sVUin
p829
I0
sVNickName
p830
V\u5e7b\u60f3\u4eba\u751f
p831
sVAppAccountFlag
p832
I0
sVVerifyFlag
p833
I0
sVRemarkPYQuanPin
p834
g52
sVHeadImgUrl
p835
V/cgi-bin/mmwebwx-bin/webwxgeticon?seq=656875396&username=@6bba8dab8c70351f089e1cc69e62413012693d322708e284105ea35f2c35cfc1&skey=@crypt_6353e9d_531dc18c4e3ced3b7be79e57ad71caa4
p836
sVKeyWord
p837
g52
sVProvince
p838
V\u6c5f\u82cf
p839
sVPYInitial
p840
VHXRS
p841
sVRemarkName
p842
g52
sVIsOwner
p843
I0
sVSex
p844
I1
sVStarFriend
p845
I0
sVHideInputBarFlag
p846
I0
sVChatRoomId
p847
I0
sVEncryChatRoomId
p848
g52
sVAttrStatus
p849
I4133
sVStatues
p850
I0
stp851
Rp852
I1
bag34
(g38
g39
(dp853
VUserName
p854
V@5be6a816075e1543918700589aaebcb6
p855
sVCity
p856
V\u5357\u901a
p857
sVSnsFlag
p858
I49
sVDisplayName
p859
g52
sVUniFriend
p860
I0
sVMemberCount
p861
I0
sVOwnerUin
p862
I0
sVMemberList
p863
g50
sVAlias
p864
g52
sVPYQuanPin
p865
Vlemonlyp
p866
sVSignature
p867
g52
sVRemarkPYInitial
p868
VLYP
p869
sVContactFlag
p870
I3
sVUin
p871
I0
sVNickName
p872
Vlemonlyp
p873
sVAppAccountFlag
p874
I0
sVVerifyFlag
p875
I0
sVRemarkPYQuanPin
p876
Vlinyunpeng
p877
sVHeadImgUrl
p878
V/cgi-bin/mmwebwx-bin/webwxgeticon?seq=668513872&username=@5be6a816075e1543918700589aaebcb6&skey=@crypt_6353e9d_531dc18c4e3ced3b7be79e57ad71caa4
p879
sVKeyWord
p880
Vlin
p881
sVProvince
p882
V\u6c5f\u82cf
p883
sVPYInitial
p884
VLEMONLYP
p885
sVRemarkName
p886
V\u6797\u4e91\u9e4f
p887
sVIsOwner
p888
I0
sVSex
p889
I1
sVStarFriend
p890
I0
sVHideInputBarFlag
p891
I0
sVChatRoomId
p892
I0
sVEncryChatRoomId
p893
g52
sVAttrStatus
p894
I104615
sVStatues
p895
I0
stp896
Rp897
I1
bag34
(g38
g39
(dp898
VUserName
p899
V@4deb8ceeebf6a5675f98aaaeaf20c0eca0e9c3b82ebb349fe4ec90ba8fd2df52
p900
sVCity
p901
V\u5357\u4eac
p902
sVSnsFlag
p903
I17
sVDisplayName
p904
g52
sVUniFriend
p905
I0
sVMemberCount
p906
I0
sVOwnerUin
p907
I0
sVMemberList
p908
g50
sVAlias
p909
g52
sVPYQuanPin
p910
Vjieaobuxun
p911
sVSignature
p912
V\u7231\u4f60\uff0c\u4e0d\u9700\u8981\u7406\u7531\uff01\uff01
p913
sVRemarkPYInitial
p914
g52
sVContactFlag
p915
I3
sVUin
p916
I0
sVNickName
p917
V\u201c\u5091\u201d\u9a9c\u4e0d\u9a6f
p918
sVAppAccountFlag
p919
I0
sVVerifyFlag
p920
I0
sVRemarkPYQuanPin
p921
g52
sVHeadImgUrl
p922
V/cgi-bin/mmwebwx-bin/webwxgeticon?seq=656887939&username=@4deb8ceeebf6a5675f98aaaeaf20c0eca0e9c3b82ebb349fe4ec90ba8fd2df52&skey=@crypt_6353e9d_531dc18c4e3ced3b7be79e57ad71caa4
p923
sVKeyWord
p924
g52
sVProvince
p925
V\u6c5f\u82cf
p926
sVPYInitial
p927
VJABX
p928
sVRemarkName
p929
g52
sVIsOwner
p930
I0
sVSex
p931
I1
sVStarFriend
p932
I0
sVHideInputBarFlag
p933
I0
sVChatRoomId
p934
I0
sVEncryChatRoomId
p935
g52
sVAttrStatus
p936
I102439
sVStatues
p937
I0
stp938
Rp939
I1
bag34
(g38
g39
(dp940
VUserName
p941
V@db06dd9146d1e77ed8432b55e68cc311a6b101c4eb5f307bd2b10e3aa7cbcb99
p942
sVCity
p943
g52
sVSnsFlag
p944
I1
sVDisplayName
p945
g52
sVUniFriend
p946
I0
sVMemberCount
p947
I0
sVOwnerUin
p948
I0
sVMemberList
p949
g50
sVAlias
p950
g52
sVPYQuanPin
p951
Vsanshengyouyeming
p952
sVSignature
p953
g52
sVRemarkPYInitial
p954
g52
sVContactFlag
p955
I3
sVUin
p956
I0
sVNickName
p957
V\u4e09\u751f\u6709\u7237\u540d
p958
sVAppAccountFlag
p959
I0
sVVerifyFlag
p960
I0
sVRemarkPYQuanPin
p961
g52
sVHeadImgUrl
p962
V/cgi-bin/mmwebwx-bin/webwxgeticon?seq=656887729&username=@db06dd9146d1e77ed8432b55e68cc311a6b101c4eb5f307bd2b10e3aa7cbcb99&skey=@crypt_6353e9d_531dc18c4e3ced3b7be79e57ad71caa4
p963
sVKeyWord
p964
g52
sVProvince
p965
g52
sVPYInitial
p966
VSSYYM
p967
sVRemarkName
p968
g52
sVIsOwner
p969
I0
sVSex
p970
I0
sVStarFriend
p971
I0
sVHideInputBarFlag
p972
I0
sVChatRoomId
p973
I0
sVEncryChatRoomId
p974
g52
sVAttrStatus
p975
I136037
sVStatues
p976
I0
stp977
Rp978
I1
bag34
(g38
g39
(dp979
VUserName
p980
V@8872f2deb6cb1be5aeeb422713e6c7dd6213ae33d7333a82d717b21c132ae83e
p981
sVCity
p982
V\u5357\u4eac
p983
sVSnsFlag
p984
I49
sVDisplayName
p985
g52
sVUniFriend
p986
I0
sVMemberCount
p987
I0
sVOwnerUin
p988
I0
sVMemberList
p989
g50
sVAlias
p990
g52
sVPYQuanPin
p991
Vxiaoxiaoyong
p992
sVSignature
p993
V\u4f9d\u9760\u7684\u5f00\u59cb
p994
sVRemarkPYInitial
p995
VZXY
p996
sVContactFlag
p997
I3
sVUin
p998
I0
sVNickName
p999
V\u5c0f\u5c0f\u52c7
p1000
sVAppAccountFlag
p1001
I0
sVVerifyFlag
p1002
I0
sVRemarkPYQuanPin
p1003
Vzhangxiaoyong
p1004
sVHeadImgUrl
p1005
V/cgi-bin/mmwebwx-bin/webwxgeticon?seq=668081091&username=@8872f2deb6cb1be5aeeb422713e6c7dd6213ae33d7333a82d717b21c132ae83e&skey=@crypt_6353e9d_531dc18c4e3ced3b7be79e57ad71caa4
p1006
sVKeyWord
p1007
g52
sVProvince
p1008
V\u6c5f\u82cf
p1009
sVPYInitial
p1010
VXXY
p1011
sVRemarkName
p1012
V\u5f20\u5c0f\u52c7
p1013
sVIsOwner
p1014
I0
sVSex
p1015
I1
sVStarFriend
p1016
I0
sVHideInputBarFlag
p1017
I0
sVChatRoomId
p1018
I0
sVEncryChatRoomId
p1019
g52
sVAttrStatus
p1020
I102589
sVStatues
p1021
I0
stp1022
Rp1023
I1
bag34
(g38
g39
(dp1024
VUserName
p1025
V@d013bc53360f69cb3319014729e10262
p1026
sVCity
p1027
V\u5357\u4eac
p1028
sVSnsFlag
p1029
I17
sVDisplayName
p1030
g52
sVUniFriend
p1031
I0
sVMemberCount
p1032
I0
sVOwnerUin
p1033
I0
sVMemberList
p1034
g50
sVAlias
p1035
g52
sVPYQuanPin
p1036
Vwoxingyu
p1037
sVSignature
p1038
g52
sVRemarkPYInitial
p1039
g52
sVContactFlag
p1040
I3
sVUin
p1041
I0
sVNickName
p1042
V\u6211\u59d3\u55bb
p1043
sVAppAccountFlag
p1044
I0
sVVerifyFlag
p1045
I0
sVRemarkPYQuanPin
p1046
g52
sVHeadImgUrl
p1047
V/cgi-bin/mmwebwx-bin/webwxgeticon?seq=668517206&username=@d013bc53360f69cb3319014729e10262&skey=@crypt_6353e9d_531dc18c4e3ced3b7be79e57ad71caa4
p1048
sVKeyWord
p1049
Vwox
p1050
sVProvince
p1051
V\u6c5f\u82cf
p1052
sVPYInitial
p1053
VWXY
p1054
sVRemarkName
p1055
g52
sVIsOwner
p1056
I0
sVSex
p1057
I1
sVStarFriend
p1058
I0
sVHideInputBarFlag
p1059
I0
sVChatRoomId
p1060
I0
sVEncryChatRoomId
p1061
g52
sVAttrStatus
p1062
I103
sVStatues
p1063
I0
stp1064
Rp1065
I1
bag34
(g38
g39
(dp1066
VUserName
p1067
V@c15d5c9c40dc735a15eb2bef696d7e2b911c6207e365c1c465d325491d4bb0c9
p1068
sVCity
p1069
g52
sVSnsFlag
p1070
I1
sVDisplayName
p1071
g52
sVUniFriend
p1072
I0
sVMemberCount
p1073
I0
sVOwnerUin
p1074
I0
sVMemberList
p1075
g50
sVAlias
p1076
g52
sVPYQuanPin
p1077
VVictoria
p1078
sVSignature
p1079
g52
sVRemarkPYInitial
p1080
VLHDC
p1081
sVContactFlag
p1082
I3
sVUin
p1083
I0
sVNickName
p1084
VVictoria
p1085
sVAppAccountFlag
p1086
I0
sVVerifyFlag
p1087
I0
sVRemarkPYQuanPin
p1088
Vlianghaidechan
p1089
sVHeadImgUrl
p1090
V/cgi-bin/mmwebwx-bin/webwxgeticon?seq=668520015&username=@c15d5c9c40dc735a15eb2bef696d7e2b911c6207e365c1c465d325491d4bb0c9&skey=@crypt_6353e9d_531dc18c4e3ced3b7be79e57ad71caa4
p1091
sVKeyWord
p1092
g52
sVProvince
p1093
V\u5409\u6797
p1094
sVPYInitial
p1095
VVICTORIA
p1096
sVRemarkName
p1097
V\u6881\u6d77\u5730\u4ea7
p1098
sVIsOwner
p1099
I0
sVSex
p1100
I2
sVStarFriend
p1101
I0
sVHideInputBarFlag
p1102
I0
sVChatRoomId
p1103
I0
sVEncryChatRoomId
p1104
g52
sVAttrStatus
p1105
I233829
sVStatues
p1106
I0
stp1107
Rp1108
I1
bag34
(g38
g39
(dp1109
VUserName
p1110
V@27ac49b17ae03dee6cdd5d0efb3a505c144e5aadc3440b77f2e05d6d20969d62
p1111
sVCity
p1112
V\u798f\u5dde
p1113
sVSnsFlag
p1114
I17
sVDisplayName
p1115
g52
sVUniFriend
p1116
I0
sVMemberCount
p1117
I0
sVOwnerUin
p1118
I0
sVMemberList
p1119
g50
sVAlias
p1120
g52
sVPYQuanPin
p1121
Vzixi
p1122
sVSignature
p1123
V\u4e0d\u5fd8\u521d\u5fc3
p1124
sVRemarkPYInitial
p1125
g52
sVContactFlag
p1126
I3
sVUin
p1127
I0
sVNickName
p1128
V\u6893\u5915
p1129
sVAppAccountFlag
p1130
I0
sVVerifyFlag
p1131
I0
sVRemarkPYQuanPin
p1132
g52
sVHeadImgUrl
p1133
V/cgi-bin/mmwebwx-bin/webwxgeticon?seq=668519329&username=@27ac49b17ae03dee6cdd5d0efb3a505c144e5aadc3440b77f2e05d6d20969d62&skey=@crypt_6353e9d_531dc18c4e3ced3b7be79e57ad71caa4
p1134
sVKeyWord
p1135
g52
sVProvince
p1136
V\u798f\u5efa
p1137
sVPYInitial
p1138
VZX
p1139
sVRemarkName
p1140
g52
sVIsOwner
p1141
I0
sVSex
p1142
I2
sVStarFriend
p1143
I0
sVHideInputBarFlag
p1144
I0
sVChatRoomId
p1145
I0
sVEncryChatRoomId
p1146
g52
sVAttrStatus
p1147
I4605
sVStatues
p1148
I0
stp1149
Rp1150
I1
bag34
(g38
g39
(dp1151
VUserName
p1152
V@57740e11de1c35f452ae67d6b60df86e0342cfa39295f1ec6e43a7eac21f3dfd
p1153
sVCity
p1154
V\u5e38\u5dde
p1155
sVSnsFlag
p1156
I17
sVDisplayName
p1157
g52
sVUniFriend
p1158
I0
sVMemberCount
p1159
I0
sVOwnerUin
p1160
I0
sVMemberList
p1161
g50
sVAlias
p1162
g52
sVPYQuanPin
p1163
Vxulingdan
p1164
sVSignature
p1165
g52
sVRemarkPYInitial
p1166
g52
sVContactFlag
p1167
I3
sVUin
p1168
I0
sVNickName
p1169
V\u5f90\u73b2\u4e39
p1170
sVAppAccountFlag
p1171
I0
sVVerifyFlag
p1172
I0
sVRemarkPYQuanPin
p1173
g52
sVHeadImgUrl
p1174
V/cgi-bin/mmwebwx-bin/webwxgeticon?seq=668521853&username=@57740e11de1c35f452ae67d6b60df86e0342cfa39295f1ec6e43a7eac21f3dfd&skey=@crypt_6353e9d_531dc18c4e3ced3b7be79e57ad71caa4
p1175
sVKeyWord
p1176
g52
sVProvince
p1177
V\u6c5f\u82cf
p1178
sVPYInitial
p1179
VXLD
p1180
sVRemarkName
p1181
g52
sVIsOwner
p1182
I0
sVSex
p1183
I2
sVStarFriend
p1184
I0
sVHideInputBarFlag
p1185
I0
sVChatRoomId
p1186
I0
sVEncryChatRoomId
p1187
g52
sVAttrStatus
p1188
I4197
sVStatues
p1189
I0
stp1190
Rp1191
I1
bag34
(g38
g39
(dp1192
VUserName
p1193
V@ca2dcc65486ca32d8894a279e058b4d6fe390da2da89f66e4cc9c5f75cc645fa
p1194
sVCity
p1195
g52
sVSnsFlag
p1196
I17
sVDisplayName
p1197
g52
sVUniFriend
p1198
I0
sVMemberCount
p1199
I0
sVOwnerUin
p1200
I0
sVMemberList
p1201
g50
sVAlias
p1202
g52
sVPYQuanPin
p1203
Vlalalalalala
p1204
sVSignature
p1205
VEscape,\u9003\u3052
p1206
sVRemarkPYInitial
p1207
g52
sVContactFlag
p1208
I3
sVUin
p1209
I0
sVNickName
p1210
V\u5566\u5566\u5566\u5566\u5566\u5566
p1211
sVAppAccountFlag
p1212
I0
sVVerifyFlag
p1213
I0
sVRemarkPYQuanPin
p1214
g52
sVHeadImgUrl
p1215
V/cgi-bin/mmwebwx-bin/webwxgeticon?seq=668513884&username=@ca2dcc65486ca32d8894a279e058b4d6fe390da2da89f66e4cc9c5f75cc645fa&skey=@crypt_6353e9d_531dc18c4e3ced3b7be79e57ad71caa4
p1216
sVKeyWord
p1217
g52
sVProvince
p1218
VKanagawa
p1219
sVPYInitial
p1220
VLLLLLL
p1221
sVRemarkName
p1222
g52
sVIsOwner
p1223
I0
sVSex
p1224
I2
sVStarFriend
p1225
I0
sVHideInputBarFlag
p1226
I0
sVChatRoomId
p1227
I0
sVEncryChatRoomId
p1228
g52
sVAttrStatus
p1229
I102501
sVStatues
p1230
I0
stp1231
Rp1232
I1
bag34
(g38
g39
(dp1233
VUserName
p1234
V@6e1912339e9063012e2a7d1a118b077445163aa2290f6c6b70f009c34151cbc6
p1235
sVCity
p1236
g52
sVSnsFlag
p1237
I17
sVDisplayName
p1238
g52
sVUniFriend
p1239
I0
sVMemberCount
p1240
I0
sVOwnerUin
p1241
I0
sVMemberList
p1242
g50
sVAlias
p1243
g52
sVPYQuanPin
p1244
Vbumingzeyi
p1245
sVSignature
p1246
g52
sVRemarkPYInitial
p1247
VCXM
p1248
sVContactFlag
p1249
I3
sVUin
p1250
I0
sVNickName
p1251
V\u4e0d\u9e23\u5219\u5df2
p1252
sVAppAccountFlag
p1253
I0
sVVerifyFlag
p1254
I0
sVRemarkPYQuanPin
p1255
Vchenxiaoming
p1256
sVHeadImgUrl
p1257
V/cgi-bin/mmwebwx-bin/webwxgeticon?seq=668523709&username=@6e1912339e9063012e2a7d1a118b077445163aa2290f6c6b70f009c34151cbc6&skey=@crypt_6353e9d_531dc18c4e3ced3b7be79e57ad71caa4
p1258
sVKeyWord
p1259
g52
sVProvince
p1260
V\u6c5f\u82cf
p1261
sVPYInitial
p1262
VBMZY
p1263
sVRemarkName
p1264
V\u9648\u6653\u9e23
p1265
sVIsOwner
p1266
I0
sVSex
p1267
I2
sVStarFriend
p1268
I0
sVHideInputBarFlag
p1269
I0
sVChatRoomId
p1270
I0
sVEncryChatRoomId
p1271
g52
sVAttrStatus
p1272
I110629
sVStatues
p1273
I0
stp1274
Rp1275
I1
bag34
(g38
g39
(dp1276
VUserName
p1277
V@e4f7d608286b77286e50d8919eae62a25f255a3b139151febbd76951a8911c20
p1278
sVCity
p1279
g52
sVSnsFlag
p1280
I1
sVDisplayName
p1281
g52
sVUniFriend
p1282
I0
sVMemberCount
p1283
I0
sVOwnerUin
p1284
I0
sVMemberList
p1285
g50
sVAlias
p1286
g52
sVPYQuanPin
p1287
Vzuimeidehenji
p1288
sVSignature
p1289
g52
sVRemarkPYInitial
p1290
VLYY
p1291
sVContactFlag
p1292
I3
sVUin
p1293
I0
sVNickName
p1294
V\u6700\u7f8e\u7684\u75d5\u8ff9
p1295
sVAppAccountFlag
p1296
I0
sVVerifyFlag
p1297
I0
sVRemarkPYQuanPin
p1298
Vliuyaoying
p1299
sVHeadImgUrl
p1300
V/cgi-bin/mmwebwx-bin/webwxgeticon?seq=668524921&username=@e4f7d608286b77286e50d8919eae62a25f255a3b139151febbd76951a8911c20&skey=@crypt_6353e9d_531dc18c4e3ced3b7be79e57ad71caa4
p1301
sVKeyWord
p1302
g52
sVProvince
p1303
g52
sVPYInitial
p1304
VZMDHJ
p1305
sVRemarkName
p1306
V\u5218\u7476\u83b9
p1307
sVIsOwner
p1308
I0
sVSex
p1309
I0
sVStarFriend
p1310
I0
sVHideInputBarFlag
p1311
I0
sVChatRoomId
p1312
I0
sVEncryChatRoomId
p1313
g52
sVAttrStatus
p1314
I4133
sVStatues
p1315
I0
stp1316
Rp1317
I1
bag34
(g38
g39
(dp1318
VUserName
p1319
V@4595d55628685e423a87b5e06cee4a89
p1320
sVCity
p1321
V\u5357\u4eac
p1322
sVSnsFlag
p1323
I49
sVDisplayName
p1324
g52
sVUniFriend
p1325
I0
sVMemberCount
p1326
I0
sVOwnerUin
p1327
I0
sVMemberList
p1328
g50
sVAlias
p1329
g52
sVPYQuanPin
p1330
Vwyz
p1331
sVSignature
p1332
g52
sVRemarkPYInitial
p1333
g52
sVContactFlag
p1334
I3
sVUin
p1335
I0
sVNickName
p1336
Vwyz
p1337
sVAppAccountFlag
p1338
I0
sVVerifyFlag
p1339
I0
sVRemarkPYQuanPin
p1340
g52
sVHeadImgUrl
p1341
V/cgi-bin/mmwebwx-bin/webwxgeticon?seq=668518861&username=@4595d55628685e423a87b5e06cee4a89&skey=@crypt_6353e9d_531dc18c4e3ced3b7be79e57ad71caa4
p1342
sVKeyWord
p1343
Vwuy
p1344
sVProvince
p1345
V\u6c5f\u82cf
p1346
sVPYInitial
p1347
VWYZ
p1348
sVRemarkName
p1349
g52
sVIsOwner
p1350
I0
sVSex
p1351
I1
sVStarFriend
p1352
I0
sVHideInputBarFlag
p1353
I0
sVChatRoomId
p1354
I0
sVEncryChatRoomId
p1355
g52
sVAttrStatus
p1356
I235559
sVStatues
p1357
I0
stp1358
Rp1359
I1
bag34
(g38
g39
(dp1360
VUserName
p1361
V@d13a1cb4f84da4614f59f99ed39e61090f57793c4cf3b676e1174476c6b24b5c
p1362
sVCity
p1363
V\u6cf0\u5dde
p1364
sVSnsFlag
p1365
I17
sVDisplayName
p1366
g52
sVUniFriend
p1367
I0
sVMemberCount
p1368
I0
sVOwnerUin
p1369
I0
sVMemberList
p1370
g50
sVAlias
p1371
g52
sVPYQuanPin
p1372
Vlikelike
p1373
sVSignature
p1374
V\u542b\u6cea\u64ad\u79cd\u7684\u4eba\u4e00\u5b9a\u4f1a\u542b\u7b11\u800c\u83b7!
p1375
sVRemarkPYInitial
p1376
g52
sVContactFlag
p1377
I3
sVUin
p1378
I0
sVNickName
p1379
Vlike\u68a8\u53ef
p1380
sVAppAccountFlag
p1381
I0
sVVerifyFlag
p1382
I0
sVRemarkPYQuanPin
p1383
g52
sVHeadImgUrl
p1384
V/cgi-bin/mmwebwx-bin/webwxgeticon?seq=668514243&username=@d13a1cb4f84da4614f59f99ed39e61090f57793c4cf3b676e1174476c6b24b5c&skey=@crypt_6353e9d_531dc18c4e3ced3b7be79e57ad71caa4
p1385
sVKeyWord
p1386
g52
sVProvince
p1387
V\u6c5f\u82cf
p1388
sVPYInitial
p1389
VLIKELK
p1390
sVRemarkName
p1391
g52
sVIsOwner
p1392
I0
sVSex
p1393
I2
sVStarFriend
p1394
I0
sVHideInputBarFlag
p1395
I0
sVChatRoomId
p1396
I0
sVEncryChatRoomId
p1397
g52
sVAttrStatus
p1398
I110695
sVStatues
p1399
I0
stp1400
Rp1401
I1
bag34
(g38
g39
(dp1402
VUserName
p1403
V@37972d38e8782e80af6340b595a15d2f3b1c9333398e3add5c1df31254656ab8
p1404
sVCity
p1405
V\u5357\u4eac
p1406
sVSnsFlag
p1407
I49
sVDisplayName
p1408
g52
sVUniFriend
p1409
I0
sVMemberCount
p1410
I0
sVOwnerUin
p1411
I0
sVMemberList
p1412
g50
sVAlias
p1413
g52
sVPYQuanPin
p1414
Vdoudou
p1415
sVSignature
p1416
g52
sVRemarkPYInitial
p1417
g52
sVContactFlag
p1418
I3
sVUin
p1419
I0
sVNickName
p1420
V\u8c46\u8c46
p1421
sVAppAccountFlag
p1422
I0
sVVerifyFlag
p1423
I0
sVRemarkPYQuanPin
p1424
g52
sVHeadImgUrl
p1425
V/cgi-bin/mmwebwx-bin/webwxgeticon?seq=668523536&username=@37972d38e8782e80af6340b595a15d2f3b1c9333398e3add5c1df31254656ab8&skey=@crypt_6353e9d_531dc18c4e3ced3b7be79e57ad71caa4
p1426
sVKeyWord
p1427
Vzhe
p1428
sVProvince
p1429
V\u6c5f\u82cf
p1430
sVPYInitial
p1431
VDD
p1432
sVRemarkName
p1433
g52
sVIsOwner
p1434
I0
sVSex
p1435
I1
sVStarFriend
p1436
I0
sVHideInputBarFlag
p1437
I0
sVChatRoomId
p1438
I0
sVEncryChatRoomId
p1439
g52
sVAttrStatus
p1440
I235007
sVStatues
p1441
I0
stp1442
Rp1443
I1
bag34
(g38
g39
(dp1444
VUserName
p1445
V@4471e8b4ea8b17669a09b787ca380d9b
p1446
sVCity
p1447
V\u9ec4\u5188
p1448
sVSnsFlag
p1449
I17
sVDisplayName
p1450
g52
sVUniFriend
p1451
I0
sVMemberCount
p1452
I0
sVOwnerUin
p1453
I0
sVMemberList
p1454
g50
sVAlias
p1455
g52
sVPYQuanPin
p1456
Vxiongqitao
p1457
sVSignature
p1458
V\u51a5\u51a5\u4e4b\u4e2d\uff0c\u7531\u4e0d\u5f97\u4f60\u3002
p1459
sVRemarkPYInitial
p1460
g52
sVContactFlag
p1461
I3
sVUin
p1462
I0
sVNickName
p1463
V\u718a\u8572\u6d9b
p1464
sVAppAccountFlag
p1465
I0
sVVerifyFlag
p1466
I0
sVRemarkPYQuanPin
p1467
g52
sVHeadImgUrl
p1468
V/cgi-bin/mmwebwx-bin/webwxgeticon?seq=656884667&username=@4471e8b4ea8b17669a09b787ca380d9b&skey=@crypt_6353e9d_531dc18c4e3ced3b7be79e57ad71caa4
p1469
sVKeyWord
p1470
Vxqt
p1471
sVProvince
p1472
V\u6e56\u5317
p1473
sVPYInitial
p1474
VXQT
p1475
sVRemarkName
p1476
g52
sVIsOwner
p1477
I0
sVSex
p1478
I1
sVStarFriend
p1479
I0
sVHideInputBarFlag
p1480
I0
sVChatRoomId
p1481
I0
sVEncryChatRoomId
p1482
g52
sVAttrStatus
p1483
I233575
sVStatues
p1484
I0
stp1485
Rp1486
I1
bag34
(g38
g39
(dp1487
VUserName
p1488
V@16a3ce65921165740d66dd1e8decebd7
p1489
sVCity
p1490
V\u5357\u4eac
p1491
sVSnsFlag
p1492
I49
sVDisplayName
p1493
g52
sVUniFriend
p1494
I0
sVMemberCount
p1495
I0
sVOwnerUin
p1496
I0
sVMemberList
p1497
g50
sVAlias
p1498
g52
sVPYQuanPin
p1499
VAction
p1500
sVSignature
p1501
V\u751f\u547d\u5728\u4e8e\u594b\u6597\uff01
p1502
sVRemarkPYInitial
p1503
VZW
p1504
sVContactFlag
p1505
I3
sVUin
p1506
I0
sVNickName
p1507
VAction
p1508
sVAppAccountFlag
p1509
I0
sVVerifyFlag
p1510
I0
sVRemarkPYQuanPin
p1511
Vzhaowei
p1512
sVHeadImgUrl
p1513
V/cgi-bin/mmwebwx-bin/webwxgeticon?seq=668530464&username=@16a3ce65921165740d66dd1e8decebd7&skey=@crypt_6353e9d_531dc18c4e3ced3b7be79e57ad71caa4
p1514
sVKeyWord
p1515
Vgou
p1516
sVProvince
p1517
V\u6c5f\u82cf
p1518
sVPYInitial
p1519
VACTION
p1520
sVRemarkName
p1521
V\u8d75\u4f1f
p1522
sVIsOwner
p1523
I0
sVSex
p1524
I1
sVStarFriend
p1525
I0
sVHideInputBarFlag
p1526
I0
sVChatRoomId
p1527
I0
sVEncryChatRoomId
p1528
g52
sVAttrStatus
p1529
I100927
sVStatues
p1530
I0
stp1531
Rp1532
I1
bag34
(g38
g39
(dp1533
VUserName
p1534
V@c62516e4040df311fab64954ac549357b2f45fe362e5269d86ddd99e5bc0e663
p1535
sVCity
p1536
g52
sVSnsFlag
p1537
I17
sVDisplayName
p1538
g52
sVUniFriend
p1539
I0
sVMemberCount
p1540
I0
sVOwnerUin
p1541
I0
sVMemberList
p1542
g50
sVAlias
p1543
g52
sVPYQuanPin
p1544
Vjsmspanclassemojiemoji1f41aspanxiaomi
p1545
sVSignature
p1546
V\u989d\u989d\u989d
p1547
sVRemarkPYInitial
p1548
g52
sVContactFlag
p1549
I3
sVUin
p1550
I0
sVNickName
p1551
Vjsm\U0001f41a\u5c0f\u7c73
p1552
sVAppAccountFlag
p1553
I0
sVVerifyFlag
p1554
I0
sVRemarkPYQuanPin
p1555
g52
sVHeadImgUrl
p1556
V/cgi-bin/mmwebwx-bin/webwxgeticon?seq=668531987&username=@c62516e4040df311fab64954ac549357b2f45fe362e5269d86ddd99e5bc0e663&skey=@crypt_6353e9d_531dc18c4e3ced3b7be79e57ad71caa4
p1557
sVKeyWord
p1558
g52
sVProvince
p1559
g52
sVPYInitial
p1560
VJSMSPANCLASSEMOJIEMOJI1F41ASPANXM
p1561
sVRemarkName
p1562
g52
sVIsOwner
p1563
I0
sVSex
p1564
I2
sVStarFriend
p1565
I0
sVHideInputBarFlag
p1566
I0
sVChatRoomId
p1567
I0
sVEncryChatRoomId
p1568
g52
sVAttrStatus
p1569
I102501
sVStatues
p1570
I0
stp1571
Rp1572
I1
bag34
(g38
g39
(dp1573
VUserName
p1574
V@df99872d323ec2dbfa3abe86ea11d4cebe5c8e1229ba599867dfb36e13eec483
p1575
sVCity
p1576
V\u626c\u5dde
p1577
sVSnsFlag
p1578
I17
sVDisplayName
p1579
g52
sVUniFriend
p1580
I0
sVMemberCount
p1581
I0
sVOwnerUin
p1582
I0
sVMemberList
p1583
g50
sVAlias
p1584
g52
sVPYQuanPin
p1585
Vzhaolou
p1586
sVSignature
p1587
g52
sVRemarkPYInitial
p1588
VZL
p1589
sVContactFlag
p1590
I3
sVUin
p1591
I0
sVNickName
p1592
V\u8d75\u9732
p1593
sVAppAccountFlag
p1594
I0
sVVerifyFlag
p1595
I0
sVRemarkPYQuanPin
p1596
Vzhaolou
p1597
sVHeadImgUrl
p1598
V/cgi-bin/mmwebwx-bin/webwxgeticon?seq=668532384&username=@df99872d323ec2dbfa3abe86ea11d4cebe5c8e1229ba599867dfb36e13eec483&skey=@crypt_6353e9d_531dc18c4e3ced3b7be79e57ad71caa4
p1599
sVKeyWord
p1600
g52
sVProvince
p1601
V\u6c5f\u82cf
p1602
sVPYInitial
p1603
VZL
p1604
sVRemarkName
p1605
V\u8d75\u9732
p1606
sVIsOwner
p1607
I0
sVSex
p1608
I1
sVStarFriend
p1609
I0
sVHideInputBarFlag
p1610
I0
sVChatRoomId
p1611
I0
sVEncryChatRoomId
p1612
g52
sVAttrStatus
p1613
L2147586085L
sVStatues
p1614
I0
stp1615
Rp1616
I1
bag34
(g38
g39
(dp1617
VUserName
p1618
V@46e7c36e318415bd141e2fbd8f19cd3d2d258755a17e9cddfe605fc30eeb9314
p1619
sVCity
p1620
g52
sVSnsFlag
p1621
I1
sVDisplayName
p1622
g52
sVUniFriend
p1623
I0
sVMemberCount
p1624
I0
sVOwnerUin
p1625
I0
sVMemberList
p1626
g50
sVAlias
p1627
g52
sVPYQuanPin
p1628
Vtingyu
p1629
sVSignature
p1630
g52
sVRemarkPYInitial
p1631
g52
sVContactFlag
p1632
I32771
sVUin
p1633
I0
sVNickName
p1634
V\u542c\u96e8
p1635
sVAppAccountFlag
p1636
I0
sVVerifyFlag
p1637
I0
sVRemarkPYQuanPin
p1638
g52
sVHeadImgUrl
p1639
V/cgi-bin/mmwebwx-bin/webwxgeticon?seq=668534522&username=@46e7c36e318415bd141e2fbd8f19cd3d2d258755a17e9cddfe605fc30eeb9314&skey=@crypt_6353e9d_531dc18c4e3ced3b7be79e57ad71caa4
p1640
sVKeyWord
p1641
g52
sVProvince
p1642
g52
sVPYInitial
p1643
VTY
p1644
sVRemarkName
p1645
g52
sVIsOwner
p1646
I0
sVSex
p1647
I0
sVStarFriend
p1648
I0
sVHideInputBarFlag
p1649
I0
sVChatRoomId
p1650
I0
sVEncryChatRoomId
p1651
g52
sVAttrStatus
p1652
I135205
sVStatues
p1653
I0
stp1654
Rp1655
I1
bag34
(g38
g39
(dp1656
VUserName
p1657
V@4854eedc0e319154689b067673c7f9d5e984102e711e3f4b3f796c2e9cfacace
p1658
sVCity
p1659
g52
sVSnsFlag
p1660
I1
sVDisplayName
p1661
g52
sVUniFriend
p1662
I0
sVMemberCount
p1663
I0
sVOwnerUin
p1664
I0
sVMemberList
p1665
g50
sVAlias
p1666
g52
sVPYQuanPin
p1667
VDreamspanclassemojiemoji1f33bspan
p1668
sVSignature
p1669
V\u4f60\u82e5\u76db\u5f00 \u8774\u8776\u81ea\u6765
p1670
sVRemarkPYInitial
p1671
g52
sVContactFlag
p1672
I3
sVUin
p1673
I0
sVNickName
p1674
VDream\U0001f33b
p1675
sVAppAccountFlag
p1676
I0
sVVerifyFlag
p1677
I0
sVRemarkPYQuanPin
p1678
g52
sVHeadImgUrl
p1679
V/cgi-bin/mmwebwx-bin/webwxgeticon?seq=668499072&username=@4854eedc0e319154689b067673c7f9d5e984102e711e3f4b3f796c2e9cfacace&skey=@crypt_6353e9d_531dc18c4e3ced3b7be79e57ad71caa4
p1680
sVKeyWord
p1681
g52
sVProvince
p1682
VDubayy
p1683
sVPYInitial
p1684
VDREAMSPANCLASSEMOJIEMOJI1F33BSPAN
p1685
sVRemarkName
p1686
g52
sVIsOwner
p1687
I0
sVSex
p1688
I2
sVStarFriend
p1689
I0
sVHideInputBarFlag
p1690
I0
sVChatRoomId
p1691
I0
sVEncryChatRoomId
p1692
g52
sVAttrStatus
p1693
I104633
sVStatues
p1694
I0
stp1695
Rp1696
I1
bag34
(g38
g39
(dp1697
VUserName
p1698
V@c455dd6c360f93dbbf8e1a8540dc667132e908e70294b9450af18c1cc11a1e64
p1699
sVCity
p1700
V\u5357\u4eac
p1701
sVSnsFlag
p1702
I49
sVDisplayName
p1703
g52
sVUniFriend
p1704
I0
sVMemberCount
p1705
I0
sVOwnerUin
p1706
I0
sVMemberList
p1707
g50
sVAlias
p1708
g52
sVPYQuanPin
p1709
VAlexzhonglili???
p1710
sVSignature
p1711
V\u6709\u89d2\u7684\u7ef5\u7f8a
p1712
sVRemarkPYInitial
p1713
VZLL
p1714
sVContactFlag
p1715
I3
sVUin
p1716
I0
sVNickName
p1717
VAlex\u949f\u7b20\u7b20 \uc885\ub9bd\ub9bd
p1718
sVAppAccountFlag
p1719
I0
sVVerifyFlag
p1720
I0
sVRemarkPYQuanPin
p1721
Vzhonglili
p1722
sVHeadImgUrl
p1723
V/cgi-bin/mmwebwx-bin/webwxgeticon?seq=668537438&username=@c455dd6c360f93dbbf8e1a8540dc667132e908e70294b9450af18c1cc11a1e64&skey=@crypt_6353e9d_531dc18c4e3ced3b7be79e57ad71caa4
p1724
sVKeyWord
p1725
g52
sVProvince
p1726
V\u6c5f\u82cf
p1727
sVPYInitial
p1728
VALEXZLL???
p1729
sVRemarkName
p1730
V\u949f\u7b20\u7b20
p1731
sVIsOwner
p1732
I0
sVSex
p1733
I1
sVStarFriend
p1734
I0
sVHideInputBarFlag
p1735
I0
sVChatRoomId
p1736
I0
sVEncryChatRoomId
p1737
g52
sVAttrStatus
p1738
I203197
sVStatues
p1739
I0
stp1740
Rp1741
I1
bag34
(g38
g39
(dp1742
VUserName
p1743
V@ffb7f86ac38088bdb39f1bb717a7a6b3482feb3d6428e921f51912f39200a63c
p1744
sVCity
p1745
V\u4e30\u53f0
p1746
sVSnsFlag
p1747
I49
sVDisplayName
p1748
g52
sVUniFriend
p1749
I0
sVMemberCount
p1750
I0
sVOwnerUin
p1751
I0
sVMemberList
p1752
g50
sVAlias
p1753
g52
sVPYQuanPin
p1754
Vlianghaidechancaiwuzongbu
p1755
sVSignature
p1756
g52
sVRemarkPYInitial
p1757
VCWJLFYL
p1758
sVContactFlag
p1759
I3
sVUin
p1760
I0
sVNickName
p1761
V\u6881\u6d77\u5730\u4ea7\u8d22\u52a1\u603b\u90e8
p1762
sVAppAccountFlag
p1763
I0
sVVerifyFlag
p1764
I0
sVRemarkPYQuanPin
p1765
Vcaiwujinglifuyanling
p1766
sVHeadImgUrl
p1767
V/cgi-bin/mmwebwx-bin/webwxgeticon?seq=668538045&username=@ffb7f86ac38088bdb39f1bb717a7a6b3482feb3d6428e921f51912f39200a63c&skey=@crypt_6353e9d_531dc18c4e3ced3b7be79e57ad71caa4
p1768
sVKeyWord
p1769
g52
sVProvince
p1770
V\u5317\u4eac
p1771
sVPYInitial
p1772
VLHDCCWZB
p1773
sVRemarkName
p1774
V\u8d22\u52a1\u7ecf\u7406\u4ed8\u8273\u73b2
p1775
sVIsOwner
p1776
I0
sVSex
p1777
I2
sVStarFriend
p1778
I0
sVHideInputBarFlag
p1779
I0
sVChatRoomId
p1780
I0
sVEncryChatRoomId
p1781
g52
sVAttrStatus
p1782
I98813
sVStatues
p1783
I0
stp1784
Rp1785
I1
bag34
(g38
g39
(dp1786
VUserName
p1787
V@1410141a2bfd24a63f2b41d705b32092
p1788
sVCity
p1789
V\u6dee\u5b89
p1790
sVSnsFlag
p1791
I49
sVDisplayName
p1792
g52
sVUniFriend
p1793
I0
sVMemberCount
p1794
I0
sVOwnerUin
p1795
I0
sVMemberList
p1796
g50
sVAlias
p1797
g52
sVPYQuanPin
p1798
VA000zhishangyishupeixun
p1799
sVSignature
p1800
g52
sVRemarkPYInitial
p1801
VMJY
p1802
sVContactFlag
p1803
I65539
sVUin
p1804
I0
sVNickName
p1805
VA000\u5fd7\u5c1a\u827a\u672f\u57f9\u8bad
p1806
sVAppAccountFlag
p1807
I0
sVVerifyFlag
p1808
I0
sVRemarkPYQuanPin
p1809
Vmajiayue
p1810
sVHeadImgUrl
p1811
V/cgi-bin/mmwebwx-bin/webwxgeticon?seq=668537434&username=@1410141a2bfd24a63f2b41d705b32092&skey=@crypt_6353e9d_531dc18c4e3ced3b7be79e57ad71caa4
p1812
sVKeyWord
p1813
Vmaj
p1814
sVProvince
p1815
V\u6c5f\u82cf
p1816
sVPYInitial
p1817
VA000ZSYSPX
p1818
sVRemarkName
p1819
V\u9a6c\u5bb6\u4e50
p1820
sVIsOwner
p1821
I0
sVSex
p1822
I1
sVStarFriend
p1823
I0
sVHideInputBarFlag
p1824
I0
sVChatRoomId
p1825
I0
sVEncryChatRoomId
p1826
g52
sVAttrStatus
p1827
I4298853
sVStatues
p1828
I0
stp1829
Rp1830
I1
bag34
(g38
g39
(dp1831
VUserName
p1832
V@f9ecf1275bf785c5416ffd6f560c9bb858114fc8e253fb2184f5d43e7da74139
p1833
sVCity
p1834
g52
sVSnsFlag
p1835
I1
sVDisplayName
p1836
g52
sVUniFriend
p1837
I0
sVMemberCount
p1838
I0
sVOwnerUin
p1839
I0
sVMemberList
p1840
g50
sVAlias
p1841
g52
sVPYQuanPin
p1842
Vlangxingtianxia18952093555
p1843
sVSignature
p1844
g52
sVRemarkPYInitial
p1845
g52
sVContactFlag
p1846
I65539
sVUin
p1847
I0
sVNickName
p1848
V\u72fc\u884c\u5929\u4e0b18952093555
p1849
sVAppAccountFlag
p1850
I0
sVVerifyFlag
p1851
I0
sVRemarkPYQuanPin
p1852
g52
sVHeadImgUrl
p1853
V/cgi-bin/mmwebwx-bin/webwxgeticon?seq=668493572&username=@f9ecf1275bf785c5416ffd6f560c9bb858114fc8e253fb2184f5d43e7da74139&skey=@crypt_6353e9d_531dc18c4e3ced3b7be79e57ad71caa4
p1854
sVKeyWord
p1855
g52
sVProvince
p1856
g52
sVPYInitial
p1857
VLXTX18952093555
p1858
sVRemarkName
p1859
g52
sVIsOwner
p1860
I0
sVSex
p1861
I0
sVStarFriend
p1862
I0
sVHideInputBarFlag
p1863
I0
sVChatRoomId
p1864
I0
sVEncryChatRoomId
p1865
g52
sVAttrStatus
p1866
I4133
sVStatues
p1867
I0
stp1868
Rp1869
I1
bag34
(g38
g39
(dp1870
VUserName
p1871
V@2e59dd7abc3cda10d4706dd4454013bd090ea489f5f58f0a58e7782b83d745f9
p1872
sVCity
p1873
V\u8346\u5dde
p1874
sVSnsFlag
p1875
I1
sVDisplayName
p1876
g52
sVUniFriend
p1877
I0
sVMemberCount
p1878
I0
sVOwnerUin
p1879
I0
sVMemberList
p1880
g50
sVAlias
p1881
g52
sVPYQuanPin
p1882
Vhuolongguo
p1883
sVSignature
p1884
V\u4e00\u5bf8\u5149\u9634\u4e00\u5bf8\u91d1\uff0c\u5bf8\u91d1\u96be\u4e70\u5bf8\u5149\u9634
p1885
sVRemarkPYInitial
p1886
VNH
p1887
sVContactFlag
p1888
I3
sVUin
p1889
I0
sVNickName
p1890
V\u706b\u9f99\u679c
p1891
sVAppAccountFlag
p1892
I0
sVVerifyFlag
p1893
I0
sVRemarkPYQuanPin
p1894
Vnihao
p1895
sVHeadImgUrl
p1896
V/cgi-bin/mmwebwx-bin/webwxgeticon?seq=668526067&username=@2e59dd7abc3cda10d4706dd4454013bd090ea489f5f58f0a58e7782b83d745f9&skey=@crypt_6353e9d_531dc18c4e3ced3b7be79e57ad71caa4
p1897
sVKeyWord
p1898
g52
sVProvince
p1899
V\u6e56\u5317
p1900
sVPYInitial
p1901
VHLG
p1902
sVRemarkName
p1903
V\u4f60\u597d
p1904
sVIsOwner
p1905
I0
sVSex
p1906
I0
sVStarFriend
p1907
I0
sVHideInputBarFlag
p1908
I0
sVChatRoomId
p1909
I0
sVEncryChatRoomId
p1910
g52
sVAttrStatus
p1911
I4197
sVStatues
p1912
I0
stp1913
Rp1914
I1
bag34
(g38
g39
(dp1915
VUserName
p1916
V@bb4701062964b604e01409d30affb940fea7191134c75532df29cc5eb53e94e1
p1917
sVCity
p1918
g52
sVSnsFlag
p1919
I1
sVDisplayName
p1920
g52
sVUniFriend
p1921
I0
sVMemberCount
p1922
I0
sVOwnerUin
p1923
I0
sVMemberList
p1924
g50
sVAlias
p1925
g52
sVPYQuanPin
p1926
VG
p1927
sVSignature
p1928
g52
sVRemarkPYInitial
p1929
VMK
p1930
sVContactFlag
p1931
I3
sVUin
p1932
I0
sVNickName
p1933
g1927
sVAppAccountFlag
p1934
I0
sVVerifyFlag
p1935
I0
sVRemarkPYQuanPin
p1936
Vmakai
p1937
sVHeadImgUrl
p1938
V/cgi-bin/mmwebwx-bin/webwxgeticon?seq=668539732&username=@bb4701062964b604e01409d30affb940fea7191134c75532df29cc5eb53e94e1&skey=@crypt_6353e9d_531dc18c4e3ced3b7be79e57ad71caa4
p1939
sVKeyWord
p1940
g52
sVProvince
p1941
V\u6c5f\u82cf
p1942
sVPYInitial
p1943
g1927
sVRemarkName
p1944
V\u9a6c\u51ef
p1945
sVIsOwner
p1946
I0
sVSex
p1947
I1
sVStarFriend
p1948
I0
sVHideInputBarFlag
p1949
I0
sVChatRoomId
p1950
I0
sVEncryChatRoomId
p1951
g52
sVAttrStatus
p1952
I102437
sVStatues
p1953
I0
stp1954
Rp1955
I1
bag34
(g38
g39
(dp1956
VUserName
p1957
V@63025bddfa7df918d2303c1b44a3fc0e70dbd5d88307ccde39e7b19ed9ff7f60
p1958
sVCity
p1959
V\u5357\u4eac
p1960
sVSnsFlag
p1961
I17
sVDisplayName
p1962
g52
sVUniFriend
p1963
I0
sVMemberCount
p1964
I0
sVOwnerUin
p1965
I0
sVMemberList
p1966
g50
sVAlias
p1967
g52
sVPYQuanPin
p1968
Vfanan
p1969
sVSignature
p1970
g52
sVRemarkPYInitial
p1971
VFA
p1972
sVContactFlag
p1973
I3
sVUin
p1974
I0
sVNickName
p1975
V\u8303\u5b89
p1976
sVAppAccountFlag
p1977
I0
sVVerifyFlag
p1978
I0
sVRemarkPYQuanPin
p1979
Vfanan
p1980
sVHeadImgUrl
p1981
V/cgi-bin/mmwebwx-bin/webwxgeticon?seq=668539743&username=@63025bddfa7df918d2303c1b44a3fc0e70dbd5d88307ccde39e7b19ed9ff7f60&skey=@crypt_6353e9d_531dc18c4e3ced3b7be79e57ad71caa4
p1982
sVKeyWord
p1983
g52
sVProvince
p1984
V\u6c5f\u82cf
p1985
sVPYInitial
p1986
VFA
p1987
sVRemarkName
p1988
V\u8303\u5b89
p1989
sVIsOwner
p1990
I0
sVSex
p1991
I1
sVStarFriend
p1992
I0
sVHideInputBarFlag
p1993
I0
sVChatRoomId
p1994
I0
sVEncryChatRoomId
p1995
g52
sVAttrStatus
p1996
I36965
sVStatues
p1997
I0
stp1998
Rp1999
I1
bag34
(g38
g39
(dp2000
VUserName
p2001
V@98abb19e357f6ed90c9c092f56bc15be3f39badf3626b06f228cd1749b9a1823
p2002
sVCity
p2003
V\u5357\u4eac
p2004
sVSnsFlag
p2005
I1
sVDisplayName
p2006
g52
sVUniFriend
p2007
I0
sVMemberCount
p2008
I0
sVOwnerUin
p2009
I0
sVMemberList
p2010
g50
sVAlias
p2011
g52
sVPYQuanPin
p2012
VCampD
p2013
sVSignature
p2014
V\u5df1\u6240\u4e0d\u6b32\uff0c\u52ff\u65bd\u4e8e\u4eba\uff01
p2015
sVRemarkPYInitial
p2016
VNJDRKHCD
p2017
sVContactFlag
p2018
I3
sVUin
p2019
I0
sVNickName
p2020
VC&amp;D
p2021
sVAppAccountFlag
p2022
I0
sVVerifyFlag
p2023
I0
sVRemarkPYQuanPin
p2024
Vnajingdiruankehuchendong
p2025
sVHeadImgUrl
p2026
V/cgi-bin/mmwebwx-bin/webwxgeticon?seq=668538569&username=@98abb19e357f6ed90c9c092f56bc15be3f39badf3626b06f228cd1749b9a1823&skey=@crypt_6353e9d_531dc18c4e3ced3b7be79e57ad71caa4
p2027
sVKeyWord
p2028
g52
sVProvince
p2029
V\u6c5f\u82cf
p2030
sVPYInitial
p2031
VCAMPD
p2032
sVRemarkName
p2033
V\u5357\u4eac\u8fea\u8f6f\u5ba2\u6237 \u9648\u680b
p2034
sVIsOwner
p2035
I0
sVSex
p2036
I1
sVStarFriend
p2037
I0
sVHideInputBarFlag
p2038
I0
sVChatRoomId
p2039
I0
sVEncryChatRoomId
p2040
g52
sVAttrStatus
p2041
I104485
sVStatues
p2042
I0
stp2043
Rp2044
I1
bag34
(g38
g39
(dp2045
VUserName
p2046
V@e2408f7d742a8f91921ffb52a12523d2774995b65edb51c02de159e11fc1585f
p2047
sVCity
p2048
V\u6b66\u6c49
p2049
sVSnsFlag
p2050
I1
sVDisplayName
p2051
g52
sVUniFriend
p2052
I0
sVMemberCount
p2053
I0
sVOwnerUin
p2054
I0
sVMemberList
p2055
g50
sVAlias
p2056
g52
sVPYQuanPin
p2057
Vtongtong
p2058
sVSignature
p2059
V\u5f97\u4e4b\u5766\u7136\uff0c\u5931\u4e4b\u6de1\u7136\uff0c\u4e89\u53d6\u5fc5\u7136\uff0c\u987a\u5176\u81ea\u7136\u3002
p2060
sVRemarkPYInitial
p2061
g52
sVContactFlag
p2062
I3
sVUin
p2063
I0
sVNickName
p2064
V\u5f64\u5f64
p2065
sVAppAccountFlag
p2066
I0
sVVerifyFlag
p2067
I0
sVRemarkPYQuanPin
p2068
g52
sVHeadImgUrl
p2069
V/cgi-bin/mmwebwx-bin/webwxgeticon?seq=668538472&username=@e2408f7d742a8f91921ffb52a12523d2774995b65edb51c02de159e11fc1585f&skey=@crypt_6353e9d_531dc18c4e3ced3b7be79e57ad71caa4
p2070
sVKeyWord
p2071
g52
sVProvince
p2072
V\u6e56\u5317
p2073
sVPYInitial
p2074
VTT
p2075
sVRemarkName
p2076
g52
sVIsOwner
p2077
I0
sVSex
p2078
I2
sVStarFriend
p2079
I0
sVHideInputBarFlag
p2080
I0
sVChatRoomId
p2081
I0
sVEncryChatRoomId
p2082
g52
sVAttrStatus
p2083
I234277
sVStatues
p2084
I0
stp2085
Rp2086
I1
bag34
(g38
g39
(dp2087
VUserName
p2088
V@ae70b00356e8a011c8012984dd9bbd40513dbfa9134b02cdb850b9bf6a890ac8
p2089
sVCity
p2090
V\u9675\u6c34
p2091
sVSnsFlag
p2092
I1
sVDisplayName
p2093
g52
sVUniFriend
p2094
I0
sVMemberCount
p2095
I0
sVOwnerUin
p2096
I0
sVMemberList
p2097
g50
sVAlias
p2098
g52
sVPYQuanPin
p2099
VHemingway
p2100
sVSignature
p2101
V\u554a
p2102
sVRemarkPYInitial
p2103
VWHM
p2104
sVContactFlag
p2105
I3
sVUin
p2106
I0
sVNickName
p2107
VHemingway
p2108
sVAppAccountFlag
p2109
I0
sVVerifyFlag
p2110
I0
sVRemarkPYQuanPin
p2111
Vwuhaiming
p2112
sVHeadImgUrl
p2113
V/cgi-bin/mmwebwx-bin/webwxgeticon?seq=656881823&username=@ae70b00356e8a011c8012984dd9bbd40513dbfa9134b02cdb850b9bf6a890ac8&skey=@crypt_6353e9d_531dc18c4e3ced3b7be79e57ad71caa4
p2114
sVKeyWord
p2115
g52
sVProvince
p2116
V\u6d77\u5357
p2117
sVPYInitial
p2118
VHEMINGWAY
p2119
sVRemarkName
p2120
V\u4e4c\u6d77\u9e23
p2121
sVIsOwner
p2122
I0
sVSex
p2123
I1
sVStarFriend
p2124
I0
sVHideInputBarFlag
p2125
I0
sVChatRoomId
p2126
I0
sVEncryChatRoomId
p2127
g52
sVAttrStatus
p2128
I102439
sVStatues
p2129
I0
stp2130
Rp2131
I1
bag34
(g38
g39
(dp2132
VUserName
p2133
V@b53eb0d1f07dfd0581d671084404db75ddf31dc93fae4a87f45888d84c7b6ec6
p2134
sVCity
p2135
V\u6dee\u5b89
p2136
sVSnsFlag
p2137
I17
sVDisplayName
p2138
g52
sVUniFriend
p2139
I0
sVMemberCount
p2140
I0
sVOwnerUin
p2141
I0
sVMemberList
p2142
g50
sVAlias
p2143
g52
sVPYQuanPin
p2144
Vmaze
p2145
sVSignature
p2146
V\u4e3b\u4eba\u5f88\u61d2\uff0c\u5f85\u66f4\u65b0\u2026\u2026
p2147
sVRemarkPYInitial
p2148
g52
sVContactFlag
p2149
I3
sVUin
p2150
I0
sVNickName
p2151
V\u9a6c\u6cfd
p2152
sVAppAccountFlag
p2153
I0
sVVerifyFlag
p2154
I0
sVRemarkPYQuanPin
p2155
g52
sVHeadImgUrl
p2156
V/cgi-bin/mmwebwx-bin/webwxgeticon?seq=668531070&username=@b53eb0d1f07dfd0581d671084404db75ddf31dc93fae4a87f45888d84c7b6ec6&skey=@crypt_6353e9d_531dc18c4e3ced3b7be79e57ad71caa4
p2157
sVKeyWord
p2158
g52
sVProvince
p2159
V\u6c5f\u82cf
p2160
sVPYInitial
p2161
VMZ
p2162
sVRemarkName
p2163
g52
sVIsOwner
p2164
I0
sVSex
p2165
I1
sVStarFriend
p2166
I0
sVHideInputBarFlag
p2167
I0
sVChatRoomId
p2168
I0
sVEncryChatRoomId
p2169
g52
sVAttrStatus
p2170
I168231
sVStatues
p2171
I0
stp2172
Rp2173
I1
bag34
(g38
g39
(dp2174
VUserName
p2175
V@bc36340b06981d7b528959fdf508e98732660c9582243f5ce6703047b9d02353
p2176
sVCity
p2177
V\u5357\u4eac
p2178
sVSnsFlag
p2179
I1
sVDisplayName
p2180
g52
sVUniFriend
p2181
I0
sVMemberCount
p2182
I0
sVOwnerUin
p2183
I0
sVMemberList
p2184
g50
sVAlias
p2185
g52
sVPYQuanPin
p2186
Vsu
p2187
sVSignature
p2188
V\u60df\u613f\uff1a\u73b0\u4e16\u5b89\u7a33\u3001\u5c81\u6708\u9759\u597d\uff01
p2189
sVRemarkPYInitial
p2190
VSY
p2191
sVContactFlag
p2192
I3
sVUin
p2193
I0
sVNickName
p2194
Vsu
p2195
sVAppAccountFlag
p2196
I0
sVVerifyFlag
p2197
I0
sVRemarkPYQuanPin
p2198
Vsuya
p2199
sVHeadImgUrl
p2200
V/cgi-bin/mmwebwx-bin/webwxgeticon?seq=668537173&username=@bc36340b06981d7b528959fdf508e98732660c9582243f5ce6703047b9d02353&skey=@crypt_6353e9d_531dc18c4e3ced3b7be79e57ad71caa4
p2201
sVKeyWord
p2202
g52
sVProvince
p2203
V\u6c5f\u82cf
p2204
sVPYInitial
p2205
VSU
p2206
sVRemarkName
p2207
V\u82cf\u96c5
p2208
sVIsOwner
p2209
I0
sVSex
p2210
I2
sVStarFriend
p2211
I0
sVHideInputBarFlag
p2212
I0
sVChatRoomId
p2213
I0
sVEncryChatRoomId
p2214
g52
sVAttrStatus
p2215
I6437
sVStatues
p2216
I0
stp2217
Rp2218
I1
bag34
(g38
g39
(dp2219
VUserName
p2220
V@27fd9539bd8167d1ef29c58e7e0782bb91747c50d489abaff888e54930095d08
p2221
sVCity
p2222
g52
sVSnsFlag
p2223
I0
sVDisplayName
p2224
g52
sVUniFriend
p2225
I0
sVMemberCount
p2226
I0
sVOwnerUin
p2227
I0
sVMemberList
p2228
g50
sVAlias
p2229
g52
sVPYQuanPin
p2230
Vxingkongshidaoguolaidehai
p2231
sVSignature
p2232
g52
sVRemarkPYInitial
p2233
VLWT
p2234
sVContactFlag
p2235
I3
sVUin
p2236
I0
sVNickName
p2237
V\u661f\u7a7a\u662f\u5012\u8fc7\u6765\u7684\u6d77
p2238
sVAppAccountFlag
p2239
I0
sVVerifyFlag
p2240
I0
sVRemarkPYQuanPin
p2241
Vliuwenting
p2242
sVHeadImgUrl
p2243
V/cgi-bin/mmwebwx-bin/webwxgeticon?seq=668541128&username=@27fd9539bd8167d1ef29c58e7e0782bb91747c50d489abaff888e54930095d08&skey=@crypt_6353e9d_531dc18c4e3ced3b7be79e57ad71caa4
p2244
sVKeyWord
p2245
g52
sVProvince
p2246
g52
sVPYInitial
p2247
VXKSDGLDH
p2248
sVRemarkName
p2249
V\u5218\u6587\u5a77
p2250
sVIsOwner
p2251
I0
sVSex
p2252
I2
sVStarFriend
p2253
I0
sVHideInputBarFlag
p2254
I0
sVChatRoomId
p2255
I0
sVEncryChatRoomId
p2256
g52
sVAttrStatus
p2257
I135269
sVStatues
p2258
I0
stp2259
Rp2260
I1
bag34
(g38
g39
(dp2261
VUserName
p2262
V@7098a409b476a4d7e5453607a1e03b8058f5a2b33c2acc8201a737c20f04aef2
p2263
sVCity
p2264
V\u6dee\u5b89
p2265
sVSnsFlag
p2266
I17
sVDisplayName
p2267
g52
sVUniFriend
p2268
I0
sVMemberCount
p2269
I0
sVOwnerUin
p2270
I0
sVMemberList
p2271
g50
sVAlias
p2272
g52
sVPYQuanPin
p2273
VAspanclassemojiemoji1f388spanxiangrikuideweixiao
p2274
sVSignature
p2275
g52
sVRemarkPYInitial
p2276
VHXH
p2277
sVContactFlag
p2278
I8195
sVUin
p2279
I0
sVNickName
p2280
VA\U0001f388\u5411\u65e5\u8475\u7684\u5fae\u7b11
p2281
sVAppAccountFlag
p2282
I0
sVVerifyFlag
p2283
I0
sVRemarkPYQuanPin
p2284
Vhanxianghui
p2285
sVHeadImgUrl
p2286
V/cgi-bin/mmwebwx-bin/webwxgeticon?seq=668541273&username=@7098a409b476a4d7e5453607a1e03b8058f5a2b33c2acc8201a737c20f04aef2&skey=@crypt_6353e9d_531dc18c4e3ced3b7be79e57ad71caa4
p2287
sVKeyWord
p2288
g52
sVProvince
p2289
V\u6c5f\u82cf
p2290
sVPYInitial
p2291
VASPANCLASSEMOJIEMOJI1F388SPANXRKDWX
p2292
sVRemarkName
p2293
V\u97e9\u7965\u6167
p2294
sVIsOwner
p2295
I0
sVSex
p2296
I2
sVStarFriend
p2297
I0
sVHideInputBarFlag
p2298
I0
sVChatRoomId
p2299
I0
sVEncryChatRoomId
p2300
g52
sVAttrStatus
p2301
L2147586533L
sVStatues
p2302
I0
stp2303
Rp2304
I1
bag34
(g38
g39
(dp2305
VUserName
p2306
V@0b248a971143dd8d4b271fe12076f22751aa0284a66c361275bb30dc4b2adba8
p2307
sVCity
p2308
V\u767d\u57ce
p2309
sVSnsFlag
p2310
I17
sVDisplayName
p2311
g52
sVUniFriend
p2312
I0
sVMemberCount
p2313
I0
sVOwnerUin
p2314
I0
sVMemberList
p2315
g50
sVAlias
p2316
g52
sVPYQuanPin
p2317
Vanjingxuexi
p2318
sVSignature
p2319
V\u6211\u6240\u575a\u4fe1\u7684\uff0c\u6211\u5c06\u575a\u6301\u5230\u5e95
p2320
sVRemarkPYInitial
p2321
g52
sVContactFlag
p2322
I3
sVUin
p2323
I0
sVNickName
p2324
V\u5b89\u9759\u5b66\u4e60
p2325
sVAppAccountFlag
p2326
I0
sVVerifyFlag
p2327
I0
sVRemarkPYQuanPin
p2328
g52
sVHeadImgUrl
p2329
V/cgi-bin/mmwebwx-bin/webwxgeticon?seq=668529144&username=@0b248a971143dd8d4b271fe12076f22751aa0284a66c361275bb30dc4b2adba8&skey=@crypt_6353e9d_531dc18c4e3ced3b7be79e57ad71caa4
p2330
sVKeyWord
p2331
g52
sVProvince
p2332
V\u5409\u6797
p2333
sVPYInitial
p2334
VAJXX
p2335
sVRemarkName
p2336
g52
sVIsOwner
p2337
I0
sVSex
p2338
I1
sVStarFriend
p2339
I0
sVHideInputBarFlag
p2340
I0
sVChatRoomId
p2341
I0
sVEncryChatRoomId
p2342
g52
sVAttrStatus
p2343
I4135
sVStatues
p2344
I0
stp2345
Rp2346
I1
bag34
(g38
g39
(dp2347
VUserName
p2348
V@b026bd289cc88d50181c4a8fa0f53e55b16eca9c84d7a2243188eb6bf86c08e8
p2349
sVCity
p2350
V\u5357\u4eac
p2351
sVSnsFlag
p2352
I17
sVDisplayName
p2353
g52
sVUniFriend
p2354
I0
sVMemberCount
p2355
I0
sVOwnerUin
p2356
I0
sVMemberList
p2357
g50
sVAlias
p2358
g52
sVPYQuanPin
p2359
Vspanclassemojiemoji1f435span
p2360
sVSignature
p2361
g52
sVRemarkPYInitial
p2362
g52
sVContactFlag
p2363
I3
sVUin
p2364
I0
sVNickName
p2365
V\U0001f435
p2366
sVAppAccountFlag
p2367
I0
sVVerifyFlag
p2368
I0
sVRemarkPYQuanPin
p2369
g52
sVHeadImgUrl
p2370
V/cgi-bin/mmwebwx-bin/webwxgeticon?seq=656890541&username=@b026bd289cc88d50181c4a8fa0f53e55b16eca9c84d7a2243188eb6bf86c08e8&skey=@crypt_6353e9d_531dc18c4e3ced3b7be79e57ad71caa4
p2371
sVKeyWord
p2372
g52
sVProvince
p2373
V\u6c5f\u82cf
p2374
sVPYInitial
p2375
VSPANCLASSEMOJIEMOJI1F435SPAN
p2376
sVRemarkName
p2377
g52
sVIsOwner
p2378
I0
sVSex
p2379
I1
sVStarFriend
p2380
I0
sVHideInputBarFlag
p2381
I0
sVChatRoomId
p2382
I0
sVEncryChatRoomId
p2383
g52
sVAttrStatus
p2384
I4133
sVStatues
p2385
I0
stp2386
Rp2387
I1
bag34
(g38
g39
(dp2388
VUserName
p2389
V@939828c61d5241a9b6742158eb5bc52c895864d5a5f0cd0426d6c6294badb546
p2390
sVCity
p2391
V\u9a6c\u978d\u5c71
p2392
sVSnsFlag
p2393
I17
sVDisplayName
p2394
g52
sVUniFriend
p2395
I0
sVMemberCount
p2396
I0
sVOwnerUin
p2397
I0
sVMemberList
p2398
g50
sVAlias
p2399
g52
sVPYQuanPin
p2400
Vcaicai
p2401
sVSignature
p2402
V\u6211\u6765\u4e86\uff0c\u6211\u7d2f\u4e86\uff0c\u6211\u597d\u4e86\uff0c\u6211\u8d70\u4e86\u3002
p2403
sVRemarkPYInitial
p2404
g52
sVContactFlag
p2405
I3
sVUin
p2406
I0
sVNickName
p2407
V\u83dc\u83dc
p2408
sVAppAccountFlag
p2409
I0
sVVerifyFlag
p2410
I0
sVRemarkPYQuanPin
p2411
g52
sVHeadImgUrl
p2412
V/cgi-bin/mmwebwx-bin/webwxgeticon?seq=668540783&username=@939828c61d5241a9b6742158eb5bc52c895864d5a5f0cd0426d6c6294badb546&skey=@crypt_6353e9d_531dc18c4e3ced3b7be79e57ad71caa4
p2413
sVKeyWord
p2414
g52
sVProvince
p2415
V\u5b89\u5fbd
p2416
sVPYInitial
p2417
VCC
p2418
sVRemarkName
p2419
g52
sVIsOwner
p2420
I0
sVSex
p2421
I2
sVStarFriend
p2422
I0
sVHideInputBarFlag
p2423
I0
sVChatRoomId
p2424
I0
sVEncryChatRoomId
p2425
g52
sVAttrStatus
p2426
I232933
sVStatues
p2427
I0
stp2428
Rp2429
I1
bag34
(g38
g39
(dp2430
VUserName
p2431
V@ac6ba9d8fd941bd97dc79c7839b08a51
p2432
sVCity
p2433
V\u676d\u5dde
p2434
sVSnsFlag
p2435
I49
sVDisplayName
p2436
g52
sVUniFriend
p2437
I0
sVMemberCount
p2438
I0
sVOwnerUin
p2439
I0
sVMemberList
p2440
g50
sVAlias
p2441
g52
sVPYQuanPin
p2442
Vmumu
p2443
sVSignature
p2444
V\u6d77\u5e95\u6708\u662f\u5929\u4e0a\u6708\uff0c\u773c\u524d\u4eba\u662f\u5fc3\u4e0a\u4eba\u3002
p2445
sVRemarkPYInitial
p2446
VLZ
p2447
sVContactFlag
p2448
I3
sVUin
p2449
I0
sVNickName
p2450
V\u6728\u6728
p2451
sVAppAccountFlag
p2452
I0
sVVerifyFlag
p2453
I0
sVRemarkPYQuanPin
p2454
Vlinzhi
p2455
sVHeadImgUrl
p2456
V/cgi-bin/mmwebwx-bin/webwxgeticon?seq=668507945&username=@ac6ba9d8fd941bd97dc79c7839b08a51&skey=@crypt_6353e9d_531dc18c4e3ced3b7be79e57ad71caa4
p2457
sVKeyWord
p2458
Vlin
p2459
sVProvince
p2460
V\u6d59\u6c5f
p2461
sVPYInitial
p2462
VMM
p2463
sVRemarkName
p2464
V\u6797\u77e5
p2465
sVIsOwner
p2466
I0
sVSex
p2467
I1
sVStarFriend
p2468
I0
sVHideInputBarFlag
p2469
I0
sVChatRoomId
p2470
I0
sVEncryChatRoomId
p2471
g52
sVAttrStatus
p2472
I105471
sVStatues
p2473
I0
stp2474
Rp2475
I1
bag34
(g38
g39
(dp2476
VUserName
p2477
V@dce09b5c22d3c9b8f60dda2c306947a3c156a3ddc035883c7aa4ea995c0f02a6
p2478
sVCity
p2479
V\u626c\u5dde
p2480
sVSnsFlag
p2481
I49
sVDisplayName
p2482
g52
sVUniFriend
p2483
I0
sVMemberCount
p2484
I0
sVOwnerUin
p2485
I0
sVMemberList
p2486
g50
sVAlias
p2487
g52
sVPYQuanPin
p2488
VElaborate
p2489
sVSignature
p2490
V\u56de\u4e0d\u53bb\u7684\u8fc7\u53bb\uff0c\u731c\u4e0d\u900f\u7684\u4eba\u5fc3......
p2491
sVRemarkPYInitial
p2492
g52
sVContactFlag
p2493
I3
sVUin
p2494
I0
sVNickName
p2495
VElaborate
p2496
sVAppAccountFlag
p2497
I0
sVVerifyFlag
p2498
I0
sVRemarkPYQuanPin
p2499
g52
sVHeadImgUrl
p2500
V/cgi-bin/mmwebwx-bin/webwxgeticon?seq=668528973&username=@dce09b5c22d3c9b8f60dda2c306947a3c156a3ddc035883c7aa4ea995c0f02a6&skey=@crypt_6353e9d_531dc18c4e3ced3b7be79e57ad71caa4
p2501
sVKeyWord
p2502
g52
sVProvince
p2503
V\u6c5f\u82cf
p2504
sVPYInitial
p2505
VELABORATE
p2506
sVRemarkName
p2507
g52
sVIsOwner
p2508
I0
sVSex
p2509
I2
sVStarFriend
p2510
I0
sVHideInputBarFlag
p2511
I0
sVChatRoomId
p2512
I0
sVEncryChatRoomId
p2513
g52
sVAttrStatus
p2514
I33659943
sVStatues
p2515
I0
stp2516
Rp2517
I1
bag34
(g38
g39
(dp2518
VUserName
p2519
V@23c8e8cd2c09bad027d9c1b719e6338cef4596e8e7664fd139b0f5b4b2f5c2f2
p2520
sVCity
p2521
V\u6cf0\u5dde
p2522
sVSnsFlag
p2523
I17
sVDisplayName
p2524
g52
sVUniFriend
p2525
I0
sVMemberCount
p2526
I0
sVOwnerUin
p2527
I0
sVMemberList
p2528
g50
sVAlias
p2529
g52
sVPYQuanPin
p2530
VHY
p2531
sVSignature
p2532
g52
sVRemarkPYInitial
p2533
g52
sVContactFlag
p2534
I3
sVUin
p2535
I0
sVNickName
p2536
VHY\u3002
p2537
sVAppAccountFlag
p2538
I0
sVVerifyFlag
p2539
I0
sVRemarkPYQuanPin
p2540
g52
sVHeadImgUrl
p2541
V/cgi-bin/mmwebwx-bin/webwxgeticon?seq=668542995&username=@23c8e8cd2c09bad027d9c1b719e6338cef4596e8e7664fd139b0f5b4b2f5c2f2&skey=@crypt_6353e9d_531dc18c4e3ced3b7be79e57ad71caa4
p2542
sVKeyWord
p2543
g52
sVProvince
p2544
V\u6c5f\u82cf
p2545
sVPYInitial
p2546
VHY
p2547
sVRemarkName
p2548
g52
sVIsOwner
p2549
I0
sVSex
p2550
I2
sVStarFriend
p2551
I0
sVHideInputBarFlag
p2552
I0
sVChatRoomId
p2553
I0
sVEncryChatRoomId
p2554
g52
sVAttrStatus
p2555
I103013
sVStatues
p2556
I0
stp2557
Rp2558
I1
bag34
(g38
g39
(dp2559
VUserName
p2560
V@00fe1680811804b8243d4022b31f09e7
p2561
sVCity
p2562
V\u5927\u540c
p2563
sVSnsFlag
p2564
I17
sVDisplayName
p2565
g52
sVUniFriend
p2566
I0
sVMemberCount
p2567
I0
sVOwnerUin
p2568
I0
sVMemberList
p2569
g50
sVAlias
p2570
g52
sVPYQuanPin
p2571
Vcaowei
p2572
sVSignature
p2573
V\u4f60\u662f\u94e0\u7532\u4e5f\u662f\u8f6f\u808b
p2574
sVRemarkPYInitial
p2575
g52
sVContactFlag
p2576
I3
sVUin
p2577
I0
sVNickName
p2578
V\u66f9\u7eac
p2579
sVAppAccountFlag
p2580
I0
sVVerifyFlag
p2581
I0
sVRemarkPYQuanPin
p2582
g52
sVHeadImgUrl
p2583
V/cgi-bin/mmwebwx-bin/webwxgeticon?seq=668541249&username=@00fe1680811804b8243d4022b31f09e7&skey=@crypt_6353e9d_531dc18c4e3ced3b7be79e57ad71caa4
p2584
sVKeyWord
p2585
Vwei
p2586
sVProvince
p2587
V\u5c71\u897f
p2588
sVPYInitial
p2589
VCW
p2590
sVRemarkName
p2591
g52
sVIsOwner
p2592
I0
sVSex
p2593
I1
sVStarFriend
p2594
I0
sVHideInputBarFlag
p2595
I0
sVChatRoomId
p2596
I0
sVEncryChatRoomId
p2597
g52
sVAttrStatus
p2598
I102847
sVStatues
p2599
I0
stp2600
Rp2601
I1
bag34
(g38
g39
(dp2602
VUserName
p2603
V@0dde7d576b4df33d377e63ebf1d86bbc04785a30573d8d5a640d26c8d5f51e73
p2604
sVCity
p2605
V\u5357\u4eac
p2606
sVSnsFlag
p2607
I49
sVDisplayName
p2608
g52
sVUniFriend
p2609
I0
sVMemberCount
p2610
I0
sVOwnerUin
p2611
I0
sVMemberList
p2612
g50
sVAlias
p2613
g52
sVPYQuanPin
p2614
Vjiayibingding
p2615
sVSignature
p2616
V\u4ece\u524d\u73b0\u5728\u8fc7\u53bb\u4e86\u518d\u4e0d\u6765
p2617
sVRemarkPYInitial
p2618
VJYBD
p2619
sVContactFlag
p2620
I3
sVUin
p2621
I0
sVNickName
p2622
V\u7532\u4e59\u4e19\u4e01
p2623
sVAppAccountFlag
p2624
I0
sVVerifyFlag
p2625
I0
sVRemarkPYQuanPin
p2626
Vjiayibingding
p2627
sVHeadImgUrl
p2628
V/cgi-bin/mmwebwx-bin/webwxgeticon?seq=668543036&username=@0dde7d576b4df33d377e63ebf1d86bbc04785a30573d8d5a640d26c8d5f51e73&skey=@crypt_6353e9d_531dc18c4e3ced3b7be79e57ad71caa4
p2629
sVKeyWord
p2630
g52
sVProvince
p2631
V\u6c5f\u82cf
p2632
sVPYInitial
p2633
VJYBD
p2634
sVRemarkName
p2635
V\u7532\u4e59\u4e19\u4e01
p2636
sVIsOwner
p2637
I0
sVSex
p2638
I2
sVStarFriend
p2639
I0
sVHideInputBarFlag
p2640
I0
sVChatRoomId
p2641
I0
sVEncryChatRoomId
p2642
g52
sVAttrStatus
p2643
I104549
sVStatues
p2644
I0
stp2645
Rp2646
I1
bag34
(g38
g39
(dp2647
VUserName
p2648
V@75c3118f38ea2c93e83b79bad6a1902ef0074a8744f3612864ea5a45841b72af
p2649
sVCity
p2650
g52
sVSnsFlag
p2651
I1
sVDisplayName
p2652
g52
sVUniFriend
p2653
I0
sVMemberCount
p2654
I0
sVOwnerUin
p2655
I0
sVMemberList
p2656
g50
sVAlias
p2657
g52
sVPYQuanPin
p2658
VBetterman
p2659
sVSignature
p2660
V\u7231\u4e00\u4eba\u7ec8\u8001
p2661
sVRemarkPYInitial
p2662
VWL
p2663
sVContactFlag
p2664
I1
sVUin
p2665
I0
sVNickName
p2666
VBetter man
p2667
sVAppAccountFlag
p2668
I0
sVVerifyFlag
p2669
I0
sVRemarkPYQuanPin
p2670
Vwanglei
p2671
sVHeadImgUrl
p2672
V/cgi-bin/mmwebwx-bin/webwxgeticon?seq=668543313&username=@75c3118f38ea2c93e83b79bad6a1902ef0074a8744f3612864ea5a45841b72af&skey=@crypt_6353e9d_531dc18c4e3ced3b7be79e57ad71caa4
p2673
sVKeyWord
p2674
g52
sVProvince
p2675
VDubayy
p2676
sVPYInitial
p2677
VBETTERMAN
p2678
sVRemarkName
p2679
V\u738b\u78ca
p2680
sVIsOwner
p2681
I0
sVSex
p2682
I1
sVStarFriend
p2683
I0
sVHideInputBarFlag
p2684
I0
sVChatRoomId
p2685
I0
sVEncryChatRoomId
p2686
g52
sVAttrStatus
p2687
I104485
sVStatues
p2688
I0
stp2689
Rp2690
I1
bag34
(g38
g39
(dp2691
VUserName
p2692
V@c22178e48bae1c7b487cf07d2ee5f955
p2693
sVCity
p2694
V\u5357\u4eac
p2695
sVSnsFlag
p2696
I49
sVDisplayName
p2697
g52
sVUniFriend
p2698
I0
sVMemberCount
p2699
I0
sVOwnerUin
p2700
I0
sVMemberList
p2701
g50
sVAlias
p2702
g52
sVPYQuanPin
p2703
Vedceezyyy
p2704
sVSignature
p2705
V      \u5b66\u4f1a\u8046\u542c
p2706
sVRemarkPYInitial
p2707
VGL
p2708
sVContactFlag
p2709
I3
sVUin
p2710
I0
sVNickName
p2711
Vedceezyyy.
p2712
sVAppAccountFlag
p2713
I0
sVVerifyFlag
p2714
I0
sVRemarkPYQuanPin
p2715
Vgaoli
p2716
sVHeadImgUrl
p2717
V/cgi-bin/mmwebwx-bin/webwxgeticon?seq=668527170&username=@c22178e48bae1c7b487cf07d2ee5f955&skey=@crypt_6353e9d_531dc18c4e3ced3b7be79e57ad71caa4
p2718
sVKeyWord
p2719
Vglx
p2720
sVProvince
p2721
V\u6c5f\u82cf
p2722
sVPYInitial
p2723
VEDCEEZYYY
p2724
sVRemarkName
p2725
V\u9ad8\u529b
p2726
sVIsOwner
p2727
I0
sVSex
p2728
I1
sVStarFriend
p2729
I0
sVHideInputBarFlag
p2730
I0
sVChatRoomId
p2731
I0
sVEncryChatRoomId
p2732
g52
sVAttrStatus
p2733
I100711
sVStatues
p2734
I0
stp2735
Rp2736
I1
bag34
(g38
g39
(dp2737
VUserName
p2738
V@86f914e0008ccc8250fbd139570c3c0d3ec5bb153ee8d731721de5bb40c8ae1c
p2739
sVCity
p2740
V\u626c\u5dde
p2741
sVSnsFlag
p2742
I49
sVDisplayName
p2743
g52
sVUniFriend
p2744
I0
sVMemberCount
p2745
I0
sVOwnerUin
p2746
I0
sVMemberList
p2747
g50
sVAlias
p2748
g52
sVPYQuanPin
p2749
Vspanclassemojiemoji1f451spanzhenyuya
p2750
sVSignature
p2751
V\u77e5\u4eba\u4e0d\u8bc4\u4eba
p2752
sVRemarkPYInitial
p2753
g52
sVContactFlag
p2754
I3
sVUin
p2755
I0
sVNickName
p2756
V\U0001f451\u632f\u5b87\u5440\uff01
p2757
sVAppAccountFlag
p2758
I0
sVVerifyFlag
p2759
I0
sVRemarkPYQuanPin
p2760
g52
sVHeadImgUrl
p2761
V/cgi-bin/mmwebwx-bin/webwxgeticon?seq=668543926&username=@86f914e0008ccc8250fbd139570c3c0d3ec5bb153ee8d731721de5bb40c8ae1c&skey=@crypt_6353e9d_531dc18c4e3ced3b7be79e57ad71caa4
p2762
sVKeyWord
p2763
g52
sVProvince
p2764
V\u6c5f\u82cf
p2765
sVPYInitial
p2766
VSPANCLASSEMOJIEMOJI1F451SPANZYY
p2767
sVRemarkName
p2768
g52
sVIsOwner
p2769
I0
sVSex
p2770
I2
sVStarFriend
p2771
I0
sVHideInputBarFlag
p2772
I0
sVChatRoomId
p2773
I0
sVEncryChatRoomId
p2774
g52
sVAttrStatus
p2775
I98341
sVStatues
p2776
I0
stp2777
Rp2778
I1
bag34
(g38
g39
(dp2779
VUserName
p2780
V@cde9d8af520cda08e15bfc02e6ab2901c63fd6c79478504aebd3f049e149d7ee
p2781
sVCity
p2782
V\u626c\u5dde
p2783
sVSnsFlag
p2784
I17
sVDisplayName
p2785
g52
sVUniFriend
p2786
I0
sVMemberCount
p2787
I0
sVOwnerUin
p2788
I0
sVMemberList
p2789
g50
sVAlias
p2790
g52
sVPYQuanPin
p2791
Vqiongyuezhilingyin
p2792
sVSignature
p2793
V\u6709\u7f18\u5343\u91cc\u6765\u76f8\u4f1a\uff0c\u65e0\u7f18\u76f8\u89c1\u4e0d\u76f8\u8bc6
p2794
sVRemarkPYInitial
p2795
VJY
p2796
sVContactFlag
p2797
I3
sVUin
p2798
I0
sVNickName
p2799
V\u743c\u6708\u4e4b\u94c3\u97f3
p2800
sVAppAccountFlag
p2801
I0
sVVerifyFlag
p2802
I0
sVRemarkPYQuanPin
p2803
Vjiangyu
p2804
sVHeadImgUrl
p2805
V/cgi-bin/mmwebwx-bin/webwxgeticon?seq=668509252&username=@cde9d8af520cda08e15bfc02e6ab2901c63fd6c79478504aebd3f049e149d7ee&skey=@crypt_6353e9d_531dc18c4e3ced3b7be79e57ad71caa4
p2806
sVKeyWord
p2807
g52
sVProvince
p2808
V\u6c5f\u82cf
p2809
sVPYInitial
p2810
VQYZLY
p2811
sVRemarkName
p2812
V\u59dc\u5b87
p2813
sVIsOwner
p2814
I0
sVSex
p2815
I1
sVStarFriend
p2816
I0
sVHideInputBarFlag
p2817
I0
sVChatRoomId
p2818
I0
sVEncryChatRoomId
p2819
g52
sVAttrStatus
p2820
I33789925
sVStatues
p2821
I0
stp2822
Rp2823
I1
bag34
(g38
g39
(dp2824
VUserName
p2825
V@30226a4190b1a7bf0f1c994133e18b0bdd7500df73c426d4e3073741ab4560a1
p2826
sVCity
p2827
V\u6d66\u4e1c\u65b0\u533a
p2828
sVSnsFlag
p2829
I17
sVDisplayName
p2830
g52
sVUniFriend
p2831
I0
sVMemberCount
p2832
I0
sVOwnerUin
p2833
I0
sVMemberList
p2834
g50
sVAlias
p2835
g52
sVPYQuanPin
p2836
Vmizhixiaomonkey
p2837
sVSignature
p2838
V\u751f\u6d3b\u603b\u662f\u4e00\u5982\u65e2\u5f80\u7684\u5e73\u6de1
p2839
sVRemarkPYInitial
p2840
VLJJ
p2841
sVContactFlag
p2842
I8195
sVUin
p2843
I0
sVNickName
p2844
V\u8ff7\u4e4b\u5c0fmonkey\uff40
p2845
sVAppAccountFlag
p2846
I0
sVVerifyFlag
p2847
I0
sVRemarkPYQuanPin
p2848
Vluojingjing
p2849
sVHeadImgUrl
p2850
V/cgi-bin/mmwebwx-bin/webwxgeticon?seq=668541107&username=@30226a4190b1a7bf0f1c994133e18b0bdd7500df73c426d4e3073741ab4560a1&skey=@crypt_6353e9d_531dc18c4e3ced3b7be79e57ad71caa4
p2851
sVKeyWord
p2852
Vrug
p2853
sVProvince
p2854
V\u4e0a\u6d77
p2855
sVPYInitial
p2856
VMZXMONKEY
p2857
sVRemarkName
p2858
V\u7f57\u9759\u9759
p2859
sVIsOwner
p2860
I0
sVSex
p2861
I2
sVStarFriend
p2862
I0
sVHideInputBarFlag
p2863
I0
sVChatRoomId
p2864
I0
sVEncryChatRoomId
p2865
g52
sVAttrStatus
p2866
I104487
sVStatues
p2867
I0
stp2868
Rp2869
I1
bag34
(g38
g39
(dp2870
VUserName
p2871
V@19e5cdf757bf664d8e53dd00a27b291e
p2872
sVCity
p2873
g52
sVSnsFlag
p2874
I49
sVDisplayName
p2875
g52
sVUniFriend
p2876
I0
sVMemberCount
p2877
I0
sVOwnerUin
p2878
I0
sVMemberList
p2879
g50
sVAlias
p2880
g52
sVPYQuanPin
p2881
Vsheng
p2882
sVSignature
p2883
V\u771f\u60c5\u79d2\u609f\u94f8\u6587\u7ae0
p2884
sVRemarkPYInitial
p2885
VCS
p2886
sVContactFlag
p2887
I3
sVUin
p2888
I0
sVNickName
p2889
Vsheng
p2890
sVAppAccountFlag
p2891
I0
sVVerifyFlag
p2892
I0
sVRemarkPYQuanPin
p2893
Vchengsheng
p2894
sVHeadImgUrl
p2895
V/cgi-bin/mmwebwx-bin/webwxgeticon?seq=668531668&username=@19e5cdf757bf664d8e53dd00a27b291e&skey=@crypt_6353e9d_531dc18c4e3ced3b7be79e57ad71caa4
p2896
sVKeyWord
p2897
Vcs7
p2898
sVProvince
p2899
V\u5317\u4eac
p2900
sVPYInitial
p2901
VSHENG
p2902
sVRemarkName
p2903
V\u6210\u5723
p2904
sVIsOwner
p2905
I0
sVSex
p2906
I1
sVStarFriend
p2907
I0
sVHideInputBarFlag
p2908
I0
sVChatRoomId
p2909
I0
sVEncryChatRoomId
p2910
g52
sVAttrStatus
p2911
I110695
sVStatues
p2912
I0
stp2913
Rp2914
I1
bag34
(g38
g39
(dp2915
VUserName
p2916
V@f48a85aa4c3ec99052713e7cdc32b4df132c96541408f8985a917a5efa6380ac
p2917
sVCity
p2918
g52
sVSnsFlag
p2919
I49
sVDisplayName
p2920
g52
sVUniFriend
p2921
I0
sVMemberCount
p2922
I0
sVOwnerUin
p2923
I0
sVMemberList
p2924
g50
sVAlias
p2925
g52
sVPYQuanPin
p2926
Vspanclassemojiemoji1f389spanyispanclassemojiemoji1f48bspanspanclassemojiemoji1f618span
p2927
sVSignature
p2928
V^-^
p2929
sVRemarkPYInitial
p2930
g52
sVContactFlag
p2931
I3
sVUin
p2932
I0
sVNickName
p2933
V\U0001f389\u794e\U0001f48b\U0001f618
p2934
sVAppAccountFlag
p2935
I0
sVVerifyFlag
p2936
I0
sVRemarkPYQuanPin
p2937
g52
sVHeadImgUrl
p2938
V/cgi-bin/mmwebwx-bin/webwxgeticon?seq=668544667&username=@f48a85aa4c3ec99052713e7cdc32b4df132c96541408f8985a917a5efa6380ac&skey=@crypt_6353e9d_531dc18c4e3ced3b7be79e57ad71caa4
p2939
sVKeyWord
p2940
g52
sVProvince
p2941
g52
sVPYInitial
p2942
VSPANCLASSEMOJIEMOJI1F389SPANYSPANCLASSEMOJIEMOJI1F48BSPANSPANCLASSEMOJIEMOJI1F618SPAN
p2943
sVRemarkName
p2944
g52
sVIsOwner
p2945
I0
sVSex
p2946
I2
sVStarFriend
p2947
I0
sVHideInputBarFlag
p2948
I0
sVChatRoomId
p2949
I0
sVEncryChatRoomId
p2950
g52
sVAttrStatus
p2951
I104893
sVStatues
p2952
I0
stp2953
Rp2954
I1
bag34
(g38
g39
(dp2955
VUserName
p2956
V@7b102c068bc685286fa1c8461225140a4202263142e98c9f02fb71207422f010
p2957
sVCity
p2958
g52
sVSnsFlag
p2959
I1
sVDisplayName
p2960
g52
sVUniFriend
p2961
I0
sVMemberCount
p2962
I0
sVOwnerUin
p2963
I0
sVMemberList
p2964
g50
sVAlias
p2965
g52
sVPYQuanPin
p2966
VApache
p2967
sVSignature
p2968
V\u4e00\u6b65\u4e00\u4e2a\u811a\u5370
p2969
sVRemarkPYInitial
p2970
VLC
p2971
sVContactFlag
p2972
I3
sVUin
p2973
I0
sVNickName
p2974
VApache
p2975
sVAppAccountFlag
p2976
I0
sVVerifyFlag
p2977
I0
sVRemarkPYQuanPin
p2978
Vleichao
p2979
sVHeadImgUrl
p2980
V/cgi-bin/mmwebwx-bin/webwxgeticon?seq=668532847&username=@7b102c068bc685286fa1c8461225140a4202263142e98c9f02fb71207422f010&skey=@crypt_6353e9d_531dc18c4e3ced3b7be79e57ad71caa4
p2981
sVKeyWord
p2982
g52
sVProvince
p2983
g52
sVPYInitial
p2984
VAPACHE
p2985
sVRemarkName
p2986
V\u96f7\u8d85
p2987
sVIsOwner
p2988
I0
sVSex
p2989
I1
sVStarFriend
p2990
I0
sVHideInputBarFlag
p2991
I0
sVChatRoomId
p2992
I0
sVEncryChatRoomId
p2993
g52
sVAttrStatus
p2994
I4133
sVStatues
p2995
I0
stp2996
Rp2997
I1
bag34
(g38
g39
(dp2998
VUserName
p2999
V@325505f29a4d44ae09edfc28200c39556b25af0d5e53a40e36e7ac6ea641080b
p3000
sVCity
p3001
V\u9633\u6cc9
p3002
sVSnsFlag
p3003
I1
sVDisplayName
p3004
g52
sVUniFriend
p3005
I0
sVMemberCount
p3006
I0
sVOwnerUin
p3007
I0
sVMemberList
p3008
g50
sVAlias
p3009
g52
sVPYQuanPin
p3010
Vshanvzhi
p3011
sVSignature
p3012
V\u6709\u4e9b\u4e8b\u4e0d\u8bf4\u662f\u4e2a\u7ed3\uff0c\u8bf4\u4e86\u662f\u6761\u75a4
p3013
sVRemarkPYInitial
p3014
g52
sVContactFlag
p3015
I8195
sVUin
p3016
I0
sVNickName
p3017
V\u50bb\u5973\u7eb8
p3018
sVAppAccountFlag
p3019
I0
sVVerifyFlag
p3020
I0
sVRemarkPYQuanPin
p3021
g52
sVHeadImgUrl
p3022
V/cgi-bin/mmwebwx-bin/webwxgeticon?seq=668543515&username=@325505f29a4d44ae09edfc28200c39556b25af0d5e53a40e36e7ac6ea641080b&skey=@crypt_6353e9d_531dc18c4e3ced3b7be79e57ad71caa4
p3023
sVKeyWord
p3024
g52
sVProvince
p3025
V\u5c71\u897f
p3026
sVPYInitial
p3027
VSNZ
p3028
sVRemarkName
p3029
g52
sVIsOwner
p3030
I0
sVSex
p3031
I2
sVStarFriend
p3032
I0
sVHideInputBarFlag
p3033
I0
sVChatRoomId
p3034
I0
sVEncryChatRoomId
p3035
g52
sVAttrStatus
p3036
I233573
sVStatues
p3037
I0
stp3038
Rp3039
I1
bag34
(g38
g39
(dp3040
VUserName
p3041
V@33003ba9d688d52afe0c08ae0e4528a599c7ca4349bdcb5db6dd3260a3142278
p3042
sVCity
p3043
g52
sVSnsFlag
p3044
I49
sVDisplayName
p3045
g52
sVUniFriend
p3046
I0
sVMemberCount
p3047
I0
sVOwnerUin
p3048
I0
sVMemberList
p3049
g50
sVAlias
p3050
g52
sVPYQuanPin
p3051
Vfanfanzhibei
p3052
sVSignature
p3053
V\u4f1a\u3048\u3066\u3088\u304b\u3063\u305f
p3054
sVRemarkPYInitial
p3055
g52
sVContactFlag
p3056
I3
sVUin
p3057
I0
sVNickName
p3058
V\u6cdb\u6cdb\u4e4b\u8f88
p3059
sVAppAccountFlag
p3060
I0
sVVerifyFlag
p3061
I0
sVRemarkPYQuanPin
p3062
g52
sVHeadImgUrl
p3063
V/cgi-bin/mmwebwx-bin/webwxgeticon?seq=668545801&username=@33003ba9d688d52afe0c08ae0e4528a599c7ca4349bdcb5db6dd3260a3142278&skey=@crypt_6353e9d_531dc18c4e3ced3b7be79e57ad71caa4
p3064
sVKeyWord
p3065
g52
sVProvince
p3066
VFatima
p3067
sVPYInitial
p3068
VFFZB
p3069
sVRemarkName
p3070
g52
sVIsOwner
p3071
I0
sVSex
p3072
I2
sVStarFriend
p3073
I0
sVHideInputBarFlag
p3074
I0
sVChatRoomId
p3075
I0
sVEncryChatRoomId
p3076
g52
sVAttrStatus
p3077
I201061
sVStatues
p3078
I0
stp3079
Rp3080
I1
batp3081
Rp3082
I1
bsS'chatroomList'
p3083
g34
(g35
g36
(lp3084
g34
(citchat.storage.templates
Chatroom
p3085
g39
(dp3086
VUserName
p3087
V@@b0afc3787b69e82e4fc54e8bf97739f1580f8e5cf3684cbce5be9c79bfce4bd2
p3088
sVCity
p3089
g52
sVDisplayName
p3090
g52
sVUniFriend
p3091
I0
sS'Self'
p3092
g34
(g38
g39
(dp3093
g41
g31
sg42
g43
sg44
g43
sg45
I0
sg46
I0
sg47
g34
(g35
g36
(lp3094
tp3095
Rp3096
I1
bsg51
g52
sg53
g52
sg54
I1610532702
sg55
I0
sg56
I0
sg57
g43
sg58
g43
sg59
g52
sg60
g52
sg61
I0
sg62
I0
sg63
I1
sg64
g43
sg65
I0
sg66
I17
sg67
I0
sg68
I0
sg69
g43
sg70
g71
sg72
I0
sg73
g74
sg75
g52
sg76
g77
sg78
I1
sg79
I0
sg80
I0
stp3097
Rp3098
I1
bsVMemberList
p3099
g34
(g35
g36
(lp3100
tp3101
Rp3102
I1
bsVPYQuanPin
p3103
g52
sVRemarkPYInitial
p3104
g52
sVSex
p3105
I0
sVAppAccountFlag
p3106
I0
sVVerifyFlag
p3107
I0
sVProvince
p3108
g52
sVKeyWord
p3109
g52
sVRemarkName
p3110
g52
sVPYInitial
p3111
g52
sVIsOwner
p3112
I0
sVChatRoomId
p3113
I0
sVHideInputBarFlag
p3114
I0
sVEncryChatRoomId
p3115
g52
sVAttrStatus
p3116
I0
sVSnsFlag
p3117
I0
sVMemberCount
p3118
I11
sVOwnerUin
p3119
I0
sVAlias
p3120
g52
sS'IsAdmin'
p3121
NsVSignature
p3122
g52
sVContactFlag
p3123
I0
sVNickName
p3124
VSingle Dogs
p3125
sVRemarkPYQuanPin
p3126
g52
sVHeadImgUrl
p3127
V/cgi-bin/mmwebwx-bin/webwxgetheadimg?seq=0&username=@@b0afc3787b69e82e4fc54e8bf97739f1580f8e5cf3684cbce5be9c79bfce4bd2&skey=@crypt_6353e9d_531dc18c4e3ced3b7be79e57ad71caa4
p3128
sVUin
p3129
I0
sVStarFriend
p3130
I0
sVStatues
p3131
I1
stp3132
Rp3133
I1
bag34
(g3085
g39
(dp3134
VUserName
p3135
V@@cb2e310e170a03a54e9b7af82113488a883d75d22854774d6e65548ae7831a89
p3136
sVCity
p3137
g52
sVDisplayName
p3138
g52
sVUniFriend
p3139
I0
sg3092
g34
(g38
g39
(dp3140
g41
g31
sg42
g43
sg44
g43
sg45
I0
sg46
I0
sg47
g34
(g35
g36
(lp3141
tp3142
Rp3143
I1
bsg51
g52
sg53
g52
sg54
I1610532702
sg55
I0
sg56
I0
sg57
g43
sg58
g43
sg59
g52
sg60
g52
sg61
I0
sg62
I0
sg63
I1
sg64
g43
sg65
I0
sg66
I17
sg67
I0
sg68
I0
sg69
g43
sg70
g71
sg72
I0
sg73
g74
sg75
g52
sg76
g77
sg78
I1
sg79
I0
sg80
I0
stp3144
Rp3145
I1
bsVMemberList
p3146
g34
(g35
g36
(lp3147
tp3148
Rp3149
I1
bsVPYQuanPin
p3150
g52
sVRemarkPYInitial
p3151
g52
sVSex
p3152
I0
sVAppAccountFlag
p3153
I0
sVVerifyFlag
p3154
I0
sVProvince
p3155
g52
sVKeyWord
p3156
g52
sVRemarkName
p3157
g52
sVPYInitial
p3158
g52
sVIsOwner
p3159
I1
sVChatRoomId
p3160
I0
sVHideInputBarFlag
p3161
I0
sVEncryChatRoomId
p3162
g52
sVAttrStatus
p3163
I0
sVSnsFlag
p3164
I0
sVMemberCount
p3165
I3
sVOwnerUin
p3166
I0
sVAlias
p3167
g52
sg3121
NsVSignature
p3168
g52
sVContactFlag
p3169
I0
sVNickName
p3170
V\u5218\u9756,\u6211,Ma
p3171
sVRemarkPYQuanPin
p3172
g52
sVHeadImgUrl
p3173
V/cgi-bin/mmwebwx-bin/webwxgetheadimg?seq=0&username=@@cb2e310e170a03a54e9b7af82113488a883d75d22854774d6e65548ae7831a89&skey=@crypt_6353e9d_531dc18c4e3ced3b7be79e57ad71caa4
p3174
sVUin
p3175
I0
sVStarFriend
p3176
I0
sVStatues
p3177
I1
stp3178
Rp3179
I1
bag34
(g3085
g39
(dp3180
VUserName
p3181
V@@943162dc122b60cfdd2b17e8a5bb81f37e9898513b3c3e051ab1453b02e85f53
p3182
sVCity
p3183
g52
sVDisplayName
p3184
g52
sVUniFriend
p3185
I0
sg3092
g34
(g38
g39
(dp3186
g41
g31
sg42
g43
sg44
g43
sg45
I0
sg46
I0
sg47
g34
(g35
g36
(lp3187
tp3188
Rp3189
I1
bsg51
g52
sg53
g52
sg54
I1610532702
sg55
I0
sg56
I0
sg57
g43
sg58
g43
sg59
g52
sg60
g52
sg61
I0
sg62
I0
sg63
I1
sg64
g43
sg65
I0
sg66
I17
sg67
I0
sg68
I0
sg69
g43
sg70
g71
sg72
I0
sg73
g74
sg75
g52
sg76
g77
sg78
I1
sg79
I0
sg80
I0
stp3190
Rp3191
I1
bsVMemberList
p3192
g34
(g35
g36
(lp3193
tp3194
Rp3195
I1
bsVPYQuanPin
p3196
g52
sVRemarkPYInitial
p3197
g52
sVSex
p3198
I0
sVAppAccountFlag
p3199
I0
sVVerifyFlag
p3200
I0
sVProvince
p3201
g52
sVKeyWord
p3202
g52
sVRemarkName
p3203
g52
sVPYInitial
p3204
g52
sVIsOwner
p3205
I0
sVChatRoomId
p3206
I0
sVHideInputBarFlag
p3207
I0
sVEncryChatRoomId
p3208
g52
sVAttrStatus
p3209
I0
sVSnsFlag
p3210
I0
sVMemberCount
p3211
I10
sVOwnerUin
p3212
I0
sVAlias
p3213
g52
sg3121
NsVSignature
p3214
g52
sVContactFlag
p3215
I0
sVNickName
p3216
V\u519c\u836f\u8054\u76df
p3217
sVRemarkPYQuanPin
p3218
g52
sVHeadImgUrl
p3219
V/cgi-bin/mmwebwx-bin/webwxgetheadimg?seq=0&username=@@943162dc122b60cfdd2b17e8a5bb81f37e9898513b3c3e051ab1453b02e85f53&skey=@crypt_6353e9d_531dc18c4e3ced3b7be79e57ad71caa4
p3220
sVUin
p3221
I0
sVStarFriend
p3222
I0
sVStatues
p3223
I1
stp3224
Rp3225
I1
batp3226
Rp3227
I1
bsS'nickName'
p3228
g74
sS'mpList'
p3229
g34
(g35
g36
(lp3230
g34
(citchat.storage.templates
MassivePlatform
p3231
g39
(dp3232
VUserName
p3233
V@0fe58d2871135b9703eecd3a8ce5db88
p3234
sVCity
p3235
g52
sVSnsFlag
p3236
I0
sVDisplayName
p3237
g52
sVUniFriend
p3238
I0
sVMemberCount
p3239
I0
sVOwnerUin
p3240
I0
sVMemberList
p3241
g50
sVAlias
p3242
g52
sVPYQuanPin
p3243
Vtengxunchengshi
p3244
sVSignature
p3245
V\u817e\u8baf\u57ce\u5e02\u4e0e\u60a8\u4e00\u5171\u5173\u6ce8\u57ce\u5e02\u53d1\u5c55\uff0c\u89c1\u8bc1\u57ce\u5e02\u53d8\u8fc1\uff0c\u53d1\u73b0\u57ce\u5e02\u529b\u91cf\u3002
p3246
sVRemarkPYInitial
p3247
g52
sVContactFlag
p3248
I3
sVUin
p3249
I0
sVNickName
p3250
V\u817e\u8baf\u57ce\u5e02
p3251
sVAppAccountFlag
p3252
I0
sVVerifyFlag
p3253
I24
sVRemarkPYQuanPin
p3254
g52
sVHeadImgUrl
p3255
V/cgi-bin/mmwebwx-bin/webwxgeticon?seq=643840641&username=@0fe58d2871135b9703eecd3a8ce5db88&skey=@crypt_6353e9d_531dc18c4e3ced3b7be79e57ad71caa4
p3256
sVKeyWord
p3257
Vgh_
p3258
sVProvince
p3259
g52
sVPYInitial
p3260
VTXCS
p3261
sVRemarkName
p3262
g52
sVIsOwner
p3263
I0
sVSex
p3264
I0
sVStarFriend
p3265
I0
sVHideInputBarFlag
p3266
I0
sVChatRoomId
p3267
I0
sVEncryChatRoomId
p3268
g52
sVAttrStatus
p3269
I0
sVStatues
p3270
I0
stp3271
Rp3272
I1
bag34
(g3231
g39
(dp3273
VUserName
p3274
V@07e7cc9314602677ad033f5e2715ba22
p3275
sVCity
p3276
V\u671d\u9633
p3277
sVSnsFlag
p3278
I0
sVDisplayName
p3279
g52
sVUniFriend
p3280
I0
sVMemberCount
p3281
I0
sVOwnerUin
p3282
I0
sVMemberList
p3283
g50
sVAlias
p3284
g52
sVPYQuanPin
p3285
VDeepTechshenkeji
p3286
sVSignature
p3287
V\u201cDeepTech\u6df1\u79d1\u6280\u201d\u662f\u4e0e\u9ebb\u7701\u7406\u5de5\u79d1\u6280\u8bc4\u8bba\u5b98\u65b9\u72ec\u5bb6\u5408\u4f5c\u7684\u4e00\u4e2a\u65b0\u79d1\u6280\u5185\u5bb9\u54c1\u724c\u3002\u6211\u4eec\u4e13\u6ce8\u4e8e\u5173\u6ce8\u4e09\u4e2a\u65b9\u9762\uff1a1\u3001\u57fa\u4e8e\u79d1\u5b66\u7684\u53d1\u73b0\uff1b2\u3001\u771f\u6b63\u7684\u79d1\u6280\u521b\u65b0\uff1b3\u3001\u6df1\u79d1\u6280\u5e94\u7528\u7684\u521b\u65b0\u3002
p3288
sVRemarkPYInitial
p3289
g52
sVContactFlag
p3290
I3
sVUin
p3291
I0
sVNickName
p3292
VDeepTech\u6df1\u79d1\u6280
p3293
sVAppAccountFlag
p3294
I0
sVVerifyFlag
p3295
I24
sVRemarkPYQuanPin
p3296
g52
sVHeadImgUrl
p3297
V/cgi-bin/mmwebwx-bin/webwxgeticon?seq=668502040&username=@07e7cc9314602677ad033f5e2715ba22&skey=@crypt_6353e9d_531dc18c4e3ced3b7be79e57ad71caa4
p3298
sVKeyWord
p3299
Vgh_
p3300
sVProvince
p3301
V\u5317\u4eac
p3302
sVPYInitial
p3303
VDEEPTECHSKJ
p3304
sVRemarkName
p3305
g52
sVIsOwner
p3306
I0
sVSex
p3307
I0
sVStarFriend
p3308
I0
sVHideInputBarFlag
p3309
I0
sVChatRoomId
p3310
I0
sVEncryChatRoomId
p3311
g52
sVAttrStatus
p3312
I0
sVStatues
p3313
I0
stp3314
Rp3315
I1
bag34
(g3231
g39
(dp3316
VUserName
p3317
V@f362bb3321af52cba71906a766d7ae96
p3318
sVCity
p3319
g52
sVSnsFlag
p3320
I0
sVDisplayName
p3321
g52
sVUniFriend
p3322
I0
sVMemberCount
p3323
I0
sVOwnerUin
p3324
I0
sVMemberList
p3325
g50
sVAlias
p3326
g52
sVPYQuanPin
p3327
Vweixinzhifu
p3328
sVSignature
p3329
V\u5e2e\u52a9\u89e3\u51b3\u5fae\u4fe1\u652f\u4ed8\u4e2d\u9047\u5230\u7684\u56f0\u96be\uff0c\u6536\u96c6\u5173\u4e8e\u5fae\u4fe1\u652f\u4ed8\u7684\u5efa\u8bae\u53cd\u9988\u3002
p3330
sVRemarkPYInitial
p3331
g52
sVContactFlag
p3332
I1
sVUin
p3333
I0
sVNickName
p3334
V\u5fae\u4fe1\u652f\u4ed8
p3335
sVAppAccountFlag
p3336
I0
sVVerifyFlag
p3337
I24
sVRemarkPYQuanPin
p3338
g52
sVHeadImgUrl
p3339
V/cgi-bin/mmwebwx-bin/webwxgeticon?seq=620390182&username=@f362bb3321af52cba71906a766d7ae96&skey=@crypt_6353e9d_531dc18c4e3ced3b7be79e57ad71caa4
p3340
sVKeyWord
p3341
Vgh_
p3342
sVProvince
p3343
V\u5e7f\u4e1c
p3344
sVPYInitial
p3345
VWXZF
p3346
sVRemarkName
p3347
g52
sVIsOwner
p3348
I0
sVSex
p3349
I0
sVStarFriend
p3350
I0
sVHideInputBarFlag
p3351
I0
sVChatRoomId
p3352
I0
sVEncryChatRoomId
p3353
g52
sVAttrStatus
p3354
I0
sVStatues
p3355
I0
stp3356
Rp3357
I1
bag34
(g3231
g39
(dp3358
VUserName
p3359
V@93432427b6358b92ec6312287a48d837
p3360
sVCity
p3361
V\u6df1\u5733
p3362
sVSnsFlag
p3363
I0
sVDisplayName
p3364
g52
sVUniFriend
p3365
I0
sVMemberCount
p3366
I0
sVOwnerUin
p3367
I0
sVMemberList
p3368
g50
sVAlias
p3369
g52
sVPYQuanPin
p3370
g52
sVSignature
p3371
V\u8fd9\u91cc\u8bb0\u5f55\u60a8\u4e0e\u597d\u53cb\u7cbe\u5f69\u77ac\u95f4\uff0c\u66f4\u6709\u5929\u4e0b\u70ed\u70b9\u52a8\u6001\u3001\u767e\u59d3\u751f\u6d3b\u65b0\u9c9c\u4e8b\u4e3a\u60a8\u5448\u73b0\u3002\u817e\u8baf\u5fae\u535a\u4e0e\u60a8\u5e76\u80a9\u770b\u4e16\u754c\u3002
p3372
sVRemarkPYInitial
p3373
g52
sVContactFlag
p3374
I1
sVUin
p3375
I0
sVNickName
p3376
g52
sVAppAccountFlag
p3377
I0
sVVerifyFlag
p3378
I24
sVRemarkPYQuanPin
p3379
g52
sVHeadImgUrl
p3380
V/cgi-bin/mmwebwx-bin/webwxgeticon?seq=621170242&username=@93432427b6358b92ec6312287a48d837&skey=@crypt_6353e9d_531dc18c4e3ced3b7be79e57ad71caa4
p3381
sVKeyWord
p3382
Vgh_
p3383
sVProvince
p3384
V\u5e7f\u4e1c
p3385
sVPYInitial
p3386
g52
sVRemarkName
p3387
g52
sVIsOwner
p3388
I0
sVSex
p3389
I0
sVStarFriend
p3390
I0
sVHideInputBarFlag
p3391
I0
sVChatRoomId
p3392
I0
sVEncryChatRoomId
p3393
g52
sVAttrStatus
p3394
I0
sVStatues
p3395
I0
stp3396
Rp3397
I1
bag34
(g3231
g39
(dp3398
VUserName
p3399
V@1fe6336db1c9c279916deedb0afb630f
p3400
sVCity
p3401
V\u626c\u5dde
p3402
sVSnsFlag
p3403
I0
sVDisplayName
p3404
g52
sVUniFriend
p3405
I0
sVMemberCount
p3406
I0
sVOwnerUin
p3407
I0
sVMemberList
p3408
g50
sVAlias
p3409
g52
sVPYQuanPin
p3410
Vwubutongmeishi
p3411
sVSignature
p3412
V\u5434\u4e0d\u540c\u7f8e\u98df\u63a8\u5e7f
p3413
sVRemarkPYInitial
p3414
g52
sVContactFlag
p3415
I3
sVUin
p3416
I0
sVNickName
p3417
V\u5434\u4e0d\u540c\u7f8e\u98df
p3418
sVAppAccountFlag
p3419
I0
sVVerifyFlag
p3420
I8
sVRemarkPYQuanPin
p3421
g52
sVHeadImgUrl
p3422
V/cgi-bin/mmwebwx-bin/webwxgeticon?seq=639440358&username=@1fe6336db1c9c279916deedb0afb630f&skey=@crypt_6353e9d_531dc18c4e3ced3b7be79e57ad71caa4
p3423
sVKeyWord
p3424
Vgh_
p3425
sVProvince
p3426
V\u6c5f\u82cf
p3427
sVPYInitial
p3428
VWBTMS
p3429
sVRemarkName
p3430
g52
sVIsOwner
p3431
I0
sVSex
p3432
I0
sVStarFriend
p3433
I0
sVHideInputBarFlag
p3434
I0
sVChatRoomId
p3435
I0
sVEncryChatRoomId
p3436
g52
sVAttrStatus
p3437
I0
sVStatues
p3438
I0
stp3439
Rp3440
I1
bag34
(g3231
g39
(dp3441
VUserName
p3442
V@f3bf0e9f7127d2ccdb9292c0d781ea5b
p3443
sVCity
p3444
V\u5357\u4eac
p3445
sVSnsFlag
p3446
I0
sVDisplayName
p3447
g52
sVUniFriend
p3448
I0
sVMemberCount
p3449
I0
sVOwnerUin
p3450
I0
sVMemberList
p3451
g50
sVAlias
p3452
g52
sVPYQuanPin
p3453
g52
sVSignature
p3454
V\u65b0\u9c9c\u8003\u7814\u8d44\u8baf\uff0c\u771f\u9898\u8d44\u6599\u5e72\u8d27\uff0c\u5c3d\u5728\u901a\u9014\u6559\u80b2\uff01
p3455
sVRemarkPYInitial
p3456
g52
sVContactFlag
p3457
I3
sVUin
p3458
I0
sVNickName
p3459
g52
sVAppAccountFlag
p3460
I0
sVVerifyFlag
p3461
I8
sVRemarkPYQuanPin
p3462
g52
sVHeadImgUrl
p3463
V/cgi-bin/mmwebwx-bin/webwxgeticon?seq=639440444&username=@f3bf0e9f7127d2ccdb9292c0d781ea5b&skey=@crypt_6353e9d_531dc18c4e3ced3b7be79e57ad71caa4
p3464
sVKeyWord
p3465
Vgh_
p3466
sVProvince
p3467
V\u6c5f\u82cf
p3468
sVPYInitial
p3469
g52
sVRemarkName
p3470
g52
sVIsOwner
p3471
I0
sVSex
p3472
I0
sVStarFriend
p3473
I0
sVHideInputBarFlag
p3474
I0
sVChatRoomId
p3475
I0
sVEncryChatRoomId
p3476
g52
sVAttrStatus
p3477
I0
sVStatues
p3478
I0
stp3479
Rp3480
I1
bag34
(g3231
g39
(dp3481
VUserName
p3482
V@9d3033adb5f533ecb6c1d8da6e0a5aaf
p3483
sVCity
p3484
g52
sVSnsFlag
p3485
I0
sVDisplayName
p3486
g52
sVUniFriend
p3487
I0
sVMemberCount
p3488
I0
sVOwnerUin
p3489
I0
sVMemberList
p3490
g50
sVAlias
p3491
g52
sVPYQuanPin
p3492
Vduolunduohaixianzizhucanting
p3493
sVSignature
p3494
V\u591a\u4f26\u591a\u6d77\u9c9c\u81ea\u52a9\u662f\u661f\u8bed\u96c5\u96c6\u9910\u996e\u7ba1\u7406\u6709\u9650\u516c\u53f8\u4e3b\u6253\u54c1\u724c \u662f\u56fd\u5185\u6d77\u9c9c\u81ea\u52a9\u9910\u9886\u57df\u89c4\u6a21\u8f83\u5927 \u53d1\u5c55\u8f83\u5feb \u5177\u6709\u5f71\u54cd\u529b\u4e14\u7f8e\u8a89\u5ea6\u8f83\u597d\u7684\u81ea\u52a9\u9910\u54c1\u724c \u76ee\u524d\u5728\u6c5f\u6d59\u6caa\u7696\u5730\u533a\u8fd150\u5bb6\u8fde\u9501\u76f4\u8425\u95e8\u5e97 \u8ba1\u52122017\u5e74\u7a81\u7834100\u5bb6
p3495
sVRemarkPYInitial
p3496
g52
sVContactFlag
p3497
I3
sVUin
p3498
I0
sVNickName
p3499
V\u591a\u4f26\u591a\u6d77\u9c9c\u81ea\u52a9\u9910\u5385
p3500
sVAppAccountFlag
p3501
I0
sVVerifyFlag
p3502
I24
sVRemarkPYQuanPin
p3503
g52
sVHeadImgUrl
p3504
V/cgi-bin/mmwebwx-bin/webwxgeticon?seq=639440497&username=@9d3033adb5f533ecb6c1d8da6e0a5aaf&skey=@crypt_6353e9d_531dc18c4e3ced3b7be79e57ad71caa4
p3505
sVKeyWord
p3506
Vgh_
p3507
sVProvince
p3508
V\u6c5f\u82cf
p3509
sVPYInitial
p3510
VDLDHXZZCT
p3511
sVRemarkName
p3512
g52
sVIsOwner
p3513
I0
sVSex
p3514
I0
sVStarFriend
p3515
I0
sVHideInputBarFlag
p3516
I0
sVChatRoomId
p3517
I0
sVEncryChatRoomId
p3518
g52
sVAttrStatus
p3519
I0
sVStatues
p3520
I0
stp3521
Rp3522
I1
bag34
(g3231
g39
(dp3523
VUserName
p3524
V@68ce8f9dc1104f05aca20936538a901c
p3525
sVCity
p3526
V\u6df1\u5733
p3527
sVSnsFlag
p3528
I0
sVDisplayName
p3529
g52
sVUniFriend
p3530
I0
sVMemberCount
p3531
I0
sVOwnerUin
p3532
I0
sVMemberList
p3533
g50
sVAlias
p3534
g52
sVPYQuanPin
p3535
g52
sVSignature
p3536
V\u672c\u671f\u6d3b\u52a8\uff0c\u624b\u8868\u4e3a\u516c\u53f8\u8054\u5408\u7b2c\u4e09\u65b9\u5b9e\u529b\u5382\u5bb6\u5b9a\u5236\u751f\u4ea7\uff0c\u8d28\u91cf\u6709\u4fdd\u969c\u3002\u4e09\u8272\u53ef\u9009\uff0c\u7537\u5973\u901a\u7528\uff0c\u975e\u5e38\u65f6\u5c1a\u53c8\u5927\u6c14\uff0c\u4f11\u95f2/\u5546\u52a1\u90fd\u662f\u4e0d\u9519\u7684\u9009\u62e9\uff0c\u672c\u6d3b\u52a8\u9ed8\u8ba4\u3010\u5706\u901a\u5feb\u9012\u3011
p3537
sVRemarkPYInitial
p3538
g52
sVContactFlag
p3539
I3
sVUin
p3540
I0
sVNickName
p3541
g52
sVAppAccountFlag
p3542
I0
sVVerifyFlag
p3543
I24
sVRemarkPYQuanPin
p3544
g52
sVHeadImgUrl
p3545
V/cgi-bin/mmwebwx-bin/webwxgeticon?seq=646580357&username=@68ce8f9dc1104f05aca20936538a901c&skey=@crypt_6353e9d_531dc18c4e3ced3b7be79e57ad71caa4
p3546
sVKeyWord
p3547
Vgh_
p3548
sVProvince
p3549
V\u5e7f\u4e1c
p3550
sVPYInitial
p3551
g52
sVRemarkName
p3552
g52
sVIsOwner
p3553
I0
sVSex
p3554
I0
sVStarFriend
p3555
I0
sVHideInputBarFlag
p3556
I0
sVChatRoomId
p3557
I0
sVEncryChatRoomId
p3558
g52
sVAttrStatus
p3559
I0
sVStatues
p3560
I0
stp3561
Rp3562
I1
bag34
(g3231
g39
(dp3563
VUserName
p3564
V@105d150fbe416de45e17458b3028b030
p3565
sVCity
p3566
V\u5357\u4eac
p3567
sVSnsFlag
p3568
I0
sVDisplayName
p3569
g52
sVUniFriend
p3570
I0
sVMemberCount
p3571
I0
sVOwnerUin
p3572
I0
sVMemberList
p3573
g50
sVAlias
p3574
g52
sVPYQuanPin
p3575
Vzhongguodianxinjiangsukefu
p3576
sVSignature
p3577
V\u6c5f\u82cf\u7535\u4fe110000\u53f7\u5b98\u65b9\u5ba2\u670d\uff0c\u65e0\u201c\u5fae\u201d\u4e0d\u81f3\u3001\u4f53\u8d34\u5165\u201c\u5fae\u201d\u3002\u7528\u5fc3\u4e3a\u60a8\u63d0\u4f9b\u8bdd\u8d39\u67e5\u8be2\u3001\u4e1a\u52a1\u529e\u7406\u3001\u5bbd\u5e26\u62a5\u4fee\u7b49\u670d\u52a1\uff0c\u8fd8\u6709\u5404\u79cd\u4f18\u60e0\u6d3b\u52a8\u4e0d\u5b9a\u671f\u63a8\u51fa\u54e6\uff01\u7528\u6237\u59cb\u7ec8\u81f3\u4e0a\uff0c\u670d\u52a1\u89e6\u624b\u53ef\u53ca\uff01
p3578
sVRemarkPYInitial
p3579
g52
sVContactFlag
p3580
I3
sVUin
p3581
I0
sVNickName
p3582
V\u4e2d\u56fd\u7535\u4fe1\u6c5f\u82cf\u5ba2\u670d
p3583
sVAppAccountFlag
p3584
I0
sVVerifyFlag
p3585
I24
sVRemarkPYQuanPin
p3586
g52
sVHeadImgUrl
p3587
V/cgi-bin/mmwebwx-bin/webwxgeticon?seq=646580687&username=@105d150fbe416de45e17458b3028b030&skey=@crypt_6353e9d_531dc18c4e3ced3b7be79e57ad71caa4
p3588
sVKeyWord
p3589
Vgh_
p3590
sVProvince
p3591
V\u6c5f\u82cf
p3592
sVPYInitial
p3593
VZGDXJSKF
p3594
sVRemarkName
p3595
g52
sVIsOwner
p3596
I0
sVSex
p3597
I0
sVStarFriend
p3598
I0
sVHideInputBarFlag
p3599
I0
sVChatRoomId
p3600
I0
sVEncryChatRoomId
p3601
g52
sVAttrStatus
p3602
I0
sVStatues
p3603
I0
stp3604
Rp3605
I1
bag34
(g3231
g39
(dp3606
VUserName
p3607
V@70e082894e1a5e4bfc69b8e30f82c67f
p3608
sVCity
p3609
V\u5357\u4eac
p3610
sVSnsFlag
p3611
I0
sVDisplayName
p3612
g52
sVUniFriend
p3613
I0
sVMemberCount
p3614
I0
sVOwnerUin
p3615
I0
sVMemberList
p3616
g50
sVAlias
p3617
g52
sVPYQuanPin
p3618
Vrenzeshangyuan
p3619
sVSignature
p3620
V\u5e2e\u52a9\u60a8\u4e86\u89e3\u4ec1\u6cfd\u5546\u5b66\u9662\u7ec4\u7ec7\u3001\u7b56\u5212\u7684\u5404\u7c7b\u7f51\u7edc\u4e8b\u4e1a\u90e8\u6d3b\u52a8\u53ca\u5927\u8d5b\u3002\u53ca\u65f6\u6536\u53d6\u4ec1\u6cfd\u5546\u5b66\u9662\u7684\u6700\u65b0\u4fe1\u606f\u3002
p3621
sVRemarkPYInitial
p3622
g52
sVContactFlag
p3623
I3
sVUin
p3624
I0
sVNickName
p3625
V\u4ec1\u6cfd\u5546\u9662
p3626
sVAppAccountFlag
p3627
I0
sVVerifyFlag
p3628
I8
sVRemarkPYQuanPin
p3629
g52
sVHeadImgUrl
p3630
V/cgi-bin/mmwebwx-bin/webwxgeticon?seq=649410482&username=@70e082894e1a5e4bfc69b8e30f82c67f&skey=@crypt_6353e9d_531dc18c4e3ced3b7be79e57ad71caa4
p3631
sVKeyWord
p3632
Vgh_
p3633
sVProvince
p3634
V\u6c5f\u82cf
p3635
sVPYInitial
p3636
VRZSY
p3637
sVRemarkName
p3638
g52
sVIsOwner
p3639
I0
sVSex
p3640
I0
sVStarFriend
p3641
I0
sVHideInputBarFlag
p3642
I0
sVChatRoomId
p3643
I0
sVEncryChatRoomId
p3644
g52
sVAttrStatus
p3645
I0
sVStatues
p3646
I0
stp3647
Rp3648
I1
bag34
(g3231
g39
(dp3649
VUserName
p3650
V@38a72105341c06c357734d6568449587
p3651
sVCity
p3652
V\u5e7f\u5dde
p3653
sVSnsFlag
p3654
I0
sVDisplayName
p3655
g52
sVUniFriend
p3656
I0
sVMemberCount
p3657
I0
sVOwnerUin
p3658
I0
sVMemberList
p3659
g50
sVAlias
p3660
g52
sVPYQuanPin
p3661
Vtianyiliuliang800
p3662
sVSignature
p3663
V\u5929\u7ffc\u6d41\u91cf800\u662f\u4e2d\u56fd\u7535\u4fe1\u63a8\u51fa\u7684\u201c\u7528\u6237\u514d\u8d39\u4f7f\u7528\u6d41\u91cf\uff0c\u4f01\u4e1a\u4e3a\u7528\u6237\u4e70\u5355\u201c\u7684\u5168\u65b0\u670d\u52a1\uff0c\u4e2d\u56fd\u7535\u4fe1\u901a\u8fc7\u8be5\u5fae\u4fe1\u516c\u4f17\u53f7\u5411\u7528\u6237\u957f\u671f\u53d1\u5e03\u7535\u4fe1\u514d\u8d39\u6d41\u91cf\u6d3b\u52a8\u3002\u5173\u6ce8\u201c\u5929\u7ffc\u6d41\u91cf800\u201d\uff0c\u514d\u8d39\u6d41\u91cf\u6e90\u6e90\u4e0d\u65ad\uff0c\u5408\u4f5c\u6d3b\u52a8\u7cbe\u5f69\u7eb7\u5448\uff0c\u8bf7\u60a8\u4e0d\u8981\u79bb\u5f00\u3002
p3664
sVRemarkPYInitial
p3665
g52
sVContactFlag
p3666
I3
sVUin
p3667
I0
sVNickName
p3668
V\u5929\u7ffc\u6d41\u91cf800
p3669
sVAppAccountFlag
p3670
I0
sVVerifyFlag
p3671
I24
sVRemarkPYQuanPin
p3672
g52
sVHeadImgUrl
p3673
V/cgi-bin/mmwebwx-bin/webwxgeticon?seq=633860440&username=@38a72105341c06c357734d6568449587&skey=@crypt_6353e9d_531dc18c4e3ced3b7be79e57ad71caa4
p3674
sVKeyWord
p3675
Vgh_
p3676
sVProvince
p3677
V\u5e7f\u4e1c
p3678
sVPYInitial
p3679
VTYLL800
p3680
sVRemarkName
p3681
g52
sVIsOwner
p3682
I0
sVSex
p3683
I0
sVStarFriend
p3684
I0
sVHideInputBarFlag
p3685
I0
sVChatRoomId
p3686
I0
sVEncryChatRoomId
p3687
g52
sVAttrStatus
p3688
I0
sVStatues
p3689
I0
stp3690
Rp3691
I1
bag34
(g3231
g39
(dp3692
VUserName
p3693
V@ea0eae22f24085a09c3f05693d981621
p3694
sVCity
p3695
g52
sVSnsFlag
p3696
I0
sVDisplayName
p3697
g52
sVUniFriend
p3698
I0
sVMemberCount
p3699
I0
sVOwnerUin
p3700
I0
sVMemberList
p3701
g50
sVAlias
p3702
g52
sVPYQuanPin
p3703
Vgaizhanghaoyizhuxiao
p3704
sVSignature
p3705
g52
sVRemarkPYInitial
p3706
g52
sVContactFlag
p3707
I3
sVUin
p3708
I0
sVNickName
p3709
V\u8be5\u5e10\u53f7\u5df2\u6ce8\u9500
p3710
sVAppAccountFlag
p3711
I0
sVVerifyFlag
p3712
I24
sVRemarkPYQuanPin
p3713
g52
sVHeadImgUrl
p3714
V/cgi-bin/mmwebwx-bin/webwxgeticon?seq=649411792&username=@ea0eae22f24085a09c3f05693d981621&skey=@crypt_6353e9d_531dc18c4e3ced3b7be79e57ad71caa4
p3715
sVKeyWord
p3716
Vgh_
p3717
sVProvince
p3718
g52
sVPYInitial
p3719
VGZHYZX
p3720
sVRemarkName
p3721
g52
sVIsOwner
p3722
I0
sVSex
p3723
I0
sVStarFriend
p3724
I0
sVHideInputBarFlag
p3725
I0
sVChatRoomId
p3726
I0
sVEncryChatRoomId
p3727
g52
sVAttrStatus
p3728
I0
sVStatues
p3729
I0
stp3730
Rp3731
I1
bag34
(g3231
g39
(dp3732
VUserName
p3733
V@db8d04f8dd05e67ad490420aeb962860
p3734
sVCity
p3735
V\u5357\u4eac
p3736
sVSnsFlag
p3737
I0
sVDisplayName
p3738
g52
sVUniFriend
p3739
I0
sVMemberCount
p3740
I0
sVOwnerUin
p3741
I0
sVMemberList
p3742
g50
sVAlias
p3743
g52
sVPYQuanPin
p3744
Vnajinggonggongzixingche
p3745
sVSignature
p3746
V\u4f4e\u78b3\u51fa\u884c\uff0c\u7eff\u8272\u751f\u6d3b\uff0c\u4fbf\u5229\u4e8e\u6c11\u3002\u53ef\u67e5\u8be2\u5357\u4eac\u516c\u5171\u81ea\u884c\u8f66\u76f8\u5173\u4fe1\u606f\u3002
p3747
sVRemarkPYInitial
p3748
g52
sVContactFlag
p3749
I3
sVUin
p3750
I0
sVNickName
p3751
V\u5357\u4eac\u516c\u5171\u81ea\u884c\u8f66
p3752
sVAppAccountFlag
p3753
I0
sVVerifyFlag
p3754
I24
sVRemarkPYQuanPin
p3755
g52
sVHeadImgUrl
p3756
V/cgi-bin/mmwebwx-bin/webwxgeticon?seq=649411939&username=@db8d04f8dd05e67ad490420aeb962860&skey=@crypt_6353e9d_531dc18c4e3ced3b7be79e57ad71caa4
p3757
sVKeyWord
p3758
Vgh_
p3759
sVProvince
p3760
V\u6c5f\u82cf
p3761
sVPYInitial
p3762
VNJGGZXC
p3763
sVRemarkName
p3764
g52
sVIsOwner
p3765
I0
sVSex
p3766
I0
sVStarFriend
p3767
I0
sVHideInputBarFlag
p3768
I0
sVChatRoomId
p3769
I0
sVEncryChatRoomId
p3770
g52
sVAttrStatus
p3771
I0
sVStatues
p3772
I0
stp3773
Rp3774
I1
bag34
(g3231
g39
(dp3775
VUserName
p3776
V@8e69a2bb09eafc90a650106172fdfde0
p3777
sVCity
p3778
V\u5f90\u6c47
p3779
sVSnsFlag
p3780
I0
sVDisplayName
p3781
g52
sVUniFriend
p3782
I0
sVMemberCount
p3783
I0
sVOwnerUin
p3784
I0
sVMemberList
p3785
g50
sVAlias
p3786
g52
sVPYQuanPin
p3787
Vyouyiku
p3788
sVSignature
p3789
V\u4f18\u8863\u5e93\u54c1\u724c\u5b98\u65b9\u5fae\u4fe1
p3790
sVRemarkPYInitial
p3791
g52
sVContactFlag
p3792
I3
sVUin
p3793
I0
sVNickName
p3794
V\u4f18\u8863\u5e93
p3795
sVAppAccountFlag
p3796
I0
sVVerifyFlag
p3797
I28
sVRemarkPYQuanPin
p3798
g52
sVHeadImgUrl
p3799
V/cgi-bin/mmwebwx-bin/webwxgeticon?seq=651750650&username=@8e69a2bb09eafc90a650106172fdfde0&skey=@crypt_6353e9d_531dc18c4e3ced3b7be79e57ad71caa4
p3800
sVKeyWord
p3801
Vyou
p3802
sVProvince
p3803
V\u4e0a\u6d77
p3804
sVPYInitial
p3805
VYYK
p3806
sVRemarkName
p3807
g52
sVIsOwner
p3808
I0
sVSex
p3809
I0
sVStarFriend
p3810
I0
sVHideInputBarFlag
p3811
I0
sVChatRoomId
p3812
I0
sVEncryChatRoomId
p3813
g52
sVAttrStatus
p3814
I3
sVStatues
p3815
I0
stp3816
Rp3817
I1
bag34
(g3231
g39
(dp3818
VUserName
p3819
V@293cf3103767562c1d0b3737caa5c0a5
p3820
sVCity
p3821
V\u6d77\u6dc0
p3822
sVSnsFlag
p3823
I0
sVDisplayName
p3824
g52
sVUniFriend
p3825
I0
sVMemberCount
p3826
I0
sVOwnerUin
p3827
I0
sVMemberList
p3828
g50
sVAlias
p3829
g52
sVPYQuanPin
p3830
Vgelingshentong
p3831
sVSignature
p3832
V\u683c\u7075\u6df1\u77b3\u662f\u4e00\u5bb6\u5c06\u8ba1\u7b97\u673a\u89c6\u89c9\u548c\u6df1\u5ea6\u5b66\u4e60\u6280\u672f\u5e94\u7528\u4e8e\u5546\u4e1a\u9886\u57df\u7684\u79d1\u6280\u516c\u53f8\uff0c\u81ea\u4e3b\u7814\u53d1\u7684\u6df1\u77b3\u6280\u672f\u5728\u4eba\u548c\u8f66\u7684\u68c0\u6d4b\u3001\u8ddf\u8e2a\u4e0e\u8bc6\u522b\u65b9\u9762\u5c45\u4e8e\u4e16\u754c\u9886\u5148\u6c34\u5e73\u3002  \u5b98\u7f51\uff1awww.deepglint.com
p3833
sVRemarkPYInitial
p3834
g52
sVContactFlag
p3835
I3
sVUin
p3836
I0
sVNickName
p3837
V\u683c\u7075\u6df1\u77b3
p3838
sVAppAccountFlag
p3839
I0
sVVerifyFlag
p3840
I8
sVRemarkPYQuanPin
p3841
g52
sVHeadImgUrl
p3842
V/cgi-bin/mmwebwx-bin/webwxgeticon?seq=654291105&username=@293cf3103767562c1d0b3737caa5c0a5&skey=@crypt_6353e9d_531dc18c4e3ced3b7be79e57ad71caa4
p3843
sVKeyWord
p3844
Vgh_
p3845
sVProvince
p3846
V\u5317\u4eac
p3847
sVPYInitial
p3848
VGLST
p3849
sVRemarkName
p3850
g52
sVIsOwner
p3851
I0
sVSex
p3852
I0
sVStarFriend
p3853
I0
sVHideInputBarFlag
p3854
I0
sVChatRoomId
p3855
I0
sVEncryChatRoomId
p3856
g52
sVAttrStatus
p3857
I0
sVStatues
p3858
I0
stp3859
Rp3860
I1
bag34
(g3231
g39
(dp3861
VUserName
p3862
V@425bbadc8360bd5b451f1eb81e000239
p3863
sVCity
p3864
V\u5357\u4eac
p3865
sVSnsFlag
p3866
I0
sVDisplayName
p3867
g52
sVUniFriend
p3868
I0
sVMemberCount
p3869
I0
sVOwnerUin
p3870
I0
sVMemberList
p3871
g50
sVAlias
p3872
g52
sVPYQuanPin
p3873
Vjiangsudianxin
p3874
sVSignature
p3875
V\u4e2d\u56fd\u7535\u4fe1\u6c5f\u82cf\u516c\u53f8\u552f\u4e00\u5b98\u65b9\u516c\u4f17\u53f7\uff0c\u60a8\u6700\u8d34\u5fc3\u7684\u53e3\u888b\u8425\u4e1a\u5385
p3876
sVRemarkPYInitial
p3877
g52
sVContactFlag
p3878
I1
sVUin
p3879
I0
sVNickName
p3880
V\u6c5f\u82cf\u7535\u4fe1
p3881
sVAppAccountFlag
p3882
I0
sVVerifyFlag
p3883
I24
sVRemarkPYQuanPin
p3884
g52
sVHeadImgUrl
p3885
V/cgi-bin/mmwebwx-bin/webwxgeticon?seq=643840449&username=@425bbadc8360bd5b451f1eb81e000239&skey=@crypt_6353e9d_531dc18c4e3ced3b7be79e57ad71caa4
p3886
sVKeyWord
p3887
Vgh_
p3888
sVProvince
p3889
V\u6c5f\u82cf
p3890
sVPYInitial
p3891
VJSDX
p3892
sVRemarkName
p3893
g52
sVIsOwner
p3894
I0
sVSex
p3895
I0
sVStarFriend
p3896
I0
sVHideInputBarFlag
p3897
I0
sVChatRoomId
p3898
I0
sVEncryChatRoomId
p3899
g52
sVAttrStatus
p3900
I0
sVStatues
p3901
I0
stp3902
Rp3903
I1
bag34
(g3231
g39
(dp3904
VUserName
p3905
V@c2b645e407f79fa9c92184d0b7982744
p3906
sVCity
p3907
V\u626c\u5dde
p3908
sVSnsFlag
p3909
I0
sVDisplayName
p3910
g52
sVUniFriend
p3911
I0
sVMemberCount
p3912
I0
sVOwnerUin
p3913
I0
sVMemberList
p3914
g50
sVAlias
p3915
g52
sVPYQuanPin
p3916
Vwuxianyangzhou
p3917
sVSignature
p3918
V\u5173\u6ce8\u6211\u4eec\uff0c"i-Yangzhou"\u5168\u57ce\u514d\u8d39\u8fde
p3919
sVRemarkPYInitial
p3920
g52
sVContactFlag
p3921
I3
sVUin
p3922
I0
sVNickName
p3923
V\u65e0\u7ebf\u626c\u5dde
p3924
sVAppAccountFlag
p3925
I0
sVVerifyFlag
p3926
I24
sVRemarkPYQuanPin
p3927
g52
sVHeadImgUrl
p3928
V/cgi-bin/mmwebwx-bin/webwxgeticon?seq=639440631&username=@c2b645e407f79fa9c92184d0b7982744&skey=@crypt_6353e9d_531dc18c4e3ced3b7be79e57ad71caa4
p3929
sVKeyWord
p3930
Vgh_
p3931
sVProvince
p3932
V\u6c5f\u82cf
p3933
sVPYInitial
p3934
VWXYZ
p3935
sVRemarkName
p3936
g52
sVIsOwner
p3937
I0
sVSex
p3938
I0
sVStarFriend
p3939
I0
sVHideInputBarFlag
p3940
I0
sVChatRoomId
p3941
I0
sVEncryChatRoomId
p3942
g52
sVAttrStatus
p3943
I0
sVStatues
p3944
I0
stp3945
Rp3946
I1
bag34
(g3231
g39
(dp3947
VUserName
p3948
V@07c09a52147744df6c463d9fd60f753e
p3949
sVCity
p3950
V\u957f\u5b81
p3951
sVSnsFlag
p3952
I0
sVDisplayName
p3953
g52
sVUniFriend
p3954
I0
sVMemberCount
p3955
I0
sVOwnerUin
p3956
I0
sVMemberList
p3957
g50
sVAlias
p3958
g52
sVPYQuanPin
p3959
VCoCoduke
p3960
sVSignature
p3961
V\u3010\u65b0\u9c9c \u5b89\u5fc3 \u597d\u6ecb\u5473\u3011\u4e3a\u4e16\u754c\u63d0\u4f9b\u65b0\u9c9c\u597d\u559d\u7684\u53f0\u6e7e\u521b\u610f\u996e\u54c1\uff0c\u5173\u6ce8CoCo\u90fd\u53ef\u516c\u4f17\u53f7\uff0c\u5c06\u6709\u65e0\u9650\u7684\u60ca\u559c\u54e6\uff01
p3962
sVRemarkPYInitial
p3963
g52
sVContactFlag
p3964
I3
sVUin
p3965
I0
sVNickName
p3966
VCoCo\u90fd\u53ef
p3967
sVAppAccountFlag
p3968
I0
sVVerifyFlag
p3969
I24
sVRemarkPYQuanPin
p3970
g52
sVHeadImgUrl
p3971
V/cgi-bin/mmwebwx-bin/webwxgeticon?seq=654291113&username=@07c09a52147744df6c463d9fd60f753e&skey=@crypt_6353e9d_531dc18c4e3ced3b7be79e57ad71caa4
p3972
sVKeyWord
p3973
Vgh_
p3974
sVProvince
p3975
V\u4e0a\u6d77
p3976
sVPYInitial
p3977
VCOCODK
p3978
sVRemarkName
p3979
g52
sVIsOwner
p3980
I0
sVSex
p3981
I0
sVStarFriend
p3982
I0
sVHideInputBarFlag
p3983
I0
sVChatRoomId
p3984
I0
sVEncryChatRoomId
p3985
g52
sVAttrStatus
p3986
I0
sVStatues
p3987
I0
stp3988
Rp3989
I1
bag34
(g3231
g39
(dp3990
VUserName
p3991
V@df80d52aa9c6c9febd8ca52f8d61794f
p3992
sVCity
p3993
V\u6df1\u5733
p3994
sVSnsFlag
p3995
I0
sVDisplayName
p3996
g52
sVUniFriend
p3997
I0
sVMemberCount
p3998
I0
sVOwnerUin
p3999
I0
sVMemberList
p4000
g50
sVAlias
p4001
g52
sVPYQuanPin
p4002
Vtengxunyouhuanquanzhongxin
p4003
sVSignature
p4004
V\u817e\u8baf\u6e38\u620f\u5b89\u5168\u4e2d\u5fc3\u5b98\u65b9\u5fae\u4fe1\u670d\u52a1\u53f7
p4005
sVRemarkPYInitial
p4006
g52
sVContactFlag
p4007
I3
sVUin
p4008
I0
sVNickName
p4009
V\u817e\u8baf\u6e38\u620f\u5b89\u5168\u4e2d\u5fc3
p4010
sVAppAccountFlag
p4011
I0
sVVerifyFlag
p4012
I24
sVRemarkPYQuanPin
p4013
g52
sVHeadImgUrl
p4014
V/cgi-bin/mmwebwx-bin/webwxgeticon?seq=649411144&username=@df80d52aa9c6c9febd8ca52f8d61794f&skey=@crypt_6353e9d_531dc18c4e3ced3b7be79e57ad71caa4
p4015
sVKeyWord
p4016
Vgh_
p4017
sVProvince
p4018
V\u5e7f\u4e1c
p4019
sVPYInitial
p4020
VTXYHAQZX
p4021
sVRemarkName
p4022
g52
sVIsOwner
p4023
I0
sVSex
p4024
I0
sVStarFriend
p4025
I0
sVHideInputBarFlag
p4026
I0
sVChatRoomId
p4027
I0
sVEncryChatRoomId
p4028
g52
sVAttrStatus
p4029
I0
sVStatues
p4030
I0
stp4031
Rp4032
I1
bag34
(g3231
g39
(dp4033
VUserName
p4034
V@495e10fd1d6c40963c387d51e78c982c
p4035
sVCity
p4036
V\u6cf0\u5dde
p4037
sVSnsFlag
p4038
I0
sVDisplayName
p4039
g52
sVUniFriend
p4040
I0
sVMemberCount
p4041
I0
sVOwnerUin
p4042
I0
sVMemberList
p4043
g50
sVAlias
p4044
g52
sVPYQuanPin
p4045
Vpaopaoshaoerjiaoyutaizhouzhongxin
p4046
sVSignature
p4047
V\u65b0\u4e1c\u65b9\u6ce1\u6ce1\u5c11\u513f\u6559\u80b2\u6cf0\u5dde\u4e2d\u5fc3\u4e13\u6ce8\u4e8e4-14\u5c81\u9752\u5c11\u5e74\u82f1\u8bed\u57f9\u8bad\u3002\u5e7c\u513f\u82f1\u8bed/\u5c11\u513f\u82f1\u8bed/\u65b0\u6982\u5ff5\u82f1\u8bed/\u4e00\u5bf9\u4e00\u4e2a\u6027\u5316\u8bfe\u7a0b\u3002\u8be6\u8be2\uff1a\u6cf0\u5174\u4e2d\u5fc3\uff0887873377\uff09\u3001\u9ad8\u6e2f\u4e2d\u5fc3\uff0886967377\uff09\u3001\u6d77\u9675\u4e2d\u5fc3\uff0889993377\uff09\u3001\u59dc\u5830\u4e2d\u5fc3\uff0888213377\uff09\u3002
p4048
sVRemarkPYInitial
p4049
g52
sVContactFlag
p4050
I3
sVUin
p4051
I0
sVNickName
p4052
V\u6ce1\u6ce1\u5c11\u513f\u6559\u80b2\u6cf0\u5dde\u4e2d\u5fc3
p4053
sVAppAccountFlag
p4054
I0
sVVerifyFlag
p4055
I24
sVRemarkPYQuanPin
p4056
g52
sVHeadImgUrl
p4057
V/cgi-bin/mmwebwx-bin/webwxgeticon?seq=648940529&username=@495e10fd1d6c40963c387d51e78c982c&skey=@crypt_6353e9d_531dc18c4e3ced3b7be79e57ad71caa4
p4058
sVKeyWord
p4059
Vgh_
p4060
sVProvince
p4061
V\u6c5f\u82cf
p4062
sVPYInitial
p4063
VPPSEJYTZZX
p4064
sVRemarkName
p4065
g52
sVIsOwner
p4066
I0
sVSex
p4067
I0
sVStarFriend
p4068
I0
sVHideInputBarFlag
p4069
I0
sVChatRoomId
p4070
I0
sVEncryChatRoomId
p4071
g52
sVAttrStatus
p4072
I0
sVStatues
p4073
I0
stp4074
Rp4075
I1
bag34
(g3231
g39
(dp4076
VUserName
p4077
V@cef511e38eb6763f0a883c93ea0b4cd7
p4078
sVCity
p4079
V\u671d\u9633
p4080
sVSnsFlag
p4081
I0
sVDisplayName
p4082
g52
sVUniFriend
p4083
I0
sVMemberCount
p4084
I0
sVOwnerUin
p4085
I0
sVMemberList
p4086
g50
sVAlias
p4087
g52
sVPYQuanPin
p4088
Vjingdongshouhou
p4089
sVSignature
p4090
V\u8fd9\u91cc\u53d1\u5e03\u4eac\u4e1c\u5546\u57ce\u5b98\u65b9\u552e\u540e\u4fe1\u606f\uff0c\u63d0\u4f9b\u60a8\u771f\u5b9e\u6709\u6548\u7684\u552e\u540e\u653f\u7b56\uff0c\u4f20\u9012\u4eac\u4e1c\u552e\u540e\u5ba2\u6237\u4e3a\u5148\u7684\u670d\u52a1\u7406\u5ff5\u3002\u4eac\u4e1c\u552e\u540e\uff1a\u7b80\u5355\u4e13\u4e1a\u5feb\uff01
p4091
sVRemarkPYInitial
p4092
g52
sVContactFlag
p4093
I3
sVUin
p4094
I0
sVNickName
p4095
V\u4eac\u4e1c\u552e\u540e
p4096
sVAppAccountFlag
p4097
I0
sVVerifyFlag
p4098
I24
sVRemarkPYQuanPin
p4099
g52
sVHeadImgUrl
p4100
V/cgi-bin/mmwebwx-bin/webwxgeticon?seq=656876251&username=@cef511e38eb6763f0a883c93ea0b4cd7&skey=@crypt_6353e9d_531dc18c4e3ced3b7be79e57ad71caa4
p4101
sVKeyWord
p4102
Vgh_
p4103
sVProvince
p4104
V\u5317\u4eac
p4105
sVPYInitial
p4106
VJDSH
p4107
sVRemarkName
p4108
g52
sVIsOwner
p4109
I0
sVSex
p4110
I0
sVStarFriend
p4111
I0
sVHideInputBarFlag
p4112
I0
sVChatRoomId
p4113
I0
sVEncryChatRoomId
p4114
g52
sVAttrStatus
p4115
I0
sVStatues
p4116
I0
stp4117
Rp4118
I1
bag34
(g3231
g39
(dp4119
VUserName
p4120
V@5274ef4130d69a3257ad55e3e5a78f28
p4121
sVCity
p4122
V\u5929\u95e8
p4123
sVSnsFlag
p4124
I0
sVDisplayName
p4125
g52
sVUniFriend
p4126
I0
sVMemberCount
p4127
I0
sVOwnerUin
p4128
I0
sVMemberList
p4129
g50
sVAlias
p4130
g52
sVPYQuanPin
p4131
Vduolabao
p4132
sVSignature
p4133
V\u83b7\u5f97\u6700\u65b0\u9177\u70ab\u7684\u798f\u5229\u6d3b\u52a8,\u4f53\u9a8c\u53c2\u4e0e\u6709\u5956\u4e92\u52a8\uff01\u5173\u6ce8\u54c6\u5566\u5b9d\uff0c\u597d\u73a9\u3001\u597d\u5e97\u968f\u5904\u53ef\u89c1~
p4134
sVRemarkPYInitial
p4135
g52
sVContactFlag
p4136
I3
sVUin
p4137
I0
sVNickName
p4138
V\u54c6\u5566\u5b9d
p4139
sVAppAccountFlag
p4140
I0
sVVerifyFlag
p4141
I24
sVRemarkPYQuanPin
p4142
g52
sVHeadImgUrl
p4143
V/cgi-bin/mmwebwx-bin/webwxgeticon?seq=656884506&username=@5274ef4130d69a3257ad55e3e5a78f28&skey=@crypt_6353e9d_531dc18c4e3ced3b7be79e57ad71caa4
p4144
sVKeyWord
p4145
Vgh_
p4146
sVProvince
p4147
V\u6e56\u5317
p4148
sVPYInitial
p4149
VDLB
p4150
sVRemarkName
p4151
g52
sVIsOwner
p4152
I0
sVSex
p4153
I0
sVStarFriend
p4154
I0
sVHideInputBarFlag
p4155
I0
sVChatRoomId
p4156
I0
sVEncryChatRoomId
p4157
g52
sVAttrStatus
p4158
I0
sVStatues
p4159
I0
stp4160
Rp4161
I1
bag34
(g3231
g39
(dp4162
VUserName
p4163
V@f68c750caf3d55184850fc08cb94446b
p4164
sVCity
p4165
V\u6d77\u6dc0
p4166
sVSnsFlag
p4167
I0
sVDisplayName
p4168
g52
sVUniFriend
p4169
I0
sVMemberCount
p4170
I0
sVOwnerUin
p4171
I0
sVMemberList
p4172
g50
sVAlias
p4173
g52
sVPYQuanPin
p4174
Vxiaobing
p4175
sVSignature
p4176
V\u6211\u662f\u4eba\u5de5\u667a\u80fd\u5fae\u8f6f\u5c0f\u51b0~~
p4177
sVRemarkPYInitial
p4178
g52
sVContactFlag
p4179
I3
sVUin
p4180
I0
sVNickName
p4181
V\u5c0f\u51b0
p4182
sVAppAccountFlag
p4183
I0
sVVerifyFlag
p4184
I24
sVRemarkPYQuanPin
p4185
g52
sVHeadImgUrl
p4186
V/cgi-bin/mmwebwx-bin/webwxgeticon?seq=656885017&username=@f68c750caf3d55184850fc08cb94446b&skey=@crypt_6353e9d_531dc18c4e3ced3b7be79e57ad71caa4
p4187
sVKeyWord
p4188
Vgh_
p4189
sVProvince
p4190
V\u5317\u4eac
p4191
sVPYInitial
p4192
VXB
p4193
sVRemarkName
p4194
g52
sVIsOwner
p4195
I0
sVSex
p4196
I0
sVStarFriend
p4197
I0
sVHideInputBarFlag
p4198
I0
sVChatRoomId
p4199
I0
sVEncryChatRoomId
p4200
g52
sVAttrStatus
p4201
I0
sVStatues
p4202
I0
stp4203
Rp4204
I1
bag34
(g3231
g39
(dp4205
VUserName
p4206
V@999b343b03699f3a21a26559154abff1
p4207
sVCity
p4208
V\u9521\u6797\u90ed\u52d2
p4209
sVSnsFlag
p4210
I0
sVDisplayName
p4211
g52
sVUniFriend
p4212
I0
sVMemberCount
p4213
I0
sVOwnerUin
p4214
I0
sVMemberList
p4215
g50
sVAlias
p4216
g52
sVPYQuanPin
p4217
Vtelunsu
p4218
sVSignature
p4219
V 
p4220
sVRemarkPYInitial
p4221
g52
sVContactFlag
p4222
I1
sVUin
p4223
I0
sVNickName
p4224
V\u7279\u4ed1\u82cf
p4225
sVAppAccountFlag
p4226
I0
sVVerifyFlag
p4227
I24
sVRemarkPYQuanPin
p4228
g52
sVHeadImgUrl
p4229
V/cgi-bin/mmwebwx-bin/webwxgeticon?seq=656886097&username=@999b343b03699f3a21a26559154abff1&skey=@crypt_6353e9d_531dc18c4e3ced3b7be79e57ad71caa4
p4230
sVKeyWord
p4231
Vgh_
p4232
sVProvince
p4233
V\u5185\u8499\u53e4
p4234
sVPYInitial
p4235
VTLS
p4236
sVRemarkName
p4237
g52
sVIsOwner
p4238
I0
sVSex
p4239
I0
sVStarFriend
p4240
I0
sVHideInputBarFlag
p4241
I0
sVChatRoomId
p4242
I0
sVEncryChatRoomId
p4243
g52
sVAttrStatus
p4244
I0
sVStatues
p4245
I0
stp4246
Rp4247
I1
bag34
(g3231
g39
(dp4248
VUserName
p4249
V@03a7fd5b92e1387907c3291cc1a2d9ef
p4250
sVCity
p4251
V\u897f\u57ce
p4252
sVSnsFlag
p4253
I0
sVDisplayName
p4254
g52
sVUniFriend
p4255
I0
sVMemberCount
p4256
I0
sVOwnerUin
p4257
I0
sVMemberList
p4258
g50
sVAlias
p4259
g52
sVPYQuanPin
p4260
Vzhongguodianxinkefu
p4261
sVSignature
p4262
V\u4e2d\u56fd\u7535\u4fe1\u96c6\u56e2\u5b98\u65b9\u5ba2\u670d
p4263
sVRemarkPYInitial
p4264
g52
sVContactFlag
p4265
I3
sVUin
p4266
I0
sVNickName
p4267
V\u4e2d\u56fd\u7535\u4fe1\u5ba2\u670d
p4268
sVAppAccountFlag
p4269
I0
sVVerifyFlag
p4270
I24
sVRemarkPYQuanPin
p4271
g52
sVHeadImgUrl
p4272
V/cgi-bin/mmwebwx-bin/webwxgeticon?seq=656888046&username=@03a7fd5b92e1387907c3291cc1a2d9ef&skey=@crypt_6353e9d_531dc18c4e3ced3b7be79e57ad71caa4
p4273
sVKeyWord
p4274
Vgh_
p4275
sVProvince
p4276
V\u5317\u4eac
p4277
sVPYInitial
p4278
VZGDXKF
p4279
sVRemarkName
p4280
g52
sVIsOwner
p4281
I0
sVSex
p4282
I0
sVStarFriend
p4283
I0
sVHideInputBarFlag
p4284
I0
sVChatRoomId
p4285
I0
sVEncryChatRoomId
p4286
g52
sVAttrStatus
p4287
I0
sVStatues
p4288
I0
stp4289
Rp4290
I1
bag34
(g3231
g39
(dp4291
VUserName
p4292
V@6cef0cfb95ca526900f2c09f56a754a5
p4293
sVCity
p4294
V\u5357\u4eac
p4295
sVSnsFlag
p4296
I0
sVDisplayName
p4297
g52
sVUniFriend
p4298
I0
sVMemberCount
p4299
I0
sVOwnerUin
p4300
I0
sVMemberList
p4301
g50
sVAlias
p4302
g52
sVPYQuanPin
p4303
Vhuarunsuguochaoshi
p4304
sVSignature
p4305
V\u534e\u6da6\u82cf\u679c\uff0c\u4ee5\u201c\u65b0\u9c9c\u3001\u4f18\u8d28\u3001\u4fbf\u5b9c\u3001\u8d34\u5fc3\u3001\u6ee1\u610f\u201d\u4e3a\u6838\u5fc3\u627f\u8bfa\uff0c\u7cbe\u6311\u7ec6\u9009\u4e30\u5bcc\u5546\u54c1\u3001\u4f18\u8d28\u65b0\u9c9c\u786e\u4fdd\u54c1\u8d28\u3001\u4fbf\u5b9c\u7701\u94b1\u8d85\u503c\u4f4e\u4ef7\u3002\u5728\u6ee1\u8db3\u60a8\u8d2d\u7269\u9700\u6c42\u7684\u540c\u65f6\uff0c\u81f4\u529b\u4e8e\u4e3a\u60a8\u5e26\u6765\u66f4\u65b0\u9c9c\u3001\u66f4\u65b9\u4fbf\u3001\u66f4\u8212\u9002\u7684\u5168\u65b9\u4f4d\u65b0\u4f53\u9a8c\u3002
p4306
sVRemarkPYInitial
p4307
g52
sVContactFlag
p4308
I3
sVUin
p4309
I0
sVNickName
p4310
V\u534e\u6da6\u82cf\u679c\u8d85\u5e02
p4311
sVAppAccountFlag
p4312
I0
sVVerifyFlag
p4313
I24
sVRemarkPYQuanPin
p4314
g52
sVHeadImgUrl
p4315
V/cgi-bin/mmwebwx-bin/webwxgeticon?seq=656889210&username=@6cef0cfb95ca526900f2c09f56a754a5&skey=@crypt_6353e9d_531dc18c4e3ced3b7be79e57ad71caa4
p4316
sVKeyWord
p4317
Vgh_
p4318
sVProvince
p4319
V\u6c5f\u82cf
p4320
sVPYInitial
p4321
VHRSGCS
p4322
sVRemarkName
p4323
g52
sVIsOwner
p4324
I0
sVSex
p4325
I0
sVStarFriend
p4326
I0
sVHideInputBarFlag
p4327
I0
sVChatRoomId
p4328
I0
sVEncryChatRoomId
p4329
g52
sVAttrStatus
p4330
I0
sVStatues
p4331
I0
stp4332
Rp4333
I1
bag34
(g3231
g39
(dp4334
VUserName
p4335
V@e9a5227118ec2025aec4311cb0665035
p4336
sVCity
p4337
V\u65e0\u9521
p4338
sVSnsFlag
p4339
I0
sVDisplayName
p4340
g52
sVUniFriend
p4341
I0
sVMemberCount
p4342
I0
sVOwnerUin
p4343
I0
sVMemberList
p4344
g50
sVAlias
p4345
g52
sVPYQuanPin
p4346
Vjiongjiongshe
p4347
sVSignature
p4348
V\u5185\u6db5\u754c\u7684\u8001\u53f8\u673a\uff0c\u6bb5\u5b50\u754c\u7684\u625b\u628a\u5b50\uff0c\u4e13\u4e1a\u62ef\u6551\u4e0d\u5f00\u68ee~
p4349
sVRemarkPYInitial
p4350
g52
sVContactFlag
p4351
I3
sVUin
p4352
I0
sVNickName
p4353
V\u56e7\u56e7\u793e
p4354
sVAppAccountFlag
p4355
I0
sVVerifyFlag
p4356
I8
sVRemarkPYQuanPin
p4357
g52
sVHeadImgUrl
p4358
V/cgi-bin/mmwebwx-bin/webwxgeticon?seq=668496114&username=@e9a5227118ec2025aec4311cb0665035&skey=@crypt_6353e9d_531dc18c4e3ced3b7be79e57ad71caa4
p4359
sVKeyWord
p4360
Vgh_
p4361
sVProvince
p4362
V\u6c5f\u82cf
p4363
sVPYInitial
p4364
VJJS
p4365
sVRemarkName
p4366
g52
sVIsOwner
p4367
I0
sVSex
p4368
I0
sVStarFriend
p4369
I0
sVHideInputBarFlag
p4370
I0
sVChatRoomId
p4371
I0
sVEncryChatRoomId
p4372
g52
sVAttrStatus
p4373
I0
sVStatues
p4374
I0
stp4375
Rp4376
I1
bag34
(g3231
g39
(dp4377
VUserName
p4378
V@4fb8c0c39ea6638d13f6db6f19bb07b6
p4379
sVCity
p4380
V\u65e0\u9521
p4381
sVSnsFlag
p4382
I0
sVDisplayName
p4383
g52
sVUniFriend
p4384
I0
sVMemberCount
p4385
I0
sVOwnerUin
p4386
I0
sVMemberList
p4387
g50
sVAlias
p4388
g52
sVPYQuanPin
p4389
Vlieshouyingshi
p4390
sVSignature
p4391
g52
sVRemarkPYInitial
p4392
g52
sVContactFlag
p4393
I3
sVUin
p4394
I0
sVNickName
p4395
V\u730e\u624b\u5f71\u89c6
p4396
sVAppAccountFlag
p4397
I0
sVVerifyFlag
p4398
I24
sVRemarkPYQuanPin
p4399
g52
sVHeadImgUrl
p4400
V/cgi-bin/mmwebwx-bin/webwxgeticon?seq=668496120&username=@4fb8c0c39ea6638d13f6db6f19bb07b6&skey=@crypt_6353e9d_531dc18c4e3ced3b7be79e57ad71caa4
p4401
sVKeyWord
p4402
Vgh_
p4403
sVProvince
p4404
V\u6c5f\u82cf
p4405
sVPYInitial
p4406
VLSYS
p4407
sVRemarkName
p4408
g52
sVIsOwner
p4409
I0
sVSex
p4410
I0
sVStarFriend
p4411
I0
sVHideInputBarFlag
p4412
I0
sVChatRoomId
p4413
I0
sVEncryChatRoomId
p4414
g52
sVAttrStatus
p4415
I0
sVStatues
p4416
I0
stp4417
Rp4418
I1
bag34
(g3231
g39
(dp4419
VUserName
p4420
V@4acfb881d65ae8244ed2b5e95aa92832
p4421
sVCity
p4422
V\u5e7f\u5dde
p4423
sVSnsFlag
p4424
I0
sVDisplayName
p4425
g52
sVUniFriend
p4426
I0
sVMemberCount
p4427
I0
sVOwnerUin
p4428
I0
sVMemberList
p4429
g50
sVAlias
p4430
g52
sVPYQuanPin
p4431
Vbaishigaolianmeng
p4432
sVSignature
p4433
V\u67cf\u58eb\u9ad8\u8054\u76df\uff0c\u6709\u89c6\u89c9\u7684\u5546\u4e1a\u6a21\u5f0f\u65b0\u751f\u4ee3\u8d44\u8baf\u4ea4\u6d41\u5e73\u53f0
p4434
sVRemarkPYInitial
p4435
g52
sVContactFlag
p4436
I1
sVUin
p4437
I0
sVNickName
p4438
V\u67cf\u58eb\u9ad8\u8054\u76df
p4439
sVAppAccountFlag
p4440
I0
sVVerifyFlag
p4441
I24
sVRemarkPYQuanPin
p4442
g52
sVHeadImgUrl
p4443
V/cgi-bin/mmwebwx-bin/webwxgeticon?seq=668500119&username=@4acfb881d65ae8244ed2b5e95aa92832&skey=@crypt_6353e9d_531dc18c4e3ced3b7be79e57ad71caa4
p4444
sVKeyWord
p4445
Vgh_
p4446
sVProvince
p4447
V\u5e7f\u4e1c
p4448
sVPYInitial
p4449
VBSGLM
p4450
sVRemarkName
p4451
g52
sVIsOwner
p4452
I0
sVSex
p4453
I0
sVStarFriend
p4454
I0
sVHideInputBarFlag
p4455
I0
sVChatRoomId
p4456
I0
sVEncryChatRoomId
p4457
g52
sVAttrStatus
p4458
I0
sVStatues
p4459
I0
stp4460
Rp4461
I1
bag34
(g3231
g39
(dp4462
VUserName
p4463
V@7235fd6fa33740094544765176f3d2cd
p4464
sVCity
p4465
g52
sVSnsFlag
p4466
I0
sVDisplayName
p4467
g52
sVUniFriend
p4468
I0
sVMemberCount
p4469
I0
sVOwnerUin
p4470
I0
sVMemberList
p4471
g50
sVAlias
p4472
g52
sVPYQuanPin
p4473
Vnajingdiruanruanjian
p4474
sVSignature
p4475
V\u5357\u4eac\u8fea\u8f6f\u662f\u96c6\u8f6f\u786c\u4ef6\u7814\u53d1\u3001\u4ea7\u54c1\u5b9a\u5236\u3001\u7cfb\u7edf\u96c6\u6210\u3001\u9500\u552e\u670d\u52a1\u4e3a\u4e00\u4f53\u7684\u9ad8\u65b0\u6280\u672f\u516c\u53f8\u3002\u4e3a\u5ba2\u6237\u63d0\u4f9b\u9ad8\u7aef\u8f6f\u786c\u4ef6\u3001\u865a\u62df\u73b0\u5b9e\u3001\u5927\u6570\u636e\u7b49\u4e3b\u6d41\u65b9\u5411\u7684\u89e3\u51b3\u65b9\u6848\u3001\u4ea7\u54c1\u548c\u670d\u52a1\u3002\u63d0\u4f9b\u5404\u7c7b\u7f51\u7edc\u8bbe\u5907\u3001\u5b8c\u6574\u7684\u7cfb\u7edf\u96c6\u6210\u65b9\u6848\u53ca\u5168\u65b9\u4f4d\u7684\u6280\u672f\u652f\u6301\u3001\u6280\u672f\u54a8\u8be2\u53ca\u6280\u672f\u670d\u52a1\u3002
p4476
sVRemarkPYInitial
p4477
g52
sVContactFlag
p4478
I3
sVUin
p4479
I0
sVNickName
p4480
V\u5357\u4eac\u8fea\u8f6f\u8f6f\u4ef6
p4481
sVAppAccountFlag
p4482
I0
sVVerifyFlag
p4483
I8
sVRemarkPYQuanPin
p4484
g52
sVHeadImgUrl
p4485
V/cgi-bin/mmwebwx-bin/webwxgeticon?seq=668500142&username=@7235fd6fa33740094544765176f3d2cd&skey=@crypt_6353e9d_531dc18c4e3ced3b7be79e57ad71caa4
p4486
sVKeyWord
p4487
Vgh_
p4488
sVProvince
p4489
V\u6c5f\u82cf
p4490
sVPYInitial
p4491
VNJDRRJ
p4492
sVRemarkName
p4493
g52
sVIsOwner
p4494
I0
sVSex
p4495
I0
sVStarFriend
p4496
I0
sVHideInputBarFlag
p4497
I0
sVChatRoomId
p4498
I0
sVEncryChatRoomId
p4499
g52
sVAttrStatus
p4500
I0
sVStatues
p4501
I0
stp4502
Rp4503
I1
bag34
(g3231
g39
(dp4504
VUserName
p4505
V@a0efc8f5cd541fd7f937dc7955d49bd3
p4506
sVCity
p4507
V\u666e\u9640
p4508
sVSnsFlag
p4509
I0
sVDisplayName
p4510
g52
sVUniFriend
p4511
I0
sVMemberCount
p4512
I0
sVOwnerUin
p4513
I0
sVMemberList
p4514
g50
sVAlias
p4515
g52
sVPYQuanPin
p4516
Vshenbizhuangbiren
p4517
sVSignature
p4518
V\u53d1\u653e\u6700\u65b0\u6700\u706b\u7684\u89c6\u9891\u798f\u5229
p4519
sVRemarkPYInitial
p4520
g52
sVContactFlag
p4521
I1
sVUin
p4522
I0
sVNickName
p4523
V\u795e\u79d8\u88c5\u903c\u4eba
p4524
sVAppAccountFlag
p4525
I0
sVVerifyFlag
p4526
I8
sVRemarkPYQuanPin
p4527
g52
sVHeadImgUrl
p4528
V/cgi-bin/mmwebwx-bin/webwxgeticon?seq=668510068&username=@a0efc8f5cd541fd7f937dc7955d49bd3&skey=@crypt_6353e9d_531dc18c4e3ced3b7be79e57ad71caa4
p4529
sVKeyWord
p4530
Vgh_
p4531
sVProvince
p4532
V\u4e0a\u6d77
p4533
sVPYInitial
p4534
VSBZBR
p4535
sVRemarkName
p4536
g52
sVIsOwner
p4537
I0
sVSex
p4538
I0
sVStarFriend
p4539
I0
sVHideInputBarFlag
p4540
I0
sVChatRoomId
p4541
I0
sVEncryChatRoomId
p4542
g52
sVAttrStatus
p4543
I0
sVStatues
p4544
I0
stp4545
Rp4546
I1
bag34
(g3231
g39
(dp4547
VUserName
p4548
V@f8d90b76aa2bb22bf5e0b81ad812fdb4
p4549
sVCity
p4550
V\u671d\u9633
p4551
sVSnsFlag
p4552
I0
sVDisplayName
p4553
g52
sVUniFriend
p4554
I0
sVMemberCount
p4555
I0
sVOwnerUin
p4556
I0
sVMemberList
p4557
g50
sVAlias
p4558
g52
sVPYQuanPin
p4559
Vddxxionglaile
p4560
sVSignature
p4561
V\u65e0\u8bba\u662f\u5b66\u5386\u6559\u80b2\u3001IT\u57f9\u8bad\uff0c\u8fd8\u662f\u8bed\u8a00\u57f9\u8bad\u3001\u827a\u672f\u7c7b\u57f9\u8bad\u3001\u804c\u4e1a\u6280\u80fd\u57f9\u8bad\u3001\u6d77\u5916\u7559\u5b66\u9879\u76ee\uff0c\u8d37\u8d37\u718a\u59cb\u7ec8\u79c9\u627f\u201c\u4e3a\u68a6\u60f3\u8005\u70b9\u4eae\u672a\u6765\u201d\u7684\u5b97\u65e8\uff0c\u6839\u636e\u6559\u80b2\u57f9\u8bad\u673a\u6784\u7684\u7279\u70b9\uff0c\u7ed3\u5408\u5b66\u751f\u7684\u5177\u4f53\u9700\u6c42\uff0c\u91cf\u8eab\u5b9a\u505a\u4e0d\u540c\u7684\u89e3\u51b3\u65b9\u6848\uff0c\u4f7f\u5b66\u751f\u53ef\u4ee5\u8f7b\u677e\u901a\u8fc7\u5206\u671f\u4ed8\u6b3e\u6765\u5b8c\u6210\u5b66\u4e1a\u3002
p4562
sVRemarkPYInitial
p4563
g52
sVContactFlag
p4564
I3
sVUin
p4565
I0
sVNickName
p4566
Vddx\u718a\u6765\u4e86
p4567
sVAppAccountFlag
p4568
I0
sVVerifyFlag
p4569
I24
sVRemarkPYQuanPin
p4570
g52
sVHeadImgUrl
p4571
V/cgi-bin/mmwebwx-bin/webwxgeticon?seq=656870811&username=@f8d90b76aa2bb22bf5e0b81ad812fdb4&skey=@crypt_6353e9d_531dc18c4e3ced3b7be79e57ad71caa4
p4572
sVKeyWord
p4573
Vgh_
p4574
sVProvince
p4575
V\u5317\u4eac
p4576
sVPYInitial
p4577
VDDXXLL
p4578
sVRemarkName
p4579
g52
sVIsOwner
p4580
I0
sVSex
p4581
I0
sVStarFriend
p4582
I0
sVHideInputBarFlag
p4583
I0
sVChatRoomId
p4584
I0
sVEncryChatRoomId
p4585
g52
sVAttrStatus
p4586
I0
sVStatues
p4587
I0
stp4588
Rp4589
I1
bag34
(g3231
g39
(dp4590
VUserName
p4591
V@970170f9ea0d4baed294fc83d52e8d9e
p4592
sVCity
p4593
V\u95f5\u884c
p4594
sVSnsFlag
p4595
I0
sVDisplayName
p4596
g52
sVUniFriend
p4597
I0
sVMemberCount
p4598
I0
sVOwnerUin
p4599
I0
sVMemberList
p4600
g50
sVAlias
p4601
g52
sVPYQuanPin
p4602
Velemewangshangdingcan
p4603
sVSignature
p4604
V\u997f\u4e86\u4e48\uff08http://ele.me\uff09\uff0c\u4e13\u4e1a\u7684\u5916\u5356\u8ba2\u9910\u7f51\u7ad9\uff0c\u6c47\u96c6\u5468\u8fb9\u7f8e\u98df\u5916\u5356\uff0c\u4e09\u952e\u4e0b\u5355\u65b9\u4fbf\u5feb\u6377\u3002\u670d\u52a1\u53f7\u76f4\u63a5\u4e0b\u5355\uff0c\u652f\u6301\u8d27\u5230\u4ed8\u6b3e\uff01
p4605
sVRemarkPYInitial
p4606
g52
sVContactFlag
p4607
I3
sVUin
p4608
I0
sVNickName
p4609
V\u997f\u4e86\u4e48\u7f51\u4e0a\u8ba2\u9910
p4610
sVAppAccountFlag
p4611
I0
sVVerifyFlag
p4612
I24
sVRemarkPYQuanPin
p4613
g52
sVHeadImgUrl
p4614
V/cgi-bin/mmwebwx-bin/webwxgeticon?seq=654290538&username=@970170f9ea0d4baed294fc83d52e8d9e&skey=@crypt_6353e9d_531dc18c4e3ced3b7be79e57ad71caa4
p4615
sVKeyWord
p4616
Vgh_
p4617
sVProvince
p4618
V\u4e0a\u6d77
p4619
sVPYInitial
p4620
VELMWSDC
p4621
sVRemarkName
p4622
g52
sVIsOwner
p4623
I0
sVSex
p4624
I0
sVStarFriend
p4625
I0
sVHideInputBarFlag
p4626
I0
sVChatRoomId
p4627
I0
sVEncryChatRoomId
p4628
g52
sVAttrStatus
p4629
I0
sVStatues
p4630
I0
stp4631
Rp4632
I1
bag34
(g3231
g39
(dp4633
VUserName
p4634
V@37c01b7b61080dfd75488351463bb073
p4635
sVCity
p4636
V\u671d\u9633
p4637
sVSnsFlag
p4638
I0
sVDisplayName
p4639
g52
sVUniFriend
p4640
I0
sVMemberCount
p4641
I0
sVOwnerUin
p4642
I0
sVMemberList
p4643
g50
sVAlias
p4644
g52
sVPYQuanPin
p4645
Vyoubao
p4646
sVSignature
p4647
V\u53cb\u5b9dUbox\u662f\u5168\u7403\u552f\u4e00\u7684\u4e92\u52a8\u578b\u81ea\u52a9\u552e\u8d27\u673a\uff0c\u901a\u8fc7\u53cb\u5b9d\u624b\u673a\u5ba2\u6237\u7aef\u53ef\u5728\u552e\u8d27\u673a\u4e0a\u8d2d\u4e70\u996e\u6599\u3001\u96f6\u98df\u3001\u5feb\u9910\uff0c\u83b7\u5f97\u4f60\u7684\u4e13\u5c5e\u4fbf\u5229\u3001\u4e13\u5c5e\u7279\u6743\u3001\u4e13\u5c5e\u4f18\u60e0\u3002
p4648
sVRemarkPYInitial
p4649
g52
sVContactFlag
p4650
I3
sVUin
p4651
I0
sVNickName
p4652
V\u53cb\u5b9d
p4653
sVAppAccountFlag
p4654
I0
sVVerifyFlag
p4655
I24
sVRemarkPYQuanPin
p4656
g52
sVHeadImgUrl
p4657
V/cgi-bin/mmwebwx-bin/webwxgeticon?seq=654291338&username=@37c01b7b61080dfd75488351463bb073&skey=@crypt_6353e9d_531dc18c4e3ced3b7be79e57ad71caa4
p4658
sVKeyWord
p4659
Vgh_
p4660
sVProvince
p4661
V\u5317\u4eac
p4662
sVPYInitial
p4663
VYB
p4664
sVRemarkName
p4665
g52
sVIsOwner
p4666
I0
sVSex
p4667
I0
sVStarFriend
p4668
I0
sVHideInputBarFlag
p4669
I0
sVChatRoomId
p4670
I0
sVEncryChatRoomId
p4671
g52
sVAttrStatus
p4672
I4
sVStatues
p4673
I0
stp4674
Rp4675
I1
bag34
(g3231
g39
(dp4676
VUserName
p4677
V@08a83e084b2753df0b5df5065a87cb58
p4678
sVCity
p4679
g52
sVSnsFlag
p4680
I0
sVDisplayName
p4681
g52
sVUniFriend
p4682
I0
sVMemberCount
p4683
I0
sVOwnerUin
p4684
I0
sVMemberList
p4685
g50
sVAlias
p4686
g52
sVPYQuanPin
p4687
Vmeituanwaimai
p4688
sVSignature
p4689
V\u9001\u4e0a\u95e8\u7684\u7f8e\u597d\u751f\u6d3b\u3002
p4690
sVRemarkPYInitial
p4691
g52
sVContactFlag
p4692
I3
sVUin
p4693
I0
sVNickName
p4694
V\u7f8e\u56e2\u5916\u5356
p4695
sVAppAccountFlag
p4696
I0
sVVerifyFlag
p4697
I24
sVRemarkPYQuanPin
p4698
g52
sVHeadImgUrl
p4699
V/cgi-bin/mmwebwx-bin/webwxgeticon?seq=654290526&username=@08a83e084b2753df0b5df5065a87cb58&skey=@crypt_6353e9d_531dc18c4e3ced3b7be79e57ad71caa4
p4700
sVKeyWord
p4701
Vgh_
p4702
sVProvince
p4703
V\u5317\u4eac
p4704
sVPYInitial
p4705
VMTWM
p4706
sVRemarkName
p4707
g52
sVIsOwner
p4708
I0
sVSex
p4709
I0
sVStarFriend
p4710
I0
sVHideInputBarFlag
p4711
I0
sVChatRoomId
p4712
I0
sVEncryChatRoomId
p4713
g52
sVAttrStatus
p4714
I0
sVStatues
p4715
I0
stp4716
Rp4717
I1
bag34
(g3231
g39
(dp4718
VUserName
p4719
V@e254af8e7d003fe6bac099db17003602
p4720
sVCity
p4721
V\u5357\u4eac
p4722
sVSnsFlag
p4723
I0
sVDisplayName
p4724
g52
sVUniFriend
p4725
I0
sVMemberCount
p4726
I0
sVOwnerUin
p4727
I0
sVMemberList
p4728
g50
sVAlias
p4729
g52
sVPYQuanPin
p4730
Vyunchuangdashuju
p4731
sVSignature
p4732
V\u4e91\u521b\u5927\u6570\u636e\uff08\u8bc1\u5238\u7b80\u79f0\uff1a\u4e91\u521b\u6570\u636e\uff0c\u80a1\u7968\u4ee3\u7801\uff1a835305\uff09\uff0c\u5927\u6570\u636e\u6280\u672f\u9886\u519b\u4f01\u4e1a\u3002\u63d0\u4f9b\u6027\u4ef7\u6bd4\u63d0\u5347\u5341\u500d\u7684\u8d85\u4f4e\u529f\u8017\u4e91\u5b58\u50a8\u7cfb\u7edf\u3001\u6570\u636e\u7acb\u65b9\u5927\u6570\u636e\u5e93\u3001\u8d85\u9ad8\u901f\u4e91\u4f20\u8f93\u7cfb\u7edf\u3001\u6574\u5408\u5404\u79cd\u76d1\u63a7\u7cfb\u7edf\u7684\u4e91\u89c6\u9891\u7cfb\u7edf\u3001PM2.5\u4e91\u76d1\u6d4b\u9884\u8b66\u5e73\u53f0\u7b49\u3002
p4733
sVRemarkPYInitial
p4734
g52
sVContactFlag
p4735
I3
sVUin
p4736
I0
sVNickName
p4737
V\u4e91\u521b\u5927\u6570\u636e
p4738
sVAppAccountFlag
p4739
I0
sVVerifyFlag
p4740
I24
sVRemarkPYQuanPin
p4741
g52
sVHeadImgUrl
p4742
V/cgi-bin/mmwebwx-bin/webwxgeticon?seq=668517604&username=@e254af8e7d003fe6bac099db17003602&skey=@crypt_6353e9d_531dc18c4e3ced3b7be79e57ad71caa4
p4743
sVKeyWord
p4744
Vgh_
p4745
sVProvince
p4746
V\u6c5f\u82cf
p4747
sVPYInitial
p4748
VYCDSJ
p4749
sVRemarkName
p4750
g52
sVIsOwner
p4751
I0
sVSex
p4752
I0
sVStarFriend
p4753
I0
sVHideInputBarFlag
p4754
I0
sVChatRoomId
p4755
I0
sVEncryChatRoomId
p4756
g52
sVAttrStatus
p4757
I0
sVStatues
p4758
I0
stp4759
Rp4760
I1
bag34
(g3231
g39
(dp4761
VUserName
p4762
V@feb067787cc52110a0919d710bf3f5cb
p4763
sVCity
p4764
V\u5357\u4eac
p4765
sVSnsFlag
p4766
I0
sVDisplayName
p4767
g52
sVUniFriend
p4768
I0
sVMemberCount
p4769
I0
sVOwnerUin
p4770
I0
sVMemberList
p4771
g50
sVAlias
p4772
g52
sVPYQuanPin
p4773
Vzhongguodashuju
p4774
sVSignature
p4775
V\u4e2d\u56fd\u5927\u6570\u636e |  \u63d0\u4f9b\u5927\u6570\u636e\u6280\u672f\uff0c\u5927\u6570\u636e\u5e94\u7528\u6848\u4f8b\uff0c\u6c47\u805a\u5927\u6570\u636e\u8d44\u6599\uff0c\u8ba8\u8bba\u5927\u6570\u636e\u8bdd\u9898\u3002\u4e2d\u56fd\u5927\u6570\u636e\u662f\u56fd\u5185\u6700\u65e9\u7684\u516c\u76ca\u6027\u5927\u6570\u636e\u7f51\u7ad9\uff0c\u7531\u5218\u9e4f\u6559\u6388\u521b\u529e\u3002
p4776
sVRemarkPYInitial
p4777
g52
sVContactFlag
p4778
I3
sVUin
p4779
I0
sVNickName
p4780
V\u4e2d\u56fd\u5927\u6570\u636e
p4781
sVAppAccountFlag
p4782
I0
sVVerifyFlag
p4783
I8
sVRemarkPYQuanPin
p4784
g52
sVHeadImgUrl
p4785
V/cgi-bin/mmwebwx-bin/webwxgeticon?seq=668520041&username=@feb067787cc52110a0919d710bf3f5cb&skey=@crypt_6353e9d_531dc18c4e3ced3b7be79e57ad71caa4
p4786
sVKeyWord
p4787
Vgh_
p4788
sVProvince
p4789
V\u6c5f\u82cf
p4790
sVPYInitial
p4791
VZGDSJ
p4792
sVRemarkName
p4793
g52
sVIsOwner
p4794
I0
sVSex
p4795
I0
sVStarFriend
p4796
I0
sVHideInputBarFlag
p4797
I0
sVChatRoomId
p4798
I0
sVEncryChatRoomId
p4799
g52
sVAttrStatus
p4800
I0
sVStatues
p4801
I0
stp4802
Rp4803
I1
bag34
(g3231
g39
(dp4804
VUserName
p4805
V@d980e0eb24e0a9be3e27a25552498747
p4806
sVCity
p4807
V\u5e7f\u5dde
p4808
sVSnsFlag
p4809
I0
sVDisplayName
p4810
g52
sVUniFriend
p4811
I0
sVMemberCount
p4812
I0
sVOwnerUin
p4813
I0
sVMemberList
p4814
g50
sVAlias
p4815
g52
sVPYQuanPin
p4816
VqianliaoLive
p4817
sVSignature
p4818
V\u70b9\u51fb\u5e95\u90e8\u201c\u5173\u6ce8\u201d\uff0c\u624d\u53ef\u53ca\u65f6\u6536\u5230\u8001\u5e08\u5e03\u7f6e\u7684\u4f5c\u4e1a\u548c\u5f00\u8bfe\u901a\u77e5\uff1b\u5343\u804a\u8bfe\u7a0b\u8986\u76d6\u5973\u6027\u6210\u957f\u3001\u5a5a\u604b\u3001\u80b2\u513f\u3001\u745c\u4f3d\u5851\u5f62\u3001\u804c\u573a\u3001\u7ecf\u8425\u7ba1\u7406\u3001\u5fc3\u7406\u7b4940\u591a\u4e2a\u7c7b\u76ee\u3002\u8fdb\u5165\u5343\u804a\uff0c\u8ddf\u4e00\u5343\u4e07\u5b66\u5458\u4e00\u8d77\u5b66\u4e60\u4e00\u8d77\u804a\u3002
p4819
sVRemarkPYInitial
p4820
g52
sVContactFlag
p4821
I3
sVUin
p4822
I0
sVNickName
p4823
V\u5343\u804aLive
p4824
sVAppAccountFlag
p4825
I0
sVVerifyFlag
p4826
I24
sVRemarkPYQuanPin
p4827
g52
sVHeadImgUrl
p4828
V/cgi-bin/mmwebwx-bin/webwxgeticon?seq=668521606&username=@d980e0eb24e0a9be3e27a25552498747&skey=@crypt_6353e9d_531dc18c4e3ced3b7be79e57ad71caa4
p4829
sVKeyWord
p4830
Vgh_
p4831
sVProvince
p4832
V\u5e7f\u4e1c
p4833
sVPYInitial
p4834
VQLLIVE
p4835
sVRemarkName
p4836
g52
sVIsOwner
p4837
I0
sVSex
p4838
I0
sVStarFriend
p4839
I0
sVHideInputBarFlag
p4840
I0
sVChatRoomId
p4841
I0
sVEncryChatRoomId
p4842
g52
sVAttrStatus
p4843
I0
sVStatues
p4844
I0
stp4845
Rp4846
I1
bag34
(g3231
g39
(dp4847
VUserName
p4848
V@44d6b3841a8f3623eafbd590348ce168
p4849
sVCity
p4850
g52
sVSnsFlag
p4851
I0
sVDisplayName
p4852
g52
sVUniFriend
p4853
I0
sVMemberCount
p4854
I0
sVOwnerUin
p4855
I0
sVMemberList
p4856
g50
sVAlias
p4857
g52
sVPYQuanPin
p4858
Vmoshoushijie
p4859
sVSignature
p4860
V\u5173\u6ce8\u9b54\u517d\u4e16\u754c\u670d\u52a1\u53f7\uff0c\u4e3b\u52a8\u83b7\u53d6\u9b54\u517d\u4e16\u754c\u6700\u65b0\u7684\u5b98\u65b9\u8d44\u8baf\u4ee5\u53ca\u6d3b\u52a8\u4fe1\u606f\u3002
p4861
sVRemarkPYInitial
p4862
g52
sVContactFlag
p4863
I3
sVUin
p4864
I0
sVNickName
p4865
V\u9b54\u517d\u4e16\u754c
p4866
sVAppAccountFlag
p4867
I0
sVVerifyFlag
p4868
I24
sVRemarkPYQuanPin
p4869
g52
sVHeadImgUrl
p4870
V/cgi-bin/mmwebwx-bin/webwxgeticon?seq=621170370&username=@44d6b3841a8f3623eafbd590348ce168&skey=@crypt_6353e9d_531dc18c4e3ced3b7be79e57ad71caa4
p4871
sVKeyWord
p4872
Vgh_
p4873
sVProvince
p4874
V\u4e0a\u6d77
p4875
sVPYInitial
p4876
VMSSJ
p4877
sVRemarkName
p4878
g52
sVIsOwner
p4879
I0
sVSex
p4880
I0
sVStarFriend
p4881
I0
sVHideInputBarFlag
p4882
I0
sVChatRoomId
p4883
I0
sVEncryChatRoomId
p4884
g52
sVAttrStatus
p4885
I0
sVStatues
p4886
I0
stp4887
Rp4888
I1
bag34
(g3231
g39
(dp4889
VUserName
p4890
V@a800c95da1362825c2918c0186fd51d0
p4891
sVCity
p4892
V\u5357\u4eac
p4893
sVSnsFlag
p4894
I0
sVDisplayName
p4895
g52
sVUniFriend
p4896
I0
sVMemberCount
p4897
I0
sVOwnerUin
p4898
I0
sVMemberList
p4899
g50
sVAlias
p4900
g52
sVPYQuanPin
p4901
Vyinchengqianwanjian
p4902
sVSignature
p4903
V\u5357\u4eac\u9996\u5bb6\u8d44\u4ea7\u7ba1\u7406\uff0c\u957f\u79df\u5e73\u53f0\u3002\uff08\u6c38\u4e45\u514d\u4e2d\u4ecb\u8d39\uff09
p4904
sVRemarkPYInitial
p4905
g52
sVContactFlag
p4906
I3
sVUin
p4907
I0
sVNickName
p4908
V\u94f6\u57ce\u5343\u4e07\u95f4
p4909
sVAppAccountFlag
p4910
I0
sVVerifyFlag
p4911
I24
sVRemarkPYQuanPin
p4912
g52
sVHeadImgUrl
p4913
V/cgi-bin/mmwebwx-bin/webwxgeticon?seq=668529949&username=@a800c95da1362825c2918c0186fd51d0&skey=@crypt_6353e9d_531dc18c4e3ced3b7be79e57ad71caa4
p4914
sVKeyWord
p4915
Vgh_
p4916
sVProvince
p4917
V\u6c5f\u82cf
p4918
sVPYInitial
p4919
VYCQWJ
p4920
sVRemarkName
p4921
g52
sVIsOwner
p4922
I0
sVSex
p4923
I0
sVStarFriend
p4924
I0
sVHideInputBarFlag
p4925
I0
sVChatRoomId
p4926
I0
sVEncryChatRoomId
p4927
g52
sVAttrStatus
p4928
I0
sVStatues
p4929
I0
stp4930
Rp4931
I1
bag34
(g3231
g39
(dp4932
VUserName
p4933
V@f8453bbc6f33be416f22d2d6b6f7c0b3
p4934
sVCity
p4935
g52
sVSnsFlag
p4936
I0
sVDisplayName
p4937
g52
sVUniFriend
p4938
I0
sVMemberCount
p4939
I0
sVOwnerUin
p4940
I0
sVMemberList
p4941
g50
sVAlias
p4942
g52
sVPYQuanPin
p4943
VbotaohuiWeHotel
p4944
sVSignature
p4945
V\u94c2\u6d9b\u65c5\u884c\u4f5c\u4e3a\u4e2d\u56fd\u9152\u5e97\u4e1a\u6700\u5927\u5b98\u65b9\u76f4\u9500\u5e73\u53f0\uff0c\u73b0\u5df2\u6b63\u5f0f\u52a0\u5165WeHotel\u4f53\u7cfb\u3002\u4f1a\u5458\u9884\u8ba2\u4ecd\u4eab\u53d7\u5b98\u65b9\u76f4\u9500\u4ef7\u683c\uff0c\u8986\u76d67\u5929\u3001\u9e97\u67ab\u3001\u9526\u6c5f\u4e4b\u661f\u3001\u7ef4\u4e5f\u7eb3\u7b49\u5168\u740323\u4e2a\u54c1\u724c\u8d855000\u5bb6\u9152\u5e97\u3002\u6b64\u5916\uff0c\u8fd8\u53ef\u9884\u8ba2\u666f\u533a\u95e8\u7968\u3001\u6c11\u5bbf\u548c\u516c\u5bd3\u7b49\u4ea7\u54c1\uff0c\u5e76\u4eab\u53d7\u4f1a\u5458\u6298\u6263\u3001\u79ef\u5206\u548c\u6743\u76ca\uff01
p4946
sVRemarkPYInitial
p4947
g52
sVContactFlag
p4948
I3
sVUin
p4949
I0
sVNickName
p4950
V\u94c2\u6d9b\u4f1aWeHotel
p4951
sVAppAccountFlag
p4952
I0
sVVerifyFlag
p4953
I24
sVRemarkPYQuanPin
p4954
g52
sVHeadImgUrl
p4955
V/cgi-bin/mmwebwx-bin/webwxgeticon?seq=668530063&username=@f8453bbc6f33be416f22d2d6b6f7c0b3&skey=@crypt_6353e9d_531dc18c4e3ced3b7be79e57ad71caa4
p4956
sVKeyWord
p4957
Vgh_
p4958
sVProvince
p4959
V\u5e7f\u4e1c
p4960
sVPYInitial
p4961
VBTHWEHOTEL
p4962
sVRemarkName
p4963
g52
sVIsOwner
p4964
I0
sVSex
p4965
I0
sVStarFriend
p4966
I0
sVHideInputBarFlag
p4967
I0
sVChatRoomId
p4968
I0
sVEncryChatRoomId
p4969
g52
sVAttrStatus
p4970
I0
sVStatues
p4971
I0
stp4972
Rp4973
I1
bag34
(g3231
g39
(dp4974
VUserName
p4975
V@f353c6337e15838091f165e6da28e8c6
p4976
sVCity
p4977
V\u626c\u5dde
p4978
sVSnsFlag
p4979
I0
sVDisplayName
p4980
g52
sVUniFriend
p4981
I0
sVMemberCount
p4982
I0
sVOwnerUin
p4983
I0
sVMemberList
p4984
g50
sVAlias
p4985
g52
sVPYQuanPin
p4986
Vyinxiangmingchengfuwuhao
p4987
sVSignature
p4988
V\u901a\u8fc7\u5c0f\u7a0b\u5e8f\u4e8c\u7ef4\u7801\u628a\u4eba\u4e0e\u57ce\u5e02\u8fde\u63a5\u8d77\u6765\uff0c\u79fb\u52a8\u4e92\u8054\u7f51\u5c55\u73b0\u57ce\u5e02\u98ce\u8c8c\u3001\u4f53\u73b0\u57ce\u5e02\u6d3b\u529b\u3001\u5bfb\u89c5\u57ce\u5e02\u5386\u53f2\u3001\u6316\u6398\u57ce\u5e02\u7075\u9b42\u3001\u4e86\u89e3\u57ce\u5e02\u6027\u683c\u3001\u4f20\u64ad\u54c1\u724c\u5370\u8c61\u540d\u57ce\u3002\u597d\u5370\u8c61\u81ea\u6709\u5927\u5f71\u54cd\uff01
p4989
sVRemarkPYInitial
p4990
g52
sVContactFlag
p4991
I3
sVUin
p4992
I0
sVNickName
p4993
V\u5370\u8c61\u540d\u57ce\u670d\u52a1\u53f7
p4994
sVAppAccountFlag
p4995
I0
sVVerifyFlag
p4996
I24
sVRemarkPYQuanPin
p4997
g52
sVHeadImgUrl
p4998
V/cgi-bin/mmwebwx-bin/webwxgeticon?seq=668527510&username=@f353c6337e15838091f165e6da28e8c6&skey=@crypt_6353e9d_531dc18c4e3ced3b7be79e57ad71caa4
p4999
sVKeyWord
p5000
Vgh_
p5001
sVProvince
p5002
V\u6c5f\u82cf
p5003
sVPYInitial
p5004
VYXMCFWH
p5005
sVRemarkName
p5006
g52
sVIsOwner
p5007
I0
sVSex
p5008
I0
sVStarFriend
p5009
I0
sVHideInputBarFlag
p5010
I0
sVChatRoomId
p5011
I0
sVEncryChatRoomId
p5012
g52
sVAttrStatus
p5013
I0
sVStatues
p5014
I0
stp5015
Rp5016
I1
bag34
(g3231
g39
(dp5017
VUserName
p5018
V@607ac132e9dd66777867f6e67f64ce5a
p5019
sVCity
p5020
V\u4fe1\u9633
p5021
sVSnsFlag
p5022
I0
sVDisplayName
p5023
g52
sVUniFriend
p5024
I0
sVMemberCount
p5025
I0
sVOwnerUin
p5026
I0
sVMemberList
p5027
g50
sVAlias
p5028
g52
sVPYQuanPin
p5029
Vgaoxiaogongzhu
p5030
sVSignature
p5031
V\u6bcf\u5929\uff0c\u90fd\u662f\u5feb\u4e50\u7684\u5f00\u59cb\uff01\u641e\u7b11\u516c\u4e3b\uff0c\u8ba9\u4f60\u6bcf\u5929\u7b11\u4e0d\u505c\uff01
p5032
sVRemarkPYInitial
p5033
g52
sVContactFlag
p5034
I3
sVUin
p5035
I0
sVNickName
p5036
V\u641e\u7b11\u516c\u4e3b
p5037
sVAppAccountFlag
p5038
I0
sVVerifyFlag
p5039
I8
sVRemarkPYQuanPin
p5040
g52
sVHeadImgUrl
p5041
V/cgi-bin/mmwebwx-bin/webwxgeticon?seq=668540952&username=@607ac132e9dd66777867f6e67f64ce5a&skey=@crypt_6353e9d_531dc18c4e3ced3b7be79e57ad71caa4
p5042
sVKeyWord
p5043
Vgh_
p5044
sVProvince
p5045
V\u6cb3\u5357
p5046
sVPYInitial
p5047
VGXGZ
p5048
sVRemarkName
p5049
g52
sVIsOwner
p5050
I0
sVSex
p5051
I0
sVStarFriend
p5052
I0
sVHideInputBarFlag
p5053
I0
sVChatRoomId
p5054
I0
sVEncryChatRoomId
p5055
g52
sVAttrStatus
p5056
I0
sVStatues
p5057
I0
stp5058
Rp5059
I1
bag34
(g3231
g39
(dp5060
VUserName
p5061
V@40eb258ebb1fcc0ae163149a7a7c1319
p5062
sVCity
p5063
V\u6d66\u4e1c\u65b0\u533a
p5064
sVSnsFlag
p5065
I0
sVDisplayName
p5066
g52
sVUniFriend
p5067
I0
sVMemberCount
p5068
I0
sVOwnerUin
p5069
I0
sVMemberList
p5070
g50
sVAlias
p5071
g52
sVPYQuanPin
p5072
Vjiangnacangshuguan
p5073
sVSignature
p5074
V\u6d77\u91cf\u56fe\u4e66 \u514d\u8d39\u9605\u8bfb
p5075
sVRemarkPYInitial
p5076
g52
sVContactFlag
p5077
I3
sVUin
p5078
I0
sVNickName
p5079
V\u6c5f\u5357\u85cf\u4e66\u9986
p5080
sVAppAccountFlag
p5081
I0
sVVerifyFlag
p5082
I24
sVRemarkPYQuanPin
p5083
g52
sVHeadImgUrl
p5084
V/cgi-bin/mmwebwx-bin/webwxgeticon?seq=668541044&username=@40eb258ebb1fcc0ae163149a7a7c1319&skey=@crypt_6353e9d_531dc18c4e3ced3b7be79e57ad71caa4
p5085
sVKeyWord
p5086
Vgh_
p5087
sVProvince
p5088
V\u4e0a\u6d77
p5089
sVPYInitial
p5090
VJNCSG
p5091
sVRemarkName
p5092
g52
sVIsOwner
p5093
I0
sVSex
p5094
I0
sVStarFriend
p5095
I0
sVHideInputBarFlag
p5096
I0
sVChatRoomId
p5097
I0
sVEncryChatRoomId
p5098
g52
sVAttrStatus
p5099
I0
sVStatues
p5100
I0
stp5101
Rp5102
I1
bag34
(g3231
g39
(dp5103
VUserName
p5104
V@6f7db9a02ecc7b76afcb146d815727e5
p5105
sVCity
p5106
V\u6df1\u5733
p5107
sVSnsFlag
p5108
I0
sVDisplayName
p5109
g52
sVUniFriend
p5110
I0
sVMemberCount
p5111
I0
sVOwnerUin
p5112
I0
sVMemberList
p5113
g50
sVAlias
p5114
g52
sVPYQuanPin
p5115
Vtengxunyingmeiju
p5116
sVSignature
p5117
V\u6700\u6f6e\u6d41\u7684\u82f1\u7f8e\u5267\u8ffd\u5267\u6307\u5357
p5118
sVRemarkPYInitial
p5119
g52
sVContactFlag
p5120
I1
sVUin
p5121
I0
sVNickName
p5122
V\u817e\u8baf\u82f1\u7f8e\u5267
p5123
sVAppAccountFlag
p5124
I0
sVVerifyFlag
p5125
I24
sVRemarkPYQuanPin
p5126
g52
sVHeadImgUrl
p5127
V/cgi-bin/mmwebwx-bin/webwxgeticon?seq=668542168&username=@6f7db9a02ecc7b76afcb146d815727e5&skey=@crypt_6353e9d_531dc18c4e3ced3b7be79e57ad71caa4
p5128
sVKeyWord
p5129
Vgh_
p5130
sVProvince
p5131
V\u5e7f\u4e1c
p5132
sVPYInitial
p5133
VTXYMJ
p5134
sVRemarkName
p5135
g52
sVIsOwner
p5136
I0
sVSex
p5137
I0
sVStarFriend
p5138
I0
sVHideInputBarFlag
p5139
I0
sVChatRoomId
p5140
I0
sVEncryChatRoomId
p5141
g52
sVAttrStatus
p5142
I0
sVStatues
p5143
I0
stp5144
Rp5145
I1
batp5146
Rp5147
I1
bssS'loginInfo'
p5148
(dp5149
S'SyncKey'
p5150
(dp5151
VCount
p5152
I4
sVList
p5153
(lp5154
(dp5155
VVal
p5156
I668545702
sVKey
p5157
I1
sa(dp5158
VVal
p5159
I668546371
sVKey
p5160
I2
sa(dp5161
VVal
p5162
I668546095
sVKey
p5163
I3
sa(dp5164
VVal
p5165
I1502013961
sVKey
p5166
I1000
sassS'syncUrl'
p5167
S'https://webpush.wx.qq.com/cgi-bin/mmwebwx-bin'
p5168
sS'skey'
p5169
V@crypt_6353e9d_531dc18c4e3ced3b7be79e57ad71caa4
p5170
sS'wxuin'
p5171
V1610532702
p5172
sS'synckey'
p5173
S'1_668545702|2_668546371|3_668546095|1000_1502013961'
p5174
sS'url'
p5175
Vhttps://wx.qq.com/cgi-bin/mmwebwx-bin
p5176
sS'pass_ticket'
p5177
VAroo0a8gs7r3Cf6QpGmEnv6DhCYL6zrsPKoZT5dgzc0a2cF90GrKHTJPnn0%2FoAP3
p5178
sS'wxsid'
p5179
VCzmKsScsPWuVTsZ9
p5180
sS'BaseRequest'
p5181
(dp5182
g54
g5172
sS'Skey'
p5183
g5170
sS'DeviceID'
p5184
g5178
sS'Sid'
p5185
g5180
ssS'User'
p5186
g34
(g38
g39
(dp5187
g41
g31
sg42
g43
sg44
g43
sg45
I0
sg47
g50
sg51
g52
sg53
g52
sg78
I1
sg55
I0
sg56
I0
sg57
g43
sg58
g43
sg59
g52
sg60
g52
sg61
I0
sg62
I0
sg63
I1
sg64
g43
sg65
I0
sg68
I0
sg66
I17
sg67
I0
sg46
I0
sg69
g43
sg70
g71
sg72
I0
sg73
g74
sg75
g52
sg76
g77
sg54
I1610532702
sg79
I0
sg80
I0
stp5188
Rp5189
I1
bsS'fileUrl'
p5190
S'https://file.wx.qq.com/cgi-bin/mmwebwx-bin'
p5191
sS'InviteStartCount'
p5192
I40
sS'deviceid'
p5193
S'e146158570708449'
p5194
ss.